libnixcmd.so:_ZN3nix10MixProfile13updateProfileERKNS_9StorePathE
libnixcmd.so:_ZN3nix10MixProfile13updateProfileERKSt6vectorINS_9BuiltPathESaIS2_EE
libnixcmd.so:_ZN3nix10MixProfileC2Ev
libnixcmd.so:_ZN3nix11CopyCommand11createStoreEv
libnixcmd.so:_ZN3nix11CopyCommand11getDstStoreEv
libnixcmd.so:_ZN3nix11CopyCommandC2Ev
libnixcmd.so:_ZN3nix11EvalCommand12getEvalStateEv
libnixcmd.so:_ZN3nix11EvalCommand12getEvalStoreEv
libnixcmd.so:_ZN3nix11EvalCommandC2Ev
libnixcmd.so:_ZN3nix11EvalCommandD0Ev
libnixcmd.so:_ZN3nix11EvalCommandD1Ev
libnixcmd.so:_ZN3nix11EvalCommandD2Ev
libnixcmd.so:_ZN3nix11Installable11toStorePathENS_3refINS_5StoreEEES3_NS_7RealiseENS_9OperateOnENS1_IS0_EE
libnixcmd.so:_ZN3nix11Installable12toBuiltPathsENS_3refINS_5StoreEEES3_NS_7RealiseENS_9OperateOnERKSt6vectorINS1_IS0_EESaIS7_EE
libnixcmd.so:_ZN3nix11Installable12toStorePathsENS_3refINS_5StoreEEES3_NS_7RealiseENS_9OperateOnERKSt6vectorINS1_IS0_EESaIS7_EE
libnixcmd.so:_ZN3nix11Installable13toDerivationsENS_3refINS_5StoreEEERKSt6vectorINS1_IS0_EESaIS5_EEb
libnixcmd.so:_ZN3nix11Installable13toDerivedPathEv
libnixcmd.so:_ZN3nix11Installable14toStorePathSetENS_3refINS_5StoreEEES3_NS_7RealiseENS_9OperateOnERKSt6vectorINS1_IS0_EESaIS7_EE
libnixcmd.so:_ZN3nix11Installable5buildENS_3refINS_5StoreEEES3_NS_7RealiseERKSt6vectorINS1_IS0_EESaIS6_EENS_9BuildModeE
libnixcmd.so:_ZN3nix11Installable6build2ENS_3refINS_5StoreEEES3_NS_7RealiseERKSt6vectorINS1_IS0_EESaIS6_EENS_9BuildModeE
libnixcmd.so:_ZN3nix11MixEvalArgs11getAutoArgsERNS_9EvalStateE
libnixcmd.so:_ZN3nix11MixEvalArgsC1Ev
libnixcmd.so:_ZN3nix11MixEvalArgsC2Ev
libnixcmd.so:_ZN3nix12StoreCommand11createStoreEv
libnixcmd.so:_ZN3nix12StoreCommand3runEv
libnixcmd.so:_ZN3nix12StoreCommand8getStoreEv
libnixcmd.so:_ZN3nix12StoreCommandC2Ev
libnixcmd.so:_ZN3nix12evalSettingsE
libnixcmd.so:_ZN3nix12toBuiltPathsERKSt6vectorINS_19BuiltPathWithResultESaIS1_EE
libnixcmd.so:_ZN3nix13fetchSettingsE
libnixcmd.so:_ZN3nix13flakeSettingsE
libnixcmd.so:_ZN3nix13lookupFileArgERNS_9EvalStateESt17basic_string_viewIcSt11char_traitsIcEEPKNSt7__cxx1112basic_stringIcS4_SaIcEEE
libnixcmd.so:_ZN3nix13openEvalCacheERNS_9EvalStateESt10shared_ptrINS_5flake11LockedFlakeEE
libnixcmd.so:_ZN3nix14MixEnvironment10setEnvironEv
libnixcmd.so:_ZN3nix14MixEnvironmentC1Ev
libnixcmd.so:_ZN3nix14MixEnvironmentC2Ev
libnixcmd.so:_ZN3nix14createOutLinksERKNSt10filesystem7__cxx114pathERKSt6vectorINS_9BuiltPathESaIS6_EERNS_12LocalFSStoreE
libnixcmd.so:_ZN3nix15AbstractNixRepl6createERKNS_10LookupPathENS_3refINS_5StoreEEENS4_INS_9EvalStateEEESt8functionIFSt6vectorISt4pairIPNS_5ValueENSt7__cxx1112basic_stringIcSt11char_traitsIcESaIcEEEESaISK_EEvEEPFvSJ_RKNSE_4listISJ_SaISJ_EEERKSt8optionalISJ_EE
libnixcmd.so:_ZN3nix15AbstractNixRepl9runSimpleENS_3refINS_9EvalStateEEERKSt3mapINSt7__cxx1112basic_stringIcSt11char_traitsIcESaIcEEEPNS_5ValueESt4lessISA_E19traceable_allocatorISt4pairIKSA_SC_EEE
libnixcmd.so:_ZN3nix15MixFlakeOptionsC2Ev
libnixcmd.so:_ZN3nix15NixMultiCommand3runEv
libnixcmd.so:_ZN3nix15NixMultiCommand6toJSONB5cxx11Ev
libnixcmd.so:_ZN3nix15RegisterCommand14getCommandsForERKSt6vectorINSt7__cxx1112basic_stringIcSt11char_traitsIcESaIcEEESaIS7_EE
libnixcmd.so:_ZN3nix15RegisterCommand8commandsB5cxx11E
libnixcmd.so:_ZN3nix16InstallableFlake10getCursorsERNS_9EvalStateE
libnixcmd.so:_ZN3nix16InstallableFlake14toDerivedPathsEv
libnixcmd.so:_ZN3nix16InstallableFlake18getActualAttrPathsB5cxx11Ev
libnixcmd.so:_ZN3nix16InstallableFlake7toValueERNS_9EvalStateE
libnixcmd.so:_ZN3nix16InstallableFlakeC1EPNS_17SourceExprCommandENS_3refINS_9EvalStateEEEONS_8FlakeRefESt17basic_string_viewIcSt11char_traitsIcEENS_19ExtendedOutputsSpecENSt7__cxx114listINSD_12basic_stringIcSA_SaIcEEESaISH_EEESJ_RKNS_5flake9LockFlagsE
libnixcmd.so:_ZN3nix16InstallableFlakeC2EPNS_17SourceExprCommandENS_3refINS_9EvalStateEEEONS_8FlakeRefESt17basic_string_viewIcSt11char_traitsIcEENS_19ExtendedOutputsSpecENSt7__cxx114listINSD_12basic_stringIcSA_SaIcEEESaISH_EEESJ_RKNS_5flake9LockFlagsE
libnixcmd.so:_ZN3nix16InstallableValue10getCursorsERNS_9EvalStateE
libnixcmd.so:_ZN3nix16InstallableValue27trySinglePathToDerivedPathsERNS_5ValueENS_6PosIdxESt17basic_string_viewIcSt11char_traitsIcEE
libnixcmd.so:_ZN3nix16InstallableValue7requireENS_3refINS_11InstallableEEE
libnixcmd.so:_ZN3nix16InstallableValue7requireERNS_11InstallableE
libnixcmd.so:_ZN3nix16InstallableValue9getCursorERNS_9EvalStateE
libnixcmd.so:_ZN3nix16StorePathCommand3runENS_3refINS_5StoreEEEOSt6vectorINS_9StorePathESaIS5_EE
libnixcmd.so:_ZN3nix16completeFlakeRefERNS_14AddCompletionsENS_3refINS_5StoreEEESt17basic_string_viewIcSt11char_traitsIcEE
libnixcmd.so:_ZN3nix16removeWhitespaceENSt7__cxx1112basic_stringIcSt11char_traitsIcESaIcEEE
libnixcmd.so:_ZN3nix17BuiltPathsCommand24applyDefaultInstallablesERSt6vectorINSt7__cxx1112basic_stringIcSt11char_traitsIcESaIcEEESaIS7_EE
libnixcmd.so:_ZN3nix17BuiltPathsCommand3runENS_3refINS_5StoreEEEOSt6vectorINS1_INS_11InstallableEEESaIS6_EE
libnixcmd.so:_ZN3nix17BuiltPathsCommandC2Eb
libnixcmd.so:_ZN3nix17MixDefaultProfileC2Ev
libnixcmd.so:_ZN3nix17MixReadOnlyOptionC1Ev
libnixcmd.so:_ZN3nix17MixReadOnlyOptionC2Ev
libnixcmd.so:_ZN3nix17SourceExprCommand16parseInstallableENS_3refINS_5StoreEEERKNSt7__cxx1112basic_stringIcSt11char_traitsIcESaIcEEE
libnixcmd.so:_ZN3nix17SourceExprCommand17parseInstallablesENS_3refINS_5StoreEEESt6vectorINSt7__cxx1112basic_stringIcSt11char_traitsIcESaIcEEESaISA_EE
libnixcmd.so:_ZN3nix17SourceExprCommand19completeInstallableERNS_14AddCompletionsESt17basic_string_viewIcSt11char_traitsIcEE
libnixcmd.so:_ZN3nix17SourceExprCommand22getCompleteInstallableEv
libnixcmd.so:_ZN3nix17SourceExprCommand24getDefaultFlakeAttrPathsB5cxx11Ev
libnixcmd.so:_ZN3nix17SourceExprCommand31getDefaultFlakeAttrPathPrefixesB5cxx11Ev
libnixcmd.so:_ZN3nix17SourceExprCommandC2Ev
libnixcmd.so:_ZN3nix17StorePathsCommand3runENS_3refINS_5StoreEEEOSt6vectorINS_9BuiltPathESaIS5_EES8_
libnixcmd.so:_ZN3nix17StorePathsCommandC2Eb
libnixcmd.so:_ZN3nix18InstallableCommand25getFlakeRefsForCompletionEv
libnixcmd.so:_ZN3nix18InstallableCommand3runENS_3refINS_5StoreEEE
libnixcmd.so:_ZN3nix18InstallableCommandC2Ev
libnixcmd.so:_ZN3nix19InstallableAttrPath14toDerivedPathsEv
libnixcmd.so:_ZN3nix19InstallableAttrPath5parseENS_3refINS_9EvalStateEEERNS_17SourceExprCommandEPNS_5ValueESt17basic_string_viewIcSt11char_traitsIcEENS_19ExtendedOutputsSpecE
libnixcmd.so:_ZN3nix19InstallableAttrPath7toValueERNS_9EvalStateE
libnixcmd.so:_ZN3nix19InstallableAttrPathC1ENS_3refINS_9EvalStateEEERNS_17SourceExprCommandEPNS_5ValueERKNSt7__cxx1112basic_stringIcSt11char_traitsIcESaIcEEENS_19ExtendedOutputsSpecE
libnixcmd.so:_ZN3nix19InstallableAttrPathC2ENS_3refINS_9EvalStateEEERNS_17SourceExprCommandEPNS_5ValueERKNSt7__cxx1112basic_stringIcSt11char_traitsIcESaIcEEENS_19ExtendedOutputsSpecE
libnixcmd.so:_ZN3nix19InstallablesCommand3runENS_3refINS_5StoreEEEOSt6vectorINSt7__cxx1112basic_stringIcSt11char_traitsIcESaIcEEESaISA_EE
libnixcmd.so:_ZN3nix19MixOperateOnOptionsC1Ev
libnixcmd.so:_ZN3nix19MixOperateOnOptionsC2Ev
libnixcmd.so:_ZN3nix21RegisterLegacyCommand8commandsB5cxx11E
libnixcmd.so:_ZN3nix21compatibilitySettingsE
libnixcmd.so:_ZN3nix21networkProxyVariablesB5cxx11E
libnixcmd.so:_ZN3nix22InstallableDerivedPath12getStorePathEv
libnixcmd.so:_ZN3nix22InstallableDerivedPath14toDerivedPathsEv
libnixcmd.so:_ZN3nix22InstallableDerivedPath5parseENS_3refINS_5StoreEEESt17basic_string_viewIcSt11char_traitsIcEENS_19ExtendedOutputsSpecE
libnixcmd.so:_ZN3nix22RawInstallablesCommand24applyDefaultInstallablesERSt6vectorINSt7__cxx1112basic_stringIcSt11char_traitsIcESaIcEEESaIS7_EE
libnixcmd.so:_ZN3nix22RawInstallablesCommand25getFlakeRefsForCompletionEv
libnixcmd.so:_ZN3nix22RawInstallablesCommand3runENS_3refINS_5StoreEEE
libnixcmd.so:_ZN3nix22RawInstallablesCommandC2Ev
libnixcmd.so:_ZN3nix22ReadlineLikeInteracter4initEPNS_6detail18ReplCompleterMixinE
libnixcmd.so:_ZN3nix22ReadlineLikeInteracter7getLineERNSt7__cxx1112basic_stringIcSt11char_traitsIcESaIcEEENS_14ReplPromptTypeE
libnixcmd.so:_ZN3nix22ReadlineLikeInteracterD0Ev
libnixcmd.so:_ZN3nix22ReadlineLikeInteracterD1Ev
libnixcmd.so:_ZN3nix22ReadlineLikeInteracterD2Ev
libnixcmd.so:_ZN3nix23InstallableValueCommand3runENS_3refINS_5StoreEEENS1_INS_11InstallableEEE
libnixcmd.so:_ZN3nix24renderMarkdownToTerminalB5cxx11ESt17basic_string_viewIcSt11char_traitsIcEE
libnixcmd.so:_ZN3nix26completeFlakeInputAttrPathERNS_14AddCompletionsENS_3refINS_9EvalStateEEERKSt6vectorINS_8FlakeRefESaIS6_EESt17basic_string_viewIcSt11char_traitsIcEE
libnixcmd.so:_ZN3nix26haveNetworkProxyConnectionEv
libnixcmd.so:_ZN3nix28completeFlakeRefWithFragmentERNS_14AddCompletionsENS_3refINS_9EvalStateEEENS_5flake9LockFlagsENSt7__cxx114listINS7_12basic_stringIcSt11char_traitsIcESaIcEEESaISD_EEERKSF_St17basic_string_viewIcSB_E
libnixcmd.so:_ZN3nix4flag11hashAlgoOptEONSt7__cxx1112basic_stringIcSt11char_traitsIcESaIcEEEPSt8optionalINS_13HashAlgorithmEE
libnixcmd.so:_ZN3nix4flag13hashFormatOptEONSt7__cxx1112basic_stringIcSt11char_traitsIcESaIcEEEPSt8optionalINS_10HashFormatEE
libnixcmd.so:_ZN3nix4flag19fileIngestionMethodEPNS_19FileIngestionMethodE
libnixcmd.so:_ZN3nix4flag20contentAddressMethodEPNS_20ContentAddressMethodE
libnixcmd.so:_ZN3nix4flag21hashFormatWithDefaultEONSt7__cxx1112basic_stringIcSt11char_traitsIcESaIcEEEPNS_10HashFormatE
libnixcmd.so:_ZN3nix4flag8hashAlgoEONSt7__cxx1112basic_stringIcSt11char_traitsIcESaIcEEEPNS_13HashAlgorithmE
libnixcmd.so:_ZN3nix7NixRepl10evalStringENSt7__cxx1112basic_stringIcSt11char_traitsIcESaIcEEERNS_5ValueE
libnixcmd.so:_ZN3nix7NixRepl11parseStringENSt7__cxx1112basic_stringIcSt11char_traitsIcESaIcEEE
libnixcmd.so:_ZN3nix7NixRepl11processLineENSt7__cxx1112basic_stringIcSt11char_traitsIcESaIcEEE
libnixcmd.so:_ZN3nix7NixRepl11reloadFilesEv
libnixcmd.so:_ZN3nix7NixRepl13addVarToScopeENS_6SymbolERNS_5ValueE
libnixcmd.so:_ZN3nix7NixRepl14completePrefixERKNSt7__cxx1112basic_stringIcSt11char_traitsIcESaIcEEE
libnixcmd.so:_ZN3nix7NixRepl15addAttrsToScopeERNS_5ValueE
libnixcmd.so:_ZN3nix7NixRepl17getDerivationPathERNS_5ValueE
libnixcmd.so:_ZN3nix7NixRepl17loadDebugTraceEnvERNS_10DebugTraceE
libnixcmd.so:_ZN3nix7NixRepl6runNixENSt7__cxx1112basic_stringIcSt11char_traitsIcESaIcEEERKNS1_4listIS6_SaIS6_EEERKSt8optionalIS6_E
libnixcmd.so:_ZN3nix7NixRepl7initEnvEv
libnixcmd.so:_ZN3nix7NixRepl8loadFileERKNSt7__cxx1112basic_stringIcSt11char_traitsIcESaIcEEE
libnixcmd.so:_ZN3nix7NixRepl8mainLoopEv
libnixcmd.so:_ZN3nix7NixRepl9loadFilesEv
libnixcmd.so:_ZN3nix7NixRepl9loadFlakeERKNSt7__cxx1112basic_stringIcSt11char_traitsIcESaIcEEE
libnixcmd.so:_ZN3nix7NixReplC1ERKNS_10LookupPathENS_3refINS_5StoreEEENS4_INS_9EvalStateEEESt8functionIFSt6vectorISt4pairIPNS_5ValueENSt7__cxx1112basic_stringIcSt11char_traitsIcESaIcEEEESaISK_EEvEEPFvSJ_RKNSE_4listISJ_SaISJ_EEERKSt8optionalISJ_EE
libnixcmd.so:_ZN3nix7NixReplC2ERKNS_10LookupPathENS_3refINS_5StoreEEENS4_INS_9EvalStateEEESt8functionIFSt6vectorISt4pairIPNS_5ValueENSt7__cxx1112basic_stringIcSt11char_traitsIcESaIcEEEESaISK_EEvEEPFvSJ_RKNSE_4listISJ_SaISJ_EEERKSt8optionalISJ_EE
libnixcmd.so:_ZN3nix9editorForB5cxx11ERKNS_10SourcePathEj
libnixcmd.so:_ZNK3nix14BuiltPathBuilt6toJSONB5cxx11ERKNS_14StoreDirConfigE
libnixcmd.so:_ZNK3nix14BuiltPathBuilteqERKS0_
libnixcmd.so:_ZNK3nix15SingleBuiltPath17discardOutputPathEv
libnixcmd.so:_ZNK3nix15SingleBuiltPath6toJSONB5cxx11ERKNS_14StoreDirConfigE
libnixcmd.so:_ZNK3nix15SingleBuiltPath7outPathEv
libnixcmd.so:_ZNK3nix16InstallableFlake14getLockedFlakeEv
libnixcmd.so:_ZNK3nix16InstallableFlake15nixpkgsFlakeRefEv
libnixcmd.so:_ZNK3nix20SingleBuiltPathBuilt17discardOutputPathEv
libnixcmd.so:_ZNK3nix20SingleBuiltPathBuilt6toJSONB5cxx11ERKNS_14StoreDirConfigE
libnixcmd.so:_ZNK3nix20SingleBuiltPathBuilteqERKS0_
libnixcmd.so:_ZNK3nix20SingleBuiltPathBuiltssERKS0_
libnixcmd.so:_ZNK3nix22InstallableDerivedPath4whatB5cxx11Ev
libnixcmd.so:_ZNK3nix9BuiltPath15toRealisedPathsERNS_5StoreE
libnixcmd.so:_ZNK3nix9BuiltPath6toJSONB5cxx11ERKNS_14StoreDirConfigE
libnixcmd.so:_ZNK3nix9BuiltPath8outPathsEv
libnixcmd.so:_ZTCN3nix11CopyCommandE0_NS_7CommandE
libnixcmd.so:_ZTCN3nix11CopyCommandE72_NS_12StoreCommandE
libnixcmd.so:_ZTCN3nix11EvalCommandE0_NS_11MixEvalArgsE
libnixcmd.so:_ZTCN3nix11EvalCommandE160_NS_12StoreCommandE
libnixcmd.so:_ZTCN3nix11EvalCommandE160_NS_7CommandE
libnixcmd.so:_ZTCN3nix11EvalCommandE392_NS_9MixRepairE
libnixcmd.so:_ZTCN3nix12StoreCommandE0_NS_7CommandE
libnixcmd.so:_ZTCN3nix15NixMultiCommandE0_NS_12MultiCommandE
libnixcmd.so:_ZTCN3nix15NixMultiCommandE400_NS_7CommandE
libnixcmd.so:_ZTCN3nix16StorePathCommandE0_NS_11EvalCommandE
libnixcmd.so:_ZTCN3nix16StorePathCommandE0_NS_11MixEvalArgsE
libnixcmd.so:_ZTCN3nix16StorePathCommandE0_NS_15MixFlakeOptionsE
libnixcmd.so:_ZTCN3nix16StorePathCommandE0_NS_17BuiltPathsCommandE
libnixcmd.so:_ZTCN3nix16StorePathCommandE0_NS_17SourceExprCommandE
libnixcmd.so:_ZTCN3nix16StorePathCommandE0_NS_17StorePathsCommandE
libnixcmd.so:_ZTCN3nix16StorePathCommandE0_NS_19InstallablesCommandE
libnixcmd.so:_ZTCN3nix16StorePathCommandE0_NS_22RawInstallablesCommandE
libnixcmd.so:_ZTCN3nix16StorePathCommandE696_NS_12StoreCommandE
libnixcmd.so:_ZTCN3nix16StorePathCommandE696_NS_7CommandE
libnixcmd.so:_ZTCN3nix16StorePathCommandE720_NS_9MixRepairE
libnixcmd.so:_ZTCN3nix16StorePathCommandE736_NS_19MixOperateOnOptionsE
libnixcmd.so:_ZTCN3nix17BuiltPathsCommandE0_NS_11EvalCommandE
libnixcmd.so:_ZTCN3nix17BuiltPathsCommandE0_NS_11MixEvalArgsE
libnixcmd.so:_ZTCN3nix17BuiltPathsCommandE0_NS_15MixFlakeOptionsE
libnixcmd.so:_ZTCN3nix17BuiltPathsCommandE0_NS_17SourceExprCommandE
libnixcmd.so:_ZTCN3nix17BuiltPathsCommandE0_NS_19InstallablesCommandE
libnixcmd.so:_ZTCN3nix17BuiltPathsCommandE0_NS_22RawInstallablesCommandE
libnixcmd.so:_ZTCN3nix17BuiltPathsCommandE696_NS_12StoreCommandE
libnixcmd.so:_ZTCN3nix17BuiltPathsCommandE696_NS_7CommandE
libnixcmd.so:_ZTCN3nix17BuiltPathsCommandE720_NS_9MixRepairE
libnixcmd.so:_ZTCN3nix17BuiltPathsCommandE736_NS_19MixOperateOnOptionsE
libnixcmd.so:_ZTCN3nix17SourceExprCommandE0_NS_11EvalCommandE
libnixcmd.so:_ZTCN3nix17SourceExprCommandE0_NS_11MixEvalArgsE
libnixcmd.so:_ZTCN3nix17SourceExprCommandE0_NS_15MixFlakeOptionsE
libnixcmd.so:_ZTCN3nix17SourceExprCommandE656_NS_12StoreCommandE
libnixcmd.so:_ZTCN3nix17SourceExprCommandE656_NS_7CommandE
libnixcmd.so:_ZTCN3nix17SourceExprCommandE680_NS_9MixRepairE
libnixcmd.so:_ZTCN3nix17StorePathsCommandE0_NS_11EvalCommandE
libnixcmd.so:_ZTCN3nix17StorePathsCommandE0_NS_11MixEvalArgsE
libnixcmd.so:_ZTCN3nix17StorePathsCommandE0_NS_15MixFlakeOptionsE
libnixcmd.so:_ZTCN3nix17StorePathsCommandE0_NS_17BuiltPathsCommandE
libnixcmd.so:_ZTCN3nix17StorePathsCommandE0_NS_17SourceExprCommandE
libnixcmd.so:_ZTCN3nix17StorePathsCommandE0_NS_19InstallablesCommandE
libnixcmd.so:_ZTCN3nix17StorePathsCommandE0_NS_22RawInstallablesCommandE
libnixcmd.so:_ZTCN3nix17StorePathsCommandE696_NS_12StoreCommandE
libnixcmd.so:_ZTCN3nix17StorePathsCommandE696_NS_7CommandE
libnixcmd.so:_ZTCN3nix17StorePathsCommandE720_NS_9MixRepairE
libnixcmd.so:_ZTCN3nix17StorePathsCommandE736_NS_19MixOperateOnOptionsE
libnixcmd.so:_ZTCN3nix18InstallableCommandE0_NS_11EvalCommandE
libnixcmd.so:_ZTCN3nix18InstallableCommandE0_NS_11MixEvalArgsE
libnixcmd.so:_ZTCN3nix18InstallableCommandE0_NS_15MixFlakeOptionsE
libnixcmd.so:_ZTCN3nix18InstallableCommandE0_NS_17SourceExprCommandE
libnixcmd.so:_ZTCN3nix18InstallableCommandE688_NS_12StoreCommandE
libnixcmd.so:_ZTCN3nix18InstallableCommandE688_NS_7CommandE
libnixcmd.so:_ZTCN3nix18InstallableCommandE712_NS_9MixRepairE
libnixcmd.so:_ZTCN3nix19InstallablesCommandE0_NS_11EvalCommandE
libnixcmd.so:_ZTCN3nix19InstallablesCommandE0_NS_11MixEvalArgsE
libnixcmd.so:_ZTCN3nix19InstallablesCommandE0_NS_15MixFlakeOptionsE
libnixcmd.so:_ZTCN3nix19InstallablesCommandE0_NS_17SourceExprCommandE
libnixcmd.so:_ZTCN3nix19InstallablesCommandE0_NS_22RawInstallablesCommandE
libnixcmd.so:_ZTCN3nix19InstallablesCommandE688_NS_12StoreCommandE
libnixcmd.so:_ZTCN3nix19InstallablesCommandE688_NS_7CommandE
libnixcmd.so:_ZTCN3nix19InstallablesCommandE712_NS_9MixRepairE
libnixcmd.so:_ZTCN3nix22RawInstallablesCommandE0_NS_11EvalCommandE
libnixcmd.so:_ZTCN3nix22RawInstallablesCommandE0_NS_11MixEvalArgsE
libnixcmd.so:_ZTCN3nix22RawInstallablesCommandE0_NS_15MixFlakeOptionsE
libnixcmd.so:_ZTCN3nix22RawInstallablesCommandE0_NS_17SourceExprCommandE
libnixcmd.so:_ZTCN3nix22RawInstallablesCommandE688_NS_12StoreCommandE
libnixcmd.so:_ZTCN3nix22RawInstallablesCommandE688_NS_7CommandE
libnixcmd.so:_ZTCN3nix22RawInstallablesCommandE712_NS_9MixRepairE
libnixcmd.so:_ZTCN3nix23InstallableValueCommandE0_NS_11EvalCommandE
libnixcmd.so:_ZTCN3nix23InstallableValueCommandE0_NS_11MixEvalArgsE
libnixcmd.so:_ZTCN3nix23InstallableValueCommandE0_NS_15MixFlakeOptionsE
libnixcmd.so:_ZTCN3nix23InstallableValueCommandE0_NS_17SourceExprCommandE
libnixcmd.so:_ZTCN3nix23InstallableValueCommandE0_NS_18InstallableCommandE
libnixcmd.so:_ZTCN3nix23InstallableValueCommandE688_NS_12StoreCommandE
libnixcmd.so:_ZTCN3nix23InstallableValueCommandE688_NS_7CommandE
libnixcmd.so:_ZTCN3nix23InstallableValueCommandE712_NS_9MixRepairE
libnixcmd.so:_ZTIN3nix11CopyCommandE
libnixcmd.so:_ZTIN3nix11EvalCommandE
libnixcmd.so:_ZTIN3nix12StoreCommandE
libnixcmd.so:_ZTIN3nix15NixMultiCommandE
libnixcmd.so:_ZTIN3nix16InstallableFlakeE
libnixcmd.so:_ZTIN3nix16InstallableValueE
libnixcmd.so:_ZTIN3nix16StorePathCommandE
libnixcmd.so:_ZTIN3nix17BuiltPathsCommandE
libnixcmd.so:_ZTIN3nix17SourceExprCommandE
libnixcmd.so:_ZTIN3nix17StorePathsCommandE
libnixcmd.so:_ZTIN3nix18InstallableCommandE
libnixcmd.so:_ZTIN3nix19InstallableAttrPathE
libnixcmd.so:_ZTIN3nix19InstallablesCommandE
libnixcmd.so:_ZTIN3nix22InstallableDerivedPathE
libnixcmd.so:_ZTIN3nix22RawInstallablesCommandE
libnixcmd.so:_ZTIN3nix22ReadlineLikeInteracterE
libnixcmd.so:_ZTIN3nix23InstallableValueCommandE
libnixcmd.so:_ZTIN3nix7NixReplE
libnixcmd.so:_ZTSN3nix11CopyCommandE
libnixcmd.so:_ZTSN3nix11EvalCommandE
libnixcmd.so:_ZTSN3nix12StoreCommandE
libnixcmd.so:_ZTSN3nix15NixMultiCommandE
libnixcmd.so:_ZTSN3nix16InstallableFlakeE
libnixcmd.so:_ZTSN3nix16InstallableValueE
libnixcmd.so:_ZTSN3nix16StorePathCommandE
libnixcmd.so:_ZTSN3nix17BuiltPathsCommandE
libnixcmd.so:_ZTSN3nix17SourceExprCommandE
libnixcmd.so:_ZTSN3nix17StorePathsCommandE
libnixcmd.so:_ZTSN3nix18InstallableCommandE
libnixcmd.so:_ZTSN3nix19InstallableAttrPathE
libnixcmd.so:_ZTSN3nix19InstallablesCommandE
libnixcmd.so:_ZTSN3nix22InstallableDerivedPathE
libnixcmd.so:_ZTSN3nix22RawInstallablesCommandE
libnixcmd.so:_ZTSN3nix22ReadlineLikeInteracterE
libnixcmd.so:_ZTSN3nix23InstallableValueCommandE
libnixcmd.so:_ZTSN3nix7NixReplE
libnixcmd.so:_ZTTN3nix11CopyCommandE
libnixcmd.so:_ZTTN3nix11EvalCommandE
libnixcmd.so:_ZTTN3nix12StoreCommandE
libnixcmd.so:_ZTTN3nix15NixMultiCommandE
libnixcmd.so:_ZTTN3nix16StorePathCommandE
libnixcmd.so:_ZTTN3nix17BuiltPathsCommandE
libnixcmd.so:_ZTTN3nix17SourceExprCommandE
libnixcmd.so:_ZTTN3nix17StorePathsCommandE
libnixcmd.so:_ZTTN3nix18InstallableCommandE
libnixcmd.so:_ZTTN3nix19InstallablesCommandE
libnixcmd.so:_ZTTN3nix22RawInstallablesCommandE
libnixcmd.so:_ZTTN3nix22ReadlineLikeInteracterE
libnixcmd.so:_ZTTN3nix23InstallableValueCommandE
libnixcmd.so:_ZTVN3nix11CopyCommandE
libnixcmd.so:_ZTVN3nix11EvalCommandE
libnixcmd.so:_ZTVN3nix12StoreCommandE
libnixcmd.so:_ZTVN3nix15NixMultiCommandE
libnixcmd.so:_ZTVN3nix16InstallableFlakeE
libnixcmd.so:_ZTVN3nix16InstallableValueE
libnixcmd.so:_ZTVN3nix16StorePathCommandE
libnixcmd.so:_ZTVN3nix17BuiltPathsCommandE
libnixcmd.so:_ZTVN3nix17SourceExprCommandE
libnixcmd.so:_ZTVN3nix17StorePathsCommandE
libnixcmd.so:_ZTVN3nix18InstallableCommandE
libnixcmd.so:_ZTVN3nix19InstallableAttrPathE
libnixcmd.so:_ZTVN3nix19InstallablesCommandE
libnixcmd.so:_ZTVN3nix22InstallableDerivedPathE
libnixcmd.so:_ZTVN3nix22RawInstallablesCommandE
libnixcmd.so:_ZTVN3nix22ReadlineLikeInteracterE
libnixcmd.so:_ZTVN3nix23InstallableValueCommandE
libnixcmd.so:_ZTVN3nix7NixReplE
libnixcmd.so:_ZThn32_N3nix7NixRepl14completePrefixERKNSt7__cxx1112basic_stringIcSt11char_traitsIcESaIcEEE
libnixcmd.so:_ZTv0_n24_N3nix22ReadlineLikeInteracter4initEPNS_6detail18ReplCompleterMixinE
libnixcmd.so:_ZTv0_n32_N3nix11EvalCommandD0Ev
libnixcmd.so:_ZTv0_n32_N3nix11EvalCommandD1Ev
libnixcmd.so:_ZTv0_n32_N3nix22ReadlineLikeInteracter7getLineERNSt7__cxx1112basic_stringIcSt11char_traitsIcESaIcEEENS_14ReplPromptTypeE
libnixcmd.so:_ZTv0_n40_N3nix12StoreCommand3runEv
libnixcmd.so:_ZTv0_n40_N3nix15NixMultiCommand3runEv
libnixcmd.so:_ZTv0_n40_N3nix22ReadlineLikeInteracterD0Ev
libnixcmd.so:_ZTv0_n40_N3nix22ReadlineLikeInteracterD1Ev
libnixcmd.so:_ZTv0_n72_N3nix11CopyCommand11getDstStoreEv
libnixcmd.so:_ZTv0_n80_N3nix11CopyCommand11createStoreEv
libnixcmd.so:_ZTv0_n88_N3nix15NixMultiCommand6toJSONB5cxx11Ev
libnixcmd.so:_ZTv0_n88_N3nix18InstallableCommand3runENS_3refINS_5StoreEEE
libnixcmd.so:_ZTv0_n88_N3nix22RawInstallablesCommand3runENS_3refINS_5StoreEEE
libnixcmd.so:_end
libnixexpr.so:_Z10yyget_lengPv
libnixexpr.so:_Z10yyget_llocPv
libnixexpr.so:_Z10yyget_lvalPv
libnixexpr.so:_Z10yyget_textPv
libnixexpr.so:_Z10yylex_initPPv
libnixexpr.so:_Z10yyset_llocPN3nix14ParserLocationEPv
libnixexpr.so:_Z10yyset_lvalP7YYSTYPEPv
libnixexpr.so:_Z11yyget_debugPv
libnixexpr.so:_Z11yyget_extraPv
libnixexpr.so:_Z11yyset_debugiPv
libnixexpr.so:_Z11yyset_extraPN3nix10LexerStateEPv
libnixexpr.so:_Z12yyget_columnPv
libnixexpr.so:_Z12yyget_linenoPv
libnixexpr.so:_Z12yyset_columniPv
libnixexpr.so:_Z12yyset_linenoiPv
libnixexpr.so:_Z13yy_scan_bytesPKciPv
libnixexpr.so:_Z13yylex_destroyPv
libnixexpr.so:_Z14yy_scan_bufferPcmPv
libnixexpr.so:_Z14yy_scan_stringPKcPv
libnixexpr.so:_Z15yy_flush_bufferP15yy_buffer_statePv
libnixexpr.so:_Z16yy_create_bufferP8_IO_FILEiPv
libnixexpr.so:_Z16yy_delete_bufferP15yy_buffer_statePv
libnixexpr.so:_Z16yylex_init_extraPN3nix10LexerStateEPPv
libnixexpr.so:_Z18yypop_buffer_statePv
libnixexpr.so:_Z19yy_switch_to_bufferP15yy_buffer_statePv
libnixexpr.so:_Z19yypush_buffer_stateP15yy_buffer_statePv
libnixexpr.so:_Z5yylexP7YYSTYPEPN3nix14ParserLocationEPvPNS1_11ParserStateE
libnixexpr.so:_Z6yyfreePvS_
libnixexpr.so:_Z7yyallocmPv
libnixexpr.so:_Z7yyerrorPN3nix14ParserLocationEPvPNS_11ParserStateEPKc
libnixexpr.so:_Z7yyparsePvPN3nix11ParserStateE
libnixexpr.so:_Z8yyget_inPv
libnixexpr.so:_Z8yyset_inP8_IO_FILEPv
libnixexpr.so:_Z9yyget_outPv
libnixexpr.so:_Z9yyreallocPvmS_
libnixexpr.so:_Z9yyrestartP8_IO_FILEPv
libnixexpr.so:_Z9yyset_outP8_IO_FILEPv
libnixexpr.so:_ZN3nix10ExprAssert4evalERNS_9EvalStateERNS_3EnvERNS_5ValueE
libnixexpr.so:_ZN3nix10ExprAssert8bindVarsERNS_9EvalStateERKSt10shared_ptrIKNS_9StaticEnvEE
libnixexpr.so:_ZN3nix10ExprLambda13setDocCommentENS_10DocCommentE
libnixexpr.so:_ZN3nix10ExprLambda4evalERNS_9EvalStateERNS_3EnvERNS_5ValueE
libnixexpr.so:_ZN3nix10ExprLambda7setNameENS_6SymbolE
libnixexpr.so:_ZN3nix10ExprLambda8bindVarsERNS_9EvalStateERKSt10shared_ptrIKNS_9StaticEnvEE
libnixexpr.so:_ZN3nix10ExprOpImpl4evalERNS_9EvalStateERNS_3EnvERNS_5ValueE
libnixexpr.so:_ZN3nix10ExprSelect21evalExceptFinalSelectERNS_9EvalStateERNS_3EnvERNS_5ValueE
libnixexpr.so:_ZN3nix10ExprSelect4evalERNS_9EvalStateERNS_3EnvERNS_5ValueE
libnixexpr.so:_ZN3nix10ExprSelect8bindVarsERNS_9EvalStateERKSt10shared_ptrIKNS_9StaticEnvEE
libnixexpr.so:_ZN3nix10ExprString10maybeThunkERNS_9EvalStateERNS_3EnvE
libnixexpr.so:_ZN3nix10ExprString4evalERNS_9EvalStateERNS_3EnvERNS_5ValueE
libnixexpr.so:_ZN3nix10ExprString8bindVarsERNS_9EvalStateERKSt10shared_ptrIKNS_9StaticEnvEE
libnixexpr.so:_ZN3nix10LookupPath4Elem5parseESt17basic_string_viewIcSt11char_traitsIcEE
libnixexpr.so:_ZN3nix10LookupPath5parseERKNSt7__cxx114listINS1_12basic_stringIcSt11char_traitsIcESaIcEEESaIS7_EEE
libnixexpr.so:_ZN3nix10eBlackHoleE
libnixexpr.so:_ZN3nix10eval_cache10AttrCursor10forceValueEv
libnixexpr.so:_ZN3nix10eval_cache10AttrCursor12isDerivationEv
libnixexpr.so:_ZN3nix10eval_cache10AttrCursor12maybeGetAttrENS_6SymbolE
libnixexpr.so:_ZN3nix10eval_cache10AttrCursor12maybeGetAttrESt17basic_string_viewIcSt11char_traitsIcEE
libnixexpr.so:_ZN3nix10eval_cache10AttrCursor15forceDerivationEv
libnixexpr.so:_ZN3nix10eval_cache10AttrCursor16getListOfStringsB5cxx11Ev
libnixexpr.so:_ZN3nix10eval_cache10AttrCursor17findAlongAttrPathERKSt6vectorINS_6SymbolESaIS3_EE
libnixexpr.so:_ZN3nix10eval_cache10AttrCursor20getStringWithContextB5cxx11Ev
libnixexpr.so:_ZN3nix10eval_cache10AttrCursor21getSuggestionsForAttrENS_6SymbolE
libnixexpr.so:_ZN3nix10eval_cache10AttrCursor6getIntEv
libnixexpr.so:_ZN3nix10eval_cache10AttrCursor6getKeyEv
libnixexpr.so:_ZN3nix10eval_cache10AttrCursor7getAttrENS_6SymbolE
libnixexpr.so:_ZN3nix10eval_cache10AttrCursor7getAttrESt17basic_string_viewIcSt11char_traitsIcEE
libnixexpr.so:_ZN3nix10eval_cache10AttrCursor7getBoolEv
libnixexpr.so:_ZN3nix10eval_cache10AttrCursor8getAttrsEv
libnixexpr.so:_ZN3nix10eval_cache10AttrCursor8getValueEv
libnixexpr.so:_ZN3nix10eval_cache10AttrCursor9getStringB5cxx11Ev
libnixexpr.so:_ZN3nix10eval_cache10AttrCursorC1ENS_3refINS0_9EvalCacheEEESt8optionalISt4pairISt10shared_ptrIS1_ENS_6SymbolEEEPNS_5ValueEOS5_IS6_ImSt7variantIJSt6vectorIS9_SaIS9_EES6_INSt7__cxx1112basic_stringIcSt11char_traitsIcESaIcEEESt3setINS_20NixStringContextElemESt4lessISP_ESaISP_EEENS0_13placeholder_tENS0_9missing_tENS0_6misc_tENS0_8failed_tEbNS0_5int_tESF_ISN_SaISN_EEEEEE
libnixexpr.so:_ZN3nix10eval_cache10AttrCursorC2ENS_3refINS0_9EvalCacheEEESt8optionalISt4pairISt10shared_ptrIS1_ENS_6SymbolEEEPNS_5ValueEOS5_IS6_ImSt7variantIJSt6vectorIS9_SaIS9_EES6_INSt7__cxx1112basic_stringIcSt11char_traitsIcESaIcEEESt3setINS_20NixStringContextElemESt4lessISP_ESaISP_EEENS0_13placeholder_tENS0_9missing_tENS0_6misc_tENS0_8failed_tEbNS0_5int_tESF_ISN_SaISN_EEEEEE
libnixexpr.so:_ZN3nix10eval_cache15CachedEvalError5forceEv
libnixexpr.so:_ZN3nix10eval_cache15CachedEvalErrorC1ENS_3refINS0_10AttrCursorEEENS_6SymbolE
libnixexpr.so:_ZN3nix10eval_cache15CachedEvalErrorC2ENS_3refINS0_10AttrCursorEEENS_6SymbolE
libnixexpr.so:_ZN3nix10eval_cache9EvalCache12getRootValueEv
libnixexpr.so:_ZN3nix10eval_cache9EvalCache7getRootEv
libnixexpr.so:_ZN3nix10eval_cache9EvalCacheC1ESt8optionalISt17reference_wrapperIKNS_4HashEEERNS_9EvalStateESt8functionIFPNS_5ValueEvEE
libnixexpr.so:_ZN3nix10eval_cache9EvalCacheC2ESt8optionalISt17reference_wrapperIKNS_4HashEEERNS_9EvalStateESt8functionIFPNS_5ValueEvEE
libnixexpr.so:_ZN3nix10prim_matchERNS_9EvalStateENS_6PosIdxEPPNS_5ValueERS3_
libnixexpr.so:_ZN3nix10prim_splitERNS_9EvalStateENS_6PosIdxEPPNS_5ValueERS3_
libnixexpr.so:_ZN3nix10printValueB5cxx11ERNS_9EvalStateERNS_5ValueE
libnixexpr.so:_ZN3nix10printValueERNS_9EvalStateERSoRNS_5ValueENS_12PrintOptionsE
libnixexpr.so:_ZN3nix11ListBuilderC1ERNS_9EvalStateEm
libnixexpr.so:_ZN3nix11ListBuilderC2ERNS_9EvalStateEm
libnixexpr.so:_ZN3nix11PackageInfo12queryMetaIntERKNSt7__cxx1112basic_stringIcSt11char_traitsIcESaIcEEENS_7checked7CheckedIlEE
libnixexpr.so:_ZN3nix11PackageInfo12queryOutputsB5cxx11Ebb
libnixexpr.so:_ZN3nix11PackageInfo13queryMetaBoolERKNSt7__cxx1112basic_stringIcSt11char_traitsIcESaIcEEEb
libnixexpr.so:_ZN3nix11PackageInfo14queryMetaFloatERKNSt7__cxx1112basic_stringIcSt11char_traitsIcESaIcEEEd
libnixexpr.so:_ZN3nix11PackageInfo14queryMetaNamesB5cxx11Ev
libnixexpr.so:_ZN3nix11PackageInfo15queryMetaStringERKNSt7__cxx1112basic_stringIcSt11char_traitsIcESaIcEEE
libnixexpr.so:_ZN3nix11PackageInfo7getMetaEv
libnixexpr.so:_ZN3nix11PackageInfo7setMetaERKNSt7__cxx1112basic_stringIcSt11char_traitsIcESaIcEEEPNS_5ValueE
libnixexpr.so:_ZN3nix11PackageInfo9checkMetaERNS_5ValueE
libnixexpr.so:_ZN3nix11PackageInfo9queryMetaERKNSt7__cxx1112basic_stringIcSt11char_traitsIcESaIcEEE
libnixexpr.so:_ZN3nix11PackageInfoC1ERNS_9EvalStateENS_3refINS_5StoreEEERKNSt7__cxx1112basic_stringIcSt11char_traitsIcESaIcEEE
libnixexpr.so:_ZN3nix11PackageInfoC1ERNS_9EvalStateENSt7__cxx1112basic_stringIcSt11char_traitsIcESaIcEEEPKNS_8BindingsE
libnixexpr.so:_ZN3nix11PackageInfoC2ERNS_9EvalStateENS_3refINS_5StoreEEERKNSt7__cxx1112basic_stringIcSt11char_traitsIcESaIcEEE
libnixexpr.so:_ZN3nix11PackageInfoC2ERNS_9EvalStateENSt7__cxx1112basic_stringIcSt11char_traitsIcESaIcEEEPKNS_8BindingsE
libnixexpr.so:_ZN3nix11copyContextERKNS_5ValueERSt3setINS_20NixStringContextElemESt4lessIS4_ESaIS4_EE
libnixexpr.so:_ZN3nix11getGCCyclesEv
libnixexpr.so:_ZN3nix11printElidedERSojSt17basic_string_viewIcSt11char_traitsIcEES4_b
libnixexpr.so:_ZN3nix12EvalSettings11isPseudoUrlESt17basic_string_viewIcSt11char_traitsIcEE
libnixexpr.so:_ZN3nix12EvalSettings12parseNixPathERKNSt7__cxx1112basic_stringIcSt11char_traitsIcESaIcEEE
libnixexpr.so:_ZN3nix12EvalSettings16resolvePseudoUrlB5cxx11ESt17basic_string_viewIcSt11char_traitsIcEE
libnixexpr.so:_ZN3nix12EvalSettings17getDefaultNixPathB5cxx11Ev
libnixexpr.so:_ZN3nix12EvalSettingsC1ERbSt3mapINSt7__cxx1112basic_stringIcSt11char_traitsIcESaIcEEESt8functionIFSt8optionalINS_10SourcePathEERNS_9EvalStateESt17basic_string_viewIcS6_EEESt4lessIS8_ESaISt4pairIKS8_SI_EEE
libnixexpr.so:_ZN3nix12EvalSettingsC2ERbSt3mapINSt7__cxx1112basic_stringIcSt11char_traitsIcESaIcEEESt8functionIFSt8optionalINS_10SourcePathEERNS_9EvalStateESt17basic_string_viewIcS6_EEESt4lessIS8_ESaISt4pairIKS8_SI_EEE
libnixexpr.so:_ZN3nix12ExprOpUpdate4evalERNS_9EvalStateERNS_3EnvERNS_5ValueE
libnixexpr.so:_ZN3nix12isAllowedURIESt17basic_string_viewIcSt11char_traitsIcEERKNSt7__cxx114listINS4_12basic_stringIcS2_SaIcEEESaIS8_EEE
libnixexpr.so:_ZN3nix12prim_getAttrERNS_9EvalStateENS_6PosIdxEPPNS_5ValueERS3_
libnixexpr.so:_ZN3nix12showAttrPathB5cxx11ERKNS_11SymbolTableERKSt6vectorINS_8AttrNameESaIS4_EE
libnixexpr.so:_ZN3nix13ExprBlackHole27throwInfiniteRecursionErrorERNS_9EvalStateERNS_5ValueE
libnixexpr.so:_ZN3nix13ExprBlackHole4evalERNS_9EvalStateERNS_3EnvERNS_5ValueE
libnixexpr.so:_ZN3nix13ExprOpHasAttr4evalERNS_9EvalStateERNS_3EnvERNS_5ValueE
libnixexpr.so:_ZN3nix13ExprOpHasAttr8bindVarsERNS_9EvalStateERKSt10shared_ptrIKNS_9StaticEnvEE
libnixexpr.so:_ZN3nix13emitTreeAttrsERNS_9EvalStateERKNS_9StorePathERKNS_8fetchers5InputERNS_5ValueEbb
libnixexpr.so:_ZN3nix13getDerivationERNS_9EvalStateERNS_5ValueEb
libnixexpr.so:_ZN3nix13getNixDefExprB5cxx11Ev
libnixexpr.so:_ZN3nix13parseAttrPathERNS_9EvalStateESt17basic_string_viewIcSt11char_traitsIcEE
libnixexpr.so:_ZN3nix14RegisterPrimOp7primOpsE
libnixexpr.so:_ZN3nix14RegisterPrimOpC1EONS_6PrimOpE
libnixexpr.so:_ZN3nix14RegisterPrimOpC2EONS_6PrimOpE
libnixexpr.so:_ZN3nix14allocRootValueEPNS_5ValueE
libnixexpr.so:_ZN3nix14getDerivationsERNS_9EvalStateERNS_5ValueERKNSt7__cxx1112basic_stringIcSt11char_traitsIcESaIcEEERNS_8BindingsERNS4_4listINS_11PackageInfoE19traceable_allocatorISF_EEEb
libnixexpr.so:_ZN3nix14makeRegexCacheEv
libnixexpr.so:_ZN3nix14printAmbiguousERNS_5ValueERKNS_11SymbolTableERSoPSt3setIPKvSt4lessIS8_ESaIS8_EEi
libnixexpr.so:_ZN3nix15BindingsBuilder5allocENS_6SymbolENS_6PosIdxE
libnixexpr.so:_ZN3nix15BindingsBuilder5allocESt17basic_string_viewIcSt11char_traitsIcEENS_6PosIdxE
libnixexpr.so:_ZN3nix15ExprInheritFrom8bindVarsERNS_9EvalStateERKSt10shared_ptrIKNS_9StaticEnvEE
libnixexpr.so:_ZN3nix15forceNoNullByteESt17basic_string_viewIcSt11char_traitsIcEESt8functionIFNS_3PosEvEE
libnixexpr.so:_ZN3nix15printIdentifierERSoSt17basic_string_viewIcSt11char_traitsIcEE
libnixexpr.so:_ZN3nix15printValueAsXMLERNS_9EvalStateEbbRNS_5ValueERSoRSt3setINS_20NixStringContextElemESt4lessIS6_ESaIS6_EENS_6PosIdxE
libnixexpr.so:_ZN3nix15resolveExprPathENS_10SourcePathEb
libnixexpr.so:_ZN3nix16parseExprFromBufEPcmSt7variantIJSt9monostateNS_3Pos5StdinENS3_6StringENS_10SourcePathEEERKS6_RNS_11SymbolTableERKNS_12EvalSettingsERNS_8PosTableERSt13unordered_mapINS_6PosIdxENS_10DocCommentESt4hashISI_ESt8equal_toISI_ESaISt4pairIKSI_SJ_EEENS_3refINS_14SourceAccessorEEERKNS_4Expr10AstSymbolsE
libnixexpr.so:_ZN3nix16printEnvBindingsERKNS_11SymbolTableERKNS_9StaticEnvERKNS_3EnvEi
libnixexpr.so:_ZN3nix16printEnvBindingsERKNS_9EvalStateERKNS_4ExprERKNS_3EnvE
libnixexpr.so:_ZN3nix16printLiteralBoolERSob
libnixexpr.so:_ZN3nix16printValueAsJSONB5cxx11ERNS_9EvalStateEbRNS_5ValueENS_6PosIdxERSt3setINS_20NixStringContextElemESt4lessIS6_ESaIS6_EEb
libnixexpr.so:_ZN3nix16printValueAsJSONERNS_9EvalStateEbRNS_5ValueENS_6PosIdxERSoRSt3setINS_20NixStringContextElemESt4lessIS7_ESaIS7_EEb
libnixexpr.so:_ZN3nix17DebugTraceStackerC1ERNS_9EvalStateENS_10DebugTraceE
libnixexpr.so:_ZN3nix17DebugTraceStackerC2ERNS_9EvalStateENS_10DebugTraceE
libnixexpr.so:_ZN3nix17ExprConcatStrings4evalERNS_9EvalStateERNS_3EnvERNS_5ValueE
libnixexpr.so:_ZN3nix17ExprConcatStrings8bindVarsERNS_9EvalStateERKSt10shared_ptrIKNS_9StaticEnvEE
libnixexpr.so:_ZN3nix17ExprOpConcatLists4evalERNS_9EvalStateERNS_3EnvERNS_5ValueE
libnixexpr.so:_ZN3nix17FunctionCallTraceC1ERKNS_3PosE
libnixexpr.so:_ZN3nix17FunctionCallTraceC2ERKNS_3PosE
libnixexpr.so:_ZN3nix17FunctionCallTraceD1Ev
libnixexpr.so:_ZN3nix17FunctionCallTraceD2Ev
libnixexpr.so:_ZN3nix17derivationToValueERNS_9EvalStateENS_6PosIdxERKNS_10SourcePathERKNS_9StorePathERNS_5ValueE
libnixexpr.so:_ZN3nix17findAlongAttrPathERNS_9EvalStateERKNSt7__cxx1112basic_stringIcSt11char_traitsIcESaIcEEERNS_8BindingsERNS_5ValueE
libnixexpr.so:_ZN3nix17isReservedKeywordESt17basic_string_viewIcSt11char_traitsIcEE
libnixexpr.so:_ZN3nix17prim_importNativeERNS_9EvalStateENS_6PosIdxEPPNS_5ValueERS3_
libnixexpr.so:_ZN3nix17printWithBindingsERKNS_11SymbolTableERKNS_3EnvE
libnixexpr.so:_ZN3nix18makePositionThunksERNS_9EvalStateENS_6PosIdxERNS_5ValueES4_
libnixexpr.so:_ZN3nix18printAttributeNameERSoSt17basic_string_viewIcSt11char_traitsIcEE
libnixexpr.so:_ZN3nix18printLiteralStringERSoSt17basic_string_viewIcSt11char_traitsIcEE
libnixexpr.so:_ZN3nix18printLiteralStringERSoSt17basic_string_viewIcSt11char_traitsIcEEmb
libnixexpr.so:_ZN3nix19assertGCInitializedEv
libnixexpr.so:_ZN3nix19findPackageFilenameERNS_9EvalStateERNS_5ValueENSt7__cxx1112basic_stringIcSt11char_traitsIcESaIcEEE
libnixexpr.so:_ZN3nix19isImportantAttrNameERKNSt7__cxx1112basic_stringIcSt11char_traitsIcESaIcEEE
libnixexpr.so:_ZN3nix19prim_fetchFinalTreeERNS_9EvalStateENS_6PosIdxEPPNS_5ValueERS3_
libnixexpr.so:_ZN3nix20NixStringContextElem5parseESt17basic_string_viewIcSt11char_traitsIcEERKNS_27ExperimentalFeatureSettingsE
libnixexpr.so:_ZN3nix20mapStaticEnvBindingsB5cxx11ERKNS_11SymbolTableERKNS_9StaticEnvERKNS_3EnvE
libnixexpr.so:_ZN3nix20mapStaticEnvBindingsERKNS_11SymbolTableERKNS_9StaticEnvERKNS_3EnvERSt3mapINSt7__cxx1112basic_stringIcSt11char_traitsIcESaIcEEEPNS_5ValueESt4lessISF_E19traceable_allocatorISt4pairIKSF_SH_EEE
libnixexpr.so:_ZN3nix22printStaticEnvBindingsERKNS_11SymbolTableERKNS_9StaticEnvE
libnixexpr.so:_ZN3nix4Expr10maybeThunkERNS_9EvalStateERNS_3EnvE
libnixexpr.so:_ZN3nix4Expr4evalERNS_9EvalStateERNS_3EnvERNS_5ValueE
libnixexpr.so:_ZN3nix4Expr7nrExprsE
libnixexpr.so:_ZN3nix4Expr7setNameENS_6SymbolE
libnixexpr.so:_ZN3nix4Expr8bindVarsERNS_9EvalStateERKSt10shared_ptrIKNS_9StaticEnvEE
libnixexpr.so:_ZN3nix5Value12mkStringMoveEPKcRKSt3setINS_20NixStringContextElemESt4lessIS4_ESaIS4_EE
libnixexpr.so:_ZN3nix5Value5printERNS_9EvalStateERSoNS_12PrintOptionsE
libnixexpr.so:_ZN3nix5Value6mkPathERKNS_10SourcePathE
libnixexpr.so:_ZN3nix5Value7mkAttrsERNS_15BindingsBuilderE
libnixexpr.so:_ZN3nix5Value8mkPrimOpEPNS_6PrimOpE
libnixexpr.so:_ZN3nix5Value8mkStringESt17basic_string_viewIcSt11char_traitsIcEE
libnixexpr.so:_ZN3nix5Value8mkStringESt17basic_string_viewIcSt11char_traitsIcEERKSt3setINS_20NixStringContextElemESt4lessIS6_ESaIS6_EE
libnixexpr.so:_ZN3nix5lexer8internal7initLocEPNS_14ParserLocationE
libnixexpr.so:_ZN3nix5lexer8internal9adjustLocEPvPNS_14ParserLocationEPKcm
libnixexpr.so:_ZN3nix6ExprIf4evalERNS_9EvalStateERNS_3EnvERNS_5ValueE
libnixexpr.so:_ZN3nix6ExprIf8bindVarsERNS_9EvalStateERKSt10shared_ptrIKNS_9StaticEnvEE
libnixexpr.so:_ZN3nix6PrimOp5checkEv
libnixexpr.so:_ZN3nix6initGCEv
libnixexpr.so:_ZN3nix7ExprInt10maybeThunkERNS_9EvalStateERNS_3EnvE
libnixexpr.so:_ZN3nix7ExprInt4evalERNS_9EvalStateERNS_3EnvERNS_5ValueE
libnixexpr.so:_ZN3nix7ExprInt8bindVarsERNS_9EvalStateERKSt10shared_ptrIKNS_9StaticEnvEE
libnixexpr.so:_ZN3nix7ExprLet4evalERNS_9EvalStateERNS_3EnvERNS_5ValueE
libnixexpr.so:_ZN3nix7ExprLet8bindVarsERNS_9EvalStateERKSt10shared_ptrIKNS_9StaticEnvEE
libnixexpr.so:_ZN3nix7ExprPos4evalERNS_9EvalStateERNS_3EnvERNS_5ValueE
libnixexpr.so:_ZN3nix7ExprPos8bindVarsERNS_9EvalStateERKSt10shared_ptrIKNS_9StaticEnvEE
libnixexpr.so:_ZN3nix7ExprVar10maybeThunkERNS_9EvalStateERNS_3EnvE
libnixexpr.so:_ZN3nix7ExprVar4evalERNS_9EvalStateERNS_3EnvERNS_5ValueE
libnixexpr.so:_ZN3nix7ExprVar8bindVarsERNS_9EvalStateERKSt10shared_ptrIKNS_9StaticEnvEE
libnixexpr.so:_ZN3nix7HintFmtrmINS_12ValuePrinterEEERS0_RKT_
libnixexpr.so:_ZN3nix8Bindings4sortEv
libnixexpr.so:_ZN3nix8ExprCall13resetCursedOrEv
libnixexpr.so:_ZN3nix8ExprCall14warnIfCursedOrERKNS_11SymbolTableERKNS_8PosTableE
libnixexpr.so:_ZN3nix8ExprCall4evalERNS_9EvalStateERNS_3EnvERNS_5ValueE
libnixexpr.so:_ZN3nix8ExprCall8bindVarsERNS_9EvalStateERKSt10shared_ptrIKNS_9StaticEnvEE
libnixexpr.so:_ZN3nix8ExprList10maybeThunkERNS_9EvalStateERNS_3EnvE
libnixexpr.so:_ZN3nix8ExprList4evalERNS_9EvalStateERNS_3EnvERNS_5ValueE
libnixexpr.so:_ZN3nix8ExprList8bindVarsERNS_9EvalStateERKSt10shared_ptrIKNS_9StaticEnvEE
libnixexpr.so:_ZN3nix8ExprOpEq4evalERNS_9EvalStateERNS_3EnvERNS_5ValueE
libnixexpr.so:_ZN3nix8ExprOpOr4evalERNS_9EvalStateERNS_3EnvERNS_5ValueE
libnixexpr.so:_ZN3nix8ExprPath10maybeThunkERNS_9EvalStateERNS_3EnvE
libnixexpr.so:_ZN3nix8ExprPath4evalERNS_9EvalStateERNS_3EnvERNS_5ValueE
libnixexpr.so:_ZN3nix8ExprPath8bindVarsERNS_9EvalStateERKSt10shared_ptrIKNS_9StaticEnvEE
libnixexpr.so:_ZN3nix8ExprWith4evalERNS_9EvalStateERNS_3EnvERNS_5ValueE
libnixexpr.so:_ZN3nix8ExprWith8bindVarsERNS_9EvalStateERKSt10shared_ptrIKNS_9StaticEnvEE
libnixexpr.so:_ZN3nix8nrThunksE
libnixexpr.so:_ZN3nix8showTypeB5cxx11ERKNS_5ValueE
libnixexpr.so:_ZN3nix8showTypeENS_9ValueTypeEb
libnixexpr.so:_ZN3nix9EvalState10forceFloatERNS_5ValueENS_6PosIdxESt17basic_string_viewIcSt11char_traitsIcEE
libnixexpr.so:_ZN3nix9EvalState10getBuiltinERKNSt7__cxx1112basic_stringIcSt11char_traitsIcESaIcEEE
libnixexpr.so:_ZN3nix9EvalState10parseStdinEv
libnixexpr.so:_ZN3nix9EvalState11addConstantERKNSt7__cxx1112basic_stringIcSt11char_traitsIcESaIcEEEPNS_5ValueENS_8ConstantE
libnixexpr.so:_ZN3nix9EvalState11addConstantERKNSt7__cxx1112basic_stringIcSt11char_traitsIcESaIcEEERNS_5ValueENS_8ConstantE
libnixexpr.so:_ZN3nix9EvalState11concatListsERNS_5ValueEmPKPS1_NS_6PosIdxESt17basic_string_viewIcSt11char_traitsIcEE
libnixexpr.so:_ZN3nix9EvalState11forceStringERNS_5ValueENS_6PosIdxESt17basic_string_viewIcSt11char_traitsIcEE
libnixexpr.so:_ZN3nix9EvalState11forceStringERNS_5ValueERSt3setINS_20NixStringContextElemESt4lessIS4_ESaIS4_EENS_6PosIdxESt17basic_string_viewIcSt11char_traitsIcEE
libnixexpr.so:_ZN3nix9EvalState11getBuiltinsEv
libnixexpr.so:_ZN3nix9EvalState12allowClosureERKNS_9StorePathE
libnixexpr.so:_ZN3nix9EvalState12callFunctionERNS_5ValueESt4spanIPS1_Lm18446744073709551615EES2_NS_6PosIdxE
libnixexpr.so:_ZN3nix9EvalState12coerceToPathENS_6PosIdxERNS_5ValueERSt3setINS_20NixStringContextElemESt4lessIS5_ESaIS5_EESt17basic_string_viewIcSt11char_traitsIcEE
libnixexpr.so:_ZN3nix9EvalState12isDerivationERNS_5ValueE
libnixexpr.so:_ZN3nix9EvalState12runDebugReplEPKNS_5ErrorE
libnixexpr.so:_ZN3nix9EvalState12runDebugReplEPKNS_5ErrorERKNS_3EnvERKNS_4ExprE
libnixexpr.so:_ZN3nix9EvalState13allocBindingsEm
libnixexpr.so:_ZN3nix9EvalState13createBaseEnvEv
libnixexpr.so:_ZN3nix9EvalState13forceFunctionERNS_5ValueENS_6PosIdxESt17basic_string_viewIcSt11char_traitsIcEE
libnixexpr.so:_ZN3nix9EvalState13realiseStringB5cxx11ERNS_5ValueEPSt3setINS_9StorePathESt4lessIS4_ESaIS4_EEbNS_6PosIdxE
libnixexpr.so:_ZN3nix9EvalState14assertEqValuesERNS_5ValueES2_NS_6PosIdxESt17basic_string_viewIcSt11char_traitsIcEE
libnixexpr.so:_ZN3nix9EvalState14callPathFilterEPNS_5ValueERKNS_10SourcePathENS_6PosIdxE
libnixexpr.so:_ZN3nix9EvalState14coerceToStringENS_6PosIdxERNS_5ValueERSt3setINS_20NixStringContextElemESt4lessIS5_ESaIS5_EESt17basic_string_viewIcSt11char_traitsIcEEbbb
libnixexpr.so:_ZN3nix9EvalState14forceValueDeepERNS_5ValueE
libnixexpr.so:_ZN3nix9EvalState14mkOutputStringERNS_5ValueERKNS_22SingleDerivedPathBuiltESt8optionalINS_9StorePathEERKNS_27ExperimentalFeatureSettingsE
libnixexpr.so:_ZN3nix9EvalState14realiseContextB5cxx11ERKSt3setINS_20NixStringContextElemESt4lessIS2_ESaIS2_EEPS1_INS_9StorePathES3_IS9_ESaIS9_EEb
libnixexpr.so:_ZN3nix9EvalState14resetFileCacheEv
libnixexpr.so:_ZN3nix9EvalState15copyPathToStoreERSt3setINS_20NixStringContextElemESt4lessIS2_ESaIS2_EERKNS_10SourcePathE
libnixexpr.so:_ZN3nix9EvalState15maybePrintStatsEv
libnixexpr.so:_ZN3nix9EvalState15printStatisticsEv
libnixexpr.so:_ZN3nix9EvalState16autoCallFunctionERKNS_8BindingsERNS_5ValueES5_
libnixexpr.so:_ZN3nix9EvalState16forceStringNoCtxERNS_5ValueENS_6PosIdxESt17basic_string_viewIcSt11char_traitsIcEE
libnixexpr.so:_ZN3nix9EvalState16incrFunctionCallEPNS_10ExprLambdaE
libnixexpr.so:_ZN3nix9EvalState16tryAttrsToStringB5cxx11ENS_6PosIdxERNS_5ValueERSt3setINS_20NixStringContextElemESt4lessIS5_ESaIS5_EEbb
libnixexpr.so:_ZN3nix9EvalState17coerceToStorePathENS_6PosIdxERNS_5ValueERSt3setINS_20NixStringContextElemESt4lessIS5_ESaIS5_EESt17basic_string_viewIcSt11char_traitsIcEE
libnixexpr.so:_ZN3nix9EvalState17mkOutputStringRawB5cxx11ERKNS_22SingleDerivedPathBuiltESt8optionalINS_9StorePathEERKNS_27ExperimentalFeatureSettingsE
libnixexpr.so:_ZN3nix9EvalState17mkStorePathStringERKNS_9StorePathERNS_5ValueE
libnixexpr.so:_ZN3nix9EvalState17parseExprFromFileERKNS_10SourcePathE
libnixexpr.so:_ZN3nix9EvalState17parseExprFromFileERKNS_10SourcePathERSt10shared_ptrINS_9StaticEnvEE
libnixexpr.so:_ZN3nix9EvalState19getDocCommentForPosENS_6PosIdxE
libnixexpr.so:_ZN3nix9EvalState19parseExprFromStringENSt7__cxx1112basic_stringIcSt11char_traitsIcESaIcEEERKNS_10SourcePathE
libnixexpr.so:_ZN3nix9EvalState19parseExprFromStringENSt7__cxx1112basic_stringIcSt11char_traitsIcESaIcEEERKNS_10SourcePathERSt10shared_ptrINS_9StaticEnvEE
libnixexpr.so:_ZN3nix9EvalState20tryFixupBlackHolePosERNS_5ValueENS_6PosIdxE
libnixexpr.so:_ZN3nix9EvalState21resolveLookupPathPathERKNS_10LookupPath4PathEb
libnixexpr.so:_ZN3nix9EvalState25coerceToSingleDerivedPathENS_6PosIdxERNS_5ValueESt17basic_string_viewIcSt11char_traitsIcEE
libnixexpr.so:_ZN3nix9EvalState25mkSingleDerivedPathStringERKNS_17SingleDerivedPathERNS_5ValueE
libnixexpr.so:_ZN3nix9EvalState26allowAndSetStorePathStringERKNS_9StorePathERNS_5ValueE
libnixexpr.so:_ZN3nix9EvalState28mkSingleDerivedPathStringRawB5cxx11ERKNS_17SingleDerivedPathE
libnixexpr.so:_ZN3nix9EvalState34coerceToSingleDerivedPathUncheckedENS_6PosIdxERNS_5ValueESt17basic_string_viewIcSt11char_traitsIcEE
libnixexpr.so:_ZN3nix9EvalState4evalEPNS_4ExprERNS_5ValueE
libnixexpr.so:_ZN3nix9EvalState5mkPosERNS_5ValueENS_6PosIdxE
libnixexpr.so:_ZN3nix9EvalState5parseEPcmSt7variantIJSt9monostateNS_3Pos5StdinENS4_6StringENS_10SourcePathEEERKS7_RSt10shared_ptrINS_9StaticEnvEE
libnixexpr.so:_ZN3nix9EvalState6fullGCEv
libnixexpr.so:_ZN3nix9EvalState6getDocERNS_5ValueE
libnixexpr.so:_ZN3nix9EvalState7getBoolEb
libnixexpr.so:_ZN3nix9EvalState8canDebugEv
libnixexpr.so:_ZN3nix9EvalState8checkURIERKNSt7__cxx1112basic_stringIcSt11char_traitsIcESaIcEEE
libnixexpr.so:_ZN3nix9EvalState8eqValuesERNS_5ValueES2_NS_6PosIdxESt17basic_string_viewIcSt11char_traitsIcEE
libnixexpr.so:_ZN3nix9EvalState8evalFileERKNS_10SourcePathERNS_5ValueEb
libnixexpr.so:_ZN3nix9EvalState8findFileERKNS_10LookupPathESt17basic_string_viewIcSt11char_traitsIcEENS_6PosIdxE
libnixexpr.so:_ZN3nix9EvalState8findFileESt17basic_string_viewIcSt11char_traitsIcEE
libnixexpr.so:_ZN3nix9EvalState8forceIntERNS_5ValueENS_6PosIdxESt17basic_string_viewIcSt11char_traitsIcEE
libnixexpr.so:_ZN3nix9EvalState8mkThunk_ERNS_5ValueEPNS_4ExprE
libnixexpr.so:_ZN3nix9EvalState8rootPathENS_9CanonPathE
libnixexpr.so:_ZN3nix9EvalState8rootPathESt17basic_string_viewIcSt11char_traitsIcEE
libnixexpr.so:_ZN3nix9EvalState9addPrimOpEONS_6PrimOpE
libnixexpr.so:_ZN3nix9EvalState9allowPathERKNS_9StorePathE
libnixexpr.so:_ZN3nix9EvalState9allowPathERKNSt7__cxx1112basic_stringIcSt11char_traitsIcESaIcEEE
libnixexpr.so:_ZN3nix9EvalState9forceBoolERNS_5ValueENS_6PosIdxESt17basic_string_viewIcSt11char_traitsIcEE
libnixexpr.so:_ZN3nix9EvalState9isFunctorERNS_5ValueE
libnixexpr.so:_ZN3nix9EvalState9storePathERKNS_9StorePathE
libnixexpr.so:_ZN3nix9EvalStateC1ERKNS_10LookupPathENS_3refINS_5StoreEEERKNS_8fetchers8SettingsERKNS_12EvalSettingsESt10shared_ptrIS5_E
libnixexpr.so:_ZN3nix9EvalStateC2ERKNS_10LookupPathENS_3refINS_5StoreEEERKNS_8fetchers8SettingsERKNS_12EvalSettingsESt10shared_ptrIS5_E
libnixexpr.so:_ZN3nix9EvalStateD1Ev
libnixexpr.so:_ZN3nix9EvalStateD2Ev
libnixexpr.so:_ZN3nix9ExprAttrs18bindInheritSourcesERNS_9EvalStateERKSt10shared_ptrIKNS_9StaticEnvEE
libnixexpr.so:_ZN3nix9ExprAttrs19buildInheritFromEnvERNS_9EvalStateERNS_3EnvE
libnixexpr.so:_ZN3nix9ExprAttrs4evalERNS_9EvalStateERNS_3EnvERNS_5ValueE
libnixexpr.so:_ZN3nix9ExprAttrs8bindVarsERNS_9EvalStateERKSt10shared_ptrIKNS_9StaticEnvEE
libnixexpr.so:_ZN3nix9ExprFloat10maybeThunkERNS_9EvalStateERNS_3EnvE
libnixexpr.so:_ZN3nix9ExprFloat4evalERNS_9EvalStateERNS_3EnvERNS_5ValueE
libnixexpr.so:_ZN3nix9ExprFloat8bindVarsERNS_9EvalStateERKSt10shared_ptrIKNS_9StaticEnvEE
libnixexpr.so:_ZN3nix9ExprOpAnd4evalERNS_9EvalStateERNS_3EnvERNS_5ValueE
libnixexpr.so:_ZN3nix9ExprOpNEq4evalERNS_9EvalStateERNS_3EnvERNS_5ValueE
libnixexpr.so:_ZN3nix9ExprOpNot4evalERNS_9EvalStateERNS_3EnvERNS_5ValueE
libnixexpr.so:_ZN3nix9ExprOpNot8bindVarsERNS_9EvalStateERKSt10shared_ptrIKNS_9StaticEnvEE
libnixexpr.so:_ZN3nix9getPrimOpERKNS_5ValueE
libnixexpr.so:_ZN3nix9parseJSONERNS_9EvalStateERKSt17basic_string_viewIcSt11char_traitsIcEERNS_5ValueE
libnixexpr.so:_ZN3nix9prim_execERNS_9EvalStateENS_6PosIdxEPPNS_5ValueERS3_
libnixexpr.so:_ZN3nixlsERSoNS_9ValueTypeE
libnixexpr.so:_ZN3nixlsERSoRKNS_12ValuePrinterE
libnixexpr.so:_ZN3nixlsERSoRKNS_17ExternalValueBaseE
libnixexpr.so:_ZN3nixlsERSoRKNS_6PrimOpE
libnixexpr.so:_ZN3nixlsERSoRKNS_9SymbolStrE
libnixexpr.so:_ZNK3nix10DocComment12getInnerTextB5cxx11ERKNS_8PosTableE
libnixexpr.so:_ZNK3nix10ExprAssert4showERKNS_11SymbolTableERSo
libnixexpr.so:_ZNK3nix10ExprLambda11showNamePosB5cxx11ERKNS_9EvalStateE
libnixexpr.so:_ZNK3nix10ExprLambda4showERKNS_11SymbolTableERSo
libnixexpr.so:_ZNK3nix10ExprSelect4showERKNS_11SymbolTableERSo
libnixexpr.so:_ZNK3nix10ExprString4showERKNS_11SymbolTableERSo
libnixexpr.so:_ZNK3nix10LookupPath6Prefix22suffixIfPotentialMatchESt17basic_string_viewIcSt11char_traitsIcEE
libnixexpr.so:_ZNK3nix10eval_cache10AttrCursor11getAttrPathENS_6SymbolE
libnixexpr.so:_ZNK3nix10eval_cache10AttrCursor11getAttrPathEv
libnixexpr.so:_ZNK3nix10eval_cache10AttrCursor14getAttrPathStrB5cxx11ENS_6SymbolE
libnixexpr.so:_ZNK3nix10eval_cache10AttrCursor14getAttrPathStrB5cxx11Ev
libnixexpr.so:_ZNK3nix11PackageInfo11querySystemB5cxx11Ev
libnixexpr.so:_ZNK3nix11PackageInfo12queryDrvPathEv
libnixexpr.so:_ZNK3nix11PackageInfo12queryOutPathEv
libnixexpr.so:_ZNK3nix11PackageInfo14requireDrvPathEv
libnixexpr.so:_ZNK3nix11PackageInfo15queryOutputNameB5cxx11Ev
libnixexpr.so:_ZNK3nix11PackageInfo9queryNameB5cxx11Ev
libnixexpr.so:_ZNK3nix11SymbolTable9totalSizeEv
libnixexpr.so:_ZNK3nix12EvalSettings16getCurrentSystemB5cxx11Ev
libnixexpr.so:_ZNK3nix13ExprOpHasAttr4showERKNS_11SymbolTableERSo
libnixexpr.so:_ZNK3nix17ExprConcatStrings4showERKNS_11SymbolTableERSo
libnixexpr.so:_ZNK3nix17ExternalValueBase14coerceToStringB5cxx11ERNS_9EvalStateERKNS_6PosIdxERSt3setINS_20NixStringContextElemESt4lessIS7_ESaIS7_EEbb
libnixexpr.so:_ZNK3nix17ExternalValueBase15printValueAsXMLERNS_9EvalStateEbbRNS_9XMLWriterERSt3setINS_20NixStringContextElemESt4lessIS6_ESaIS6_EERS5_INSt7__cxx1112basic_stringIcSt11char_traitsIcESaIcEEES7_ISH_ESaISH_EENS_6PosIdxE
libnixexpr.so:_ZNK3nix17ExternalValueBase16printValueAsJSONB5cxx11ERNS_9EvalStateEbRSt3setINS_20NixStringContextElemESt4lessIS4_ESaIS4_EEb
libnixexpr.so:_ZNK3nix17ExternalValueBaseeqERKS0_
libnixexpr.so:_ZNK3nix20NixStringContextElem9to_stringB5cxx11Ev
libnixexpr.so:_ZNK3nix4Expr4showERKNS_11SymbolTableERSo
libnixexpr.so:_ZNK3nix5Value12determinePosENS_6PosIdxE
libnixexpr.so:_ZNK3nix5Value15primOpAppPrimOpEv
libnixexpr.so:_ZNK3nix5Value9isTrivialEv
libnixexpr.so:_ZNK3nix6ExprIf4showERKNS_11SymbolTableERSo
libnixexpr.so:_ZNK3nix7ExprInt4showERKNS_11SymbolTableERSo
libnixexpr.so:_ZNK3nix7ExprLet4showERKNS_11SymbolTableERSo
libnixexpr.so:_ZNK3nix7ExprPos4showERKNS_11SymbolTableERSo
libnixexpr.so:_ZNK3nix7ExprVar4showERKNS_11SymbolTableERSo
libnixexpr.so:_ZNK3nix8ExprCall4showERKNS_11SymbolTableERSo
libnixexpr.so:_ZNK3nix8ExprList4showERKNS_11SymbolTableERSo
libnixexpr.so:_ZNK3nix8ExprPath4showERKNS_11SymbolTableERSo
libnixexpr.so:_ZNK3nix8ExprWith4showERKNS_11SymbolTableERSo
libnixexpr.so:_ZNK3nix9ExprAttrs12showBindingsERKNS_11SymbolTableERSo
libnixexpr.so:_ZNK3nix9ExprAttrs4showERKNS_11SymbolTableERSo
libnixexpr.so:_ZNK3nix9ExprFloat4showERKNS_11SymbolTableERSo
libnixexpr.so:_ZNK3nix9ExprOpNot4showERKNS_11SymbolTableERSo
libnixexpr.so:_ZTIN3nix10ExprAssertE
libnixexpr.so:_ZTIN3nix10ExprLambdaE
libnixexpr.so:_ZTIN3nix10ExprOpImplE
libnixexpr.so:_ZTIN3nix10ExprSelectE
libnixexpr.so:_ZTIN3nix10ExprStringE
libnixexpr.so:_ZTIN3nix12ExprOpUpdateE
libnixexpr.so:_ZTIN3nix13ExprBlackHoleE
libnixexpr.so:_ZTIN3nix13ExprOpHasAttrE
libnixexpr.so:_ZTIN3nix15ExprInheritFromE
libnixexpr.so:_ZTIN3nix17ExprConcatStringsE
libnixexpr.so:_ZTIN3nix17ExprOpConcatListsE
libnixexpr.so:_ZTIN3nix17ExternalValueBaseE
libnixexpr.so:_ZTIN3nix4ExprE
libnixexpr.so:_ZTIN3nix6ExprIfE
libnixexpr.so:_ZTIN3nix7ExprIntE
libnixexpr.so:_ZTIN3nix7ExprLetE
libnixexpr.so:_ZTIN3nix7ExprPosE
libnixexpr.so:_ZTIN3nix7ExprVarE
libnixexpr.so:_ZTIN3nix8ExprCallE
libnixexpr.so:_ZTIN3nix8ExprListE
libnixexpr.so:_ZTIN3nix8ExprOpEqE
libnixexpr.so:_ZTIN3nix8ExprOpOrE
libnixexpr.so:_ZTIN3nix8ExprPathE
libnixexpr.so:_ZTIN3nix8ExprWithE
libnixexpr.so:_ZTIN3nix9ExprAttrsE
libnixexpr.so:_ZTIN3nix9ExprFloatE
libnixexpr.so:_ZTIN3nix9ExprOpAndE
libnixexpr.so:_ZTIN3nix9ExprOpNEqE
libnixexpr.so:_ZTIN3nix9ExprOpNotE
libnixexpr.so:_ZTSN3nix10ExprAssertE
libnixexpr.so:_ZTSN3nix10ExprLambdaE
libnixexpr.so:_ZTSN3nix10ExprOpImplE
libnixexpr.so:_ZTSN3nix10ExprSelectE
libnixexpr.so:_ZTSN3nix10ExprStringE
libnixexpr.so:_ZTSN3nix12ExprOpUpdateE
libnixexpr.so:_ZTSN3nix13ExprBlackHoleE
libnixexpr.so:_ZTSN3nix13ExprOpHasAttrE
libnixexpr.so:_ZTSN3nix15ExprInheritFromE
libnixexpr.so:_ZTSN3nix17ExprConcatStringsE
libnixexpr.so:_ZTSN3nix17ExprOpConcatListsE
libnixexpr.so:_ZTSN3nix17ExternalValueBaseE
libnixexpr.so:_ZTSN3nix4ExprE
libnixexpr.so:_ZTSN3nix6ExprIfE
libnixexpr.so:_ZTSN3nix7ExprIntE
libnixexpr.so:_ZTSN3nix7ExprLetE
libnixexpr.so:_ZTSN3nix7ExprPosE
libnixexpr.so:_ZTSN3nix7ExprVarE
libnixexpr.so:_ZTSN3nix8ExprCallE
libnixexpr.so:_ZTSN3nix8ExprListE
libnixexpr.so:_ZTSN3nix8ExprOpEqE
libnixexpr.so:_ZTSN3nix8ExprOpOrE
libnixexpr.so:_ZTSN3nix8ExprPathE
libnixexpr.so:_ZTSN3nix8ExprWithE
libnixexpr.so:_ZTSN3nix9ExprAttrsE
libnixexpr.so:_ZTSN3nix9ExprFloatE
libnixexpr.so:_ZTSN3nix9ExprOpAndE
libnixexpr.so:_ZTSN3nix9ExprOpNEqE
libnixexpr.so:_ZTSN3nix9ExprOpNotE
libnixexpr.so:_ZTVN3nix10ExprAssertE
libnixexpr.so:_ZTVN3nix10ExprLambdaE
libnixexpr.so:_ZTVN3nix10ExprOpImplE
libnixexpr.so:_ZTVN3nix10ExprSelectE
libnixexpr.so:_ZTVN3nix10ExprStringE
libnixexpr.so:_ZTVN3nix12ExprOpUpdateE
libnixexpr.so:_ZTVN3nix13ExprBlackHoleE
libnixexpr.so:_ZTVN3nix13ExprOpHasAttrE
libnixexpr.so:_ZTVN3nix15ExprInheritFromE
libnixexpr.so:_ZTVN3nix17ExprConcatStringsE
libnixexpr.so:_ZTVN3nix17ExprOpConcatListsE
libnixexpr.so:_ZTVN3nix17ExternalValueBaseE
libnixexpr.so:_ZTVN3nix4ExprE
libnixexpr.so:_ZTVN3nix6ExprIfE
libnixexpr.so:_ZTVN3nix7ExprIntE
libnixexpr.so:_ZTVN3nix7ExprLetE
libnixexpr.so:_ZTVN3nix7ExprPosE
libnixexpr.so:_ZTVN3nix7ExprVarE
libnixexpr.so:_ZTVN3nix8ExprCallE
libnixexpr.so:_ZTVN3nix8ExprListE
libnixexpr.so:_ZTVN3nix8ExprOpEqE
libnixexpr.so:_ZTVN3nix8ExprOpOrE
libnixexpr.so:_ZTVN3nix8ExprPathE
libnixexpr.so:_ZTVN3nix8ExprWithE
libnixexpr.so:_ZTVN3nix9ExprAttrsE
libnixexpr.so:_ZTVN3nix9ExprFloatE
libnixexpr.so:_ZTVN3nix9ExprOpAndE
libnixexpr.so:_ZTVN3nix9ExprOpNEqE
libnixexpr.so:_ZTVN3nix9ExprOpNotE
libnixexpr.so:_end
libnixexprc.so:_end
libnixexprc.so:nix_alloc_primop
libnixexprc.so:nix_alloc_value
libnixexprc.so:nix_bindings_builder_free
libnixexprc.so:nix_bindings_builder_insert
libnixexprc.so:nix_copy_value
libnixexprc.so:nix_create_external_value
libnixexprc.so:nix_eval_state_build
libnixexprc.so:nix_eval_state_builder_free
libnixexprc.so:nix_eval_state_builder_load
libnixexprc.so:nix_eval_state_builder_new
libnixexprc.so:nix_eval_state_builder_set_lookup_path
libnixexprc.so:nix_expr_eval_from_string
libnixexprc.so:nix_external_add_string_context
libnixexprc.so:nix_external_print
libnixexprc.so:nix_gc_decref
libnixexprc.so:nix_gc_incref
libnixexprc.so:nix_gc_now
libnixexprc.so:nix_gc_register_finalizer
libnixexprc.so:nix_get_attr_byidx
libnixexprc.so:nix_get_attr_byname
libnixexprc.so:nix_get_attr_name_byidx
libnixexprc.so:nix_get_attrs_size
libnixexprc.so:nix_get_bool
libnixexprc.so:nix_get_external
libnixexprc.so:nix_get_external_value_content
libnixexprc.so:nix_get_float
libnixexprc.so:nix_get_int
libnixexprc.so:nix_get_list_byidx
libnixexprc.so:nix_get_list_size
libnixexprc.so:nix_get_path_string
libnixexprc.so:nix_get_string
libnixexprc.so:nix_get_type
libnixexprc.so:nix_get_typename
libnixexprc.so:nix_has_attr_byname
libnixexprc.so:nix_init_apply
libnixexprc.so:nix_init_bool
libnixexprc.so:nix_init_external
libnixexprc.so:nix_init_float
libnixexprc.so:nix_init_int
libnixexprc.so:nix_init_null
libnixexprc.so:nix_init_path_string
libnixexprc.so:nix_init_primop
libnixexprc.so:nix_init_string
libnixexprc.so:nix_libexpr_init
libnixexprc.so:nix_list_builder_free
libnixexprc.so:nix_list_builder_insert
libnixexprc.so:nix_make_attrs
libnixexprc.so:nix_make_bindings_builder
libnixexprc.so:nix_make_list
libnixexprc.so:nix_make_list_builder
libnixexprc.so:nix_realised_string_free
libnixexprc.so:nix_realised_string_get_buffer_size
libnixexprc.so:nix_realised_string_get_buffer_start
libnixexprc.so:nix_realised_string_get_store_path
libnixexprc.so:nix_realised_string_get_store_path_count
libnixexprc.so:nix_refcount_lock
libnixexprc.so:nix_refcounts
libnixexprc.so:nix_register_primop
libnixexprc.so:nix_set_string_return
libnixexprc.so:nix_state_create
libnixexprc.so:nix_state_free
libnixexprc.so:nix_string_realise
libnixexprc.so:nix_value_call
libnixexprc.so:nix_value_call_multi
libnixexprc.so:nix_value_decref
libnixexprc.so:nix_value_force
libnixexprc.so:nix_value_force_deep
libnixexprc.so:nix_value_incref
libnixfetchers.so:SHA1DCFinal
libnixfetchers.so:SHA1DCInit
libnixfetchers.so:SHA1DCSetCallback
libnixfetchers.so:SHA1DCSetDetectReducedRoundCollision
libnixfetchers.so:SHA1DCSetSafeHash
libnixfetchers.so:SHA1DCSetUseDetectColl
libnixfetchers.so:SHA1DCSetUseUBC
libnixfetchers.so:SHA1DCUpdate
libnixfetchers.so:_ZN3nix11GitRepoImpl11getAccessorERKNS_4HashEbNSt7__cxx1112basic_stringIcSt11char_traitsIcESaIcEEEb
libnixfetchers.so:_ZN3nix11GitRepoImpl11getAccessorERKNS_7GitRepo11WorkdirInfoEbSt8functionIFNS_19RestrictedPathErrorERKNS_9CanonPathEEE
libnixfetchers.so:_ZN3nix11GitRepoImpl13getSubmodulesERKNS_4HashEb
libnixfetchers.so:_ZN3nix11GitRepoImpl14getRawAccessorERKNS_4HashEb
libnixfetchers.so:_ZN3nix11GitRepoImpl23getFileSystemObjectSinkEv
libnixfetchers.so:_ZN3nix12fetchToStoreERNS_5StoreERKNS_10SourcePathENS_9FetchModeESt17basic_string_viewIcSt11char_traitsIcEENS_20ContentAddressMethodEPSt8functionIFbRKNSt7__cxx1112basic_stringIcS8_SaIcEEEEENS_10RepairFlagE
libnixfetchers.so:_ZN3nix12lookupObjectEP14git_repositoryRK7git_oid12git_object_t
libnixfetchers.so:_ZN3nix15getTarballCacheEv
libnixfetchers.so:_ZN3nix21makeStorePathAccessorENS_3refINS_5StoreEEERKNS_9StorePathE
libnixfetchers.so:_ZN3nix23AllowListSourceAccessor6createENS_3refINS_14SourceAccessorEEEOSt3setINS_9CanonPathESt4lessIS5_ESaIS5_EEOSt8functionIFNS_19RestrictedPathErrorERKS5_EE
libnixfetchers.so:_ZN3nix23FilteringSourceAccessor10maybeLstatERKNS_9CanonPathE
libnixfetchers.so:_ZN3nix23FilteringSourceAccessor10pathExistsERKNS_9CanonPathE
libnixfetchers.so:_ZN3nix23FilteringSourceAccessor11checkAccessERKNS_9CanonPathE
libnixfetchers.so:_ZN3nix23FilteringSourceAccessor13readDirectoryB5cxx11ERKNS_9CanonPathE
libnixfetchers.so:_ZN3nix23FilteringSourceAccessor15getPhysicalPathB5cxx11ERKNS_9CanonPathE
libnixfetchers.so:_ZN3nix23FilteringSourceAccessor8readFileB5cxx11ERKNS_9CanonPathE
libnixfetchers.so:_ZN3nix23FilteringSourceAccessor8readLinkB5cxx11ERKNS_9CanonPathE
libnixfetchers.so:_ZN3nix23FilteringSourceAccessor8showPathB5cxx11ERKNS_9CanonPathE
libnixfetchers.so:_ZN3nix30CachingFilteringSourceAccessor9isAllowedERKNS_9CanonPathE
libnixfetchers.so:_ZN3nix3lfs5FetchC1EP14git_repository7git_oid
libnixfetchers.so:_ZN3nix3lfs5FetchC2EP14git_repository7git_oid
libnixfetchers.so:_ZN3nix6toHashERK7git_oid
libnixfetchers.so:_ZN3nix7GitRepo20getCachedWorkdirInfoERKNSt10filesystem7__cxx114pathE
libnixfetchers.so:_ZN3nix7GitRepo8openRepoERKNSt10filesystem7__cxx114pathEbb
libnixfetchers.so:_ZN3nix8fetchers10flakeRegexB5cxx11E
libnixfetchers.so:_ZN3nix8fetchers10getIntAttrERKSt3mapINSt7__cxx1112basic_stringIcSt11char_traitsIcESaIcEEESt7variantIJS7_mNS_8ExplicitIbEEEESt4lessIS7_ESaISt4pairIKS7_SB_EEERSF_
libnixfetchers.so:_ZN3nix8fetchers10getRevAttrERKSt3mapINSt7__cxx1112basic_stringIcSt11char_traitsIcESaIcEEESt7variantIJS7_mNS_8ExplicitIbEEEESt4lessIS7_ESaISt4pairIKS7_SB_EEERSF_
libnixfetchers.so:_ZN3nix8fetchers10getStrAttrERKSt3mapINSt7__cxx1112basic_stringIcSt11char_traitsIcESaIcEEESt7variantIJS7_mNS_8ExplicitIbEEEESt4lessIS7_ESaISt4pairIKS7_SB_EEERSF_
libnixfetchers.so:_ZN3nix8fetchers11attrsToJSONERKSt3mapINSt7__cxx1112basic_stringIcSt11char_traitsIcESaIcEEESt7variantIJS7_mNS_8ExplicitIbEEEESt4lessIS7_ESaISt4pairIKS7_SB_EEE
libnixfetchers.so:_ZN3nix8fetchers11getBoolAttrERKSt3mapINSt7__cxx1112basic_stringIcSt11char_traitsIcESaIcEEESt7variantIJS7_mNS_8ExplicitIbEEEESt4lessIS7_ESaISt4pairIKS7_SB_EEERSF_
libnixfetchers.so:_ZN3nix8fetchers11jsonToAttrsERKN8nlohmann16json_abi_v3_11_210basic_jsonISt3mapSt6vectorNSt7__cxx1112basic_stringIcSt11char_traitsIcESaIcEEEblmdSaNS2_14adl_serializerES5_IhSaIhEEEE
libnixfetchers.so:_ZN3nix8fetchers12attrsToQueryERKSt3mapINSt7__cxx1112basic_stringIcSt11char_traitsIcESaIcEEESt7variantIJS7_mNS_8ExplicitIbEEEESt4lessIS7_ESaISt4pairIKS7_SB_EEE
libnixfetchers.so:_ZN3nix8fetchers12downloadFileENS_3refINS_5StoreEEERKNSt7__cxx1112basic_stringIcSt11char_traitsIcESaIcEEESB_RKSt6vectorISt4pairIS9_S9_ESaISE_EE
libnixfetchers.so:_ZN3nix8fetchers12inputSchemesE
libnixfetchers.so:_ZN3nix8fetchers13getRegistriesERKNS0_8SettingsENS_3refINS_5StoreEEE
libnixfetchers.so:_ZN3nix8fetchers15downloadTarballENS_3refINS_5StoreEEERKNS0_8SettingsERKNSt7__cxx1112basic_stringIcSt11char_traitsIcESaIcEEE
libnixfetchers.so:_ZN3nix8fetchers15getFlagRegistryERKNS0_8SettingsE
libnixfetchers.so:_ZN3nix8fetchers15getUserRegistryERKNS0_8SettingsE
libnixfetchers.so:_ZN3nix8fetchers15maybeGetIntAttrERKSt3mapINSt7__cxx1112basic_stringIcSt11char_traitsIcESaIcEEESt7variantIJS7_mNS_8ExplicitIbEEEESt4lessIS7_ESaISt4pairIKS7_SB_EEERSF_
libnixfetchers.so:_ZN3nix8fetchers15maybeGetStrAttrERKSt3mapINSt7__cxx1112basic_stringIcSt11char_traitsIcESaIcEEESt7variantIJS7_mNS_8ExplicitIbEEEESt4lessIS7_ESaISt4pairIKS7_SB_EEERSF_
libnixfetchers.so:_ZN3nix8fetchers16maybeGetBoolAttrERKSt3mapINSt7__cxx1112basic_stringIcSt11char_traitsIcESaIcEEESt7variantIJS7_mNS_8ExplicitIbEEEESt4lessIS7_ESaISt4pairIKS7_SB_EEERSF_
libnixfetchers.so:_ZN3nix8fetchers16overrideRegistryERKNS0_5InputES3_RKSt3mapINSt7__cxx1112basic_stringIcSt11char_traitsIcESaIcEEESt7variantIJSA_mNS_8ExplicitIbEEEESt4lessISA_ESaISt4pairIKSA_SE_EEE
libnixfetchers.so:_ZN3nix8fetchers17getCustomRegistryERKNS0_8SettingsERKNSt7__cxx1112basic_stringIcSt11char_traitsIcESaIcEEE
libnixfetchers.so:_ZN3nix8fetchers18lookupInRegistriesB5cxx11ENS_3refINS_5StoreEEERKNS0_5InputERKSt8functionIFbNS0_8Registry12RegistryTypeEEE
libnixfetchers.so:_ZN3nix8fetchers19getUserRegistryPathB5cxx11Ev
libnixfetchers.so:_ZN3nix8fetchers19registerInputSchemeEOSt10shared_ptrINS0_11InputSchemeEE
libnixfetchers.so:_ZN3nix8fetchers20publicKeys_to_stringB5cxx11ERKSt6vectorINS0_9PublicKeyESaIS2_EE
libnixfetchers.so:_ZN3nix8fetchers27dumpRegisterInputSchemeInfoB5cxx11Ev
libnixfetchers.so:_ZN3nix8fetchers5Input10checkLocksES1_RS1_
libnixfetchers.so:_ZN3nix8fetchers5Input7fromURLERKNS0_8SettingsERKNS_9ParsedURLEb
libnixfetchers.so:_ZN3nix8fetchers5Input7fromURLERKNS0_8SettingsERKNSt7__cxx1112basic_stringIcSt11char_traitsIcESaIcEEEb
libnixfetchers.so:_ZN3nix8fetchers5Input9fromAttrsERKNS0_8SettingsEOSt3mapINSt7__cxx1112basic_stringIcSt11char_traitsIcESaIcEEESt7variantIJSB_mNS_8ExplicitIbEEEESt4lessISB_ESaISt4pairIKSB_SF_EEE
libnixfetchers.so:_ZN3nix8fetchers8Registry3addERKNS0_5InputES4_RKSt3mapINSt7__cxx1112basic_stringIcSt11char_traitsIcESaIcEEESt7variantIJSB_mNS_8ExplicitIbEEEESt4lessISB_ESaISt4pairIKSB_SF_EEE
libnixfetchers.so:_ZN3nix8fetchers8Registry4readERKNS0_8SettingsERKNSt7__cxx1112basic_stringIcSt11char_traitsIcESaIcEEENS1_12RegistryTypeE
libnixfetchers.so:_ZN3nix8fetchers8Registry5writeERKNSt7__cxx1112basic_stringIcSt11char_traitsIcESaIcEEE
libnixfetchers.so:_ZN3nix8fetchers8Registry6removeERKNS0_5InputE
libnixfetchers.so:_ZN3nix8fetchers8SettingsC1Ev
libnixfetchers.so:_ZN3nix8fetchers8SettingsC2Ev
libnixfetchers.so:_ZN3nix8fetchers8getCacheEv
libnixfetchers.so:_ZN3nix8fetchers9hostRegexB5cxx11E
libnixfetchers.so:_ZN3nix9hashToOIDERKNS_4HashE
libnixfetchers.so:_ZN8nlohmann16json_abi_v3_11_214adl_serializerIN3nix8fetchers9PublicKeyEvE7to_jsonERNS0_10basic_jsonISt3mapSt6vectorNSt7__cxx1112basic_stringIcSt11char_traitsIcESaIcEEEblmdSaS1_S8_IhSaIhEEEES4_
libnixfetchers.so:_ZN8nlohmann16json_abi_v3_11_214adl_serializerIN3nix8fetchers9PublicKeyEvE9from_jsonERKNS0_10basic_jsonISt3mapSt6vectorNSt7__cxx1112basic_stringIcSt11char_traitsIcESaIcEEEblmdSaS1_S8_IhSaIhEEEE
libnixfetchers.so:_ZNK3nix3lfs5Fetch11shouldFetchERKNS_9CanonPathE
libnixfetchers.so:_ZNK3nix3lfs5Fetch5fetchERKNSt7__cxx1112basic_stringIcSt11char_traitsIcESaIcEEERKNS_9CanonPathERNS_10StringSinkESt8functionIFvmEE
libnixfetchers.so:_ZNK3nix3lfs5Fetch9fetchUrlsB5cxx11ERKSt6vectorINS0_7PointerESaIS3_EE
libnixfetchers.so:_ZNK3nix8fetchers11InputScheme13getSourcePathB5cxx11ERKNS0_5InputE
libnixfetchers.so:_ZNK3nix8fetchers11InputScheme14applyOverridesERKNS0_5InputESt8optionalINSt7__cxx1112basic_stringIcSt11char_traitsIcESaIcEEEES5_INS_4HashEE
libnixfetchers.so:_ZNK3nix8fetchers11InputScheme19experimentalFeatureEv
libnixfetchers.so:_ZNK3nix8fetchers11InputScheme5cloneERKNS0_5InputERKNSt7__cxx1112basic_stringIcSt11char_traitsIcESaIcEEE
libnixfetchers.so:_ZNK3nix8fetchers11InputScheme5toURLERKNS0_5InputE
libnixfetchers.so:_ZNK3nix8fetchers11InputScheme7putFileERKNS0_5InputERKNS_9CanonPathESt17basic_string_viewIcSt11char_traitsIcEESt8optionalINSt7__cxx1112basic_stringIcSA_SaIcEEEE
libnixfetchers.so:_ZNK3nix8fetchers5Input10getNarHashEv
libnixfetchers.so:_ZNK3nix8fetchers5Input10isRelativeB5cxx11Ev
libnixfetchers.so:_ZNK3nix8fetchers5Input11getAccessorENS_3refINS_5StoreEEE
libnixfetchers.so:_ZNK3nix8fetchers5Input11getRevCountEv
libnixfetchers.so:_ZNK3nix8fetchers5Input11toURLStringERKSt3mapINSt7__cxx1112basic_stringIcSt11char_traitsIcESaIcEEES8_St4lessIS8_ESaISt4pairIKS8_S8_EEE
libnixfetchers.so:_ZNK3nix8fetchers5Input12fetchToStoreENS_3refINS_5StoreEEE
libnixfetchers.so:_ZNK3nix8fetchers5Input13getSourcePathB5cxx11Ev
libnixfetchers.so:_ZNK3nix8fetchers5Input14applyOverridesESt8optionalINSt7__cxx1112basic_stringIcSt11char_traitsIcESaIcEEEES2_INS_4HashEE
libnixfetchers.so:_ZNK3nix8fetchers5Input14getFingerprintB5cxx11ENS_3refINS_5StoreEEE
libnixfetchers.so:_ZNK3nix8fetchers5Input15getLastModifiedEv
libnixfetchers.so:_ZNK3nix8fetchers5Input16computeStorePathERNS_5StoreE
libnixfetchers.so:_ZNK3nix8fetchers5Input20getAccessorUncheckedENS_3refINS_5StoreEEE
libnixfetchers.so:_ZNK3nix8fetchers5Input5cloneERKNSt7__cxx1112basic_stringIcSt11char_traitsIcESaIcEEE
libnixfetchers.so:_ZNK3nix8fetchers5Input5toURLEv
libnixfetchers.so:_ZNK3nix8fetchers5Input6getRefB5cxx11Ev
libnixfetchers.so:_ZNK3nix8fetchers5Input6getRevEv
libnixfetchers.so:_ZNK3nix8fetchers5Input7getNameB5cxx11Ev
libnixfetchers.so:_ZNK3nix8fetchers5Input7getTypeB5cxx11Ev
libnixfetchers.so:_ZNK3nix8fetchers5Input7isFinalEv
libnixfetchers.so:_ZNK3nix8fetchers5Input7putFileERKNS_9CanonPathESt17basic_string_viewIcSt11char_traitsIcEESt8optionalINSt7__cxx1112basic_stringIcS7_SaIcEEEE
libnixfetchers.so:_ZNK3nix8fetchers5Input7toAttrsB5cxx11Ev
libnixfetchers.so:_ZNK3nix8fetchers5Input8containsERKS1_
libnixfetchers.so:_ZNK3nix8fetchers5Input8isDirectEv
libnixfetchers.so:_ZNK3nix8fetchers5Input8isLockedEv
libnixfetchers.so:_ZNK3nix8fetchers5Input9to_stringB5cxx11Ev
libnixfetchers.so:_ZNK3nix8fetchers5InputeqERKS1_
libnixfetchers.so:_ZTIN3nix11GitRepoImplE
libnixfetchers.so:_ZTIN3nix23FilteringSourceAccessorE
libnixfetchers.so:_ZTIN3nix30CachingFilteringSourceAccessorE
libnixfetchers.so:_ZTIN3nix8fetchers11InputSchemeE
libnixfetchers.so:_ZTSN3nix11GitRepoImplE
libnixfetchers.so:_ZTSN3nix23FilteringSourceAccessorE
libnixfetchers.so:_ZTSN3nix30CachingFilteringSourceAccessorE
libnixfetchers.so:_ZTSN3nix8fetchers11InputSchemeE
libnixfetchers.so:_ZTVN3nix11GitRepoImplE
libnixfetchers.so:_ZTVN3nix23FilteringSourceAccessorE
libnixfetchers.so:_ZTVN3nix30CachingFilteringSourceAccessorE
libnixfetchers.so:_ZTVN3nix8fetchers11InputSchemeE
libnixfetchers.so:_ZeqRK7git_oidS1_
libnixfetchers.so:_ZlsRSoRK7git_oid
libnixfetchers.so:get_delta_base
libnixfetchers.so:git__allocator
libnixfetchers.so:git__bsearch
libnixfetchers.so:git__bsearch_r
libnixfetchers.so:git__calloc
libnixfetchers.so:git__getenv
libnixfetchers.so:git__hash
libnixfetchers.so:git__hexdump
libnixfetchers.so:git__linenlen
libnixfetchers.so:git__mallocarray
libnixfetchers.so:git__memmem
libnixfetchers.so:git__mmap_alignment
libnixfetchers.so:git__online_cpus
libnixfetchers.so:git__page_size
libnixfetchers.so:git__parse_bool
libnixfetchers.so:git__percent_decode
libnixfetchers.so:git__prefixcmp
libnixfetchers.so:git__prefixcmp_icase
libnixfetchers.so:git__prefixncmp
libnixfetchers.so:git__prefixncmp_icase
libnixfetchers.so:git__qsort_r
libnixfetchers.so:git__reallocarray
libnixfetchers.so:git__ssl_ciphers
libnixfetchers.so:git__ssl_ctx
libnixfetchers.so:git__strcasecmp
libnixfetchers.so:git__strcasecmp_cb
libnixfetchers.so:git__strcasesort_cmp
libnixfetchers.so:git__strcmp_cb
libnixfetchers.so:git__strdup
libnixfetchers.so:git__strncasecmp
libnixfetchers.so:git__strndup
libnixfetchers.so:git__strntol32
libnixfetchers.so:git__strntol64
libnixfetchers.so:git__strntolower
libnixfetchers.so:git__strsep
libnixfetchers.so:git__strtok
libnixfetchers.so:git__strtolower
libnixfetchers.so:git__substrdup
libnixfetchers.so:git__suffixcmp
libnixfetchers.so:git__tsort
libnixfetchers.so:git__tsort_r
libnixfetchers.so:git__unescape
libnixfetchers.so:git__user_agent
libnixfetchers.so:git__user_agent_product
libnixfetchers.so:git_allocator_global_init
libnixfetchers.so:git_allocator_setup
libnixfetchers.so:git_annotated_commit_free
libnixfetchers.so:git_annotated_commit_from_commit
libnixfetchers.so:git_annotated_commit_from_fetchhead
libnixfetchers.so:git_annotated_commit_from_head
libnixfetchers.so:git_annotated_commit_from_ref
libnixfetchers.so:git_annotated_commit_from_revspec
libnixfetchers.so:git_annotated_commit_id
libnixfetchers.so:git_annotated_commit_lookup
libnixfetchers.so:git_annotated_commit_ref
libnixfetchers.so:git_attr__false
libnixfetchers.so:git_attr__true
libnixfetchers.so:git_attr__unset
libnixfetchers.so:git_attr_add_macro
libnixfetchers.so:git_attr_assignment__parse
libnixfetchers.so:git_attr_cache__alloc_file_entry
libnixfetchers.so:git_attr_cache__get
libnixfetchers.so:git_attr_cache__init
libnixfetchers.so:git_attr_cache__insert_macro
libnixfetchers.so:git_attr_cache__is_cached
libnixfetchers.so:git_attr_cache__lookup_macro
libnixfetchers.so:git_attr_cache_attributesfile
libnixfetchers.so:git_attr_cache_excludesfile
libnixfetchers.so:git_attr_cache_flush
libnixfetchers.so:git_attr_cache_pool
libnixfetchers.so:git_attr_file__clear_rules
libnixfetchers.so:git_attr_file__free
libnixfetchers.so:git_attr_file__load
libnixfetchers.so:git_attr_file__load_standalone
libnixfetchers.so:git_attr_file__lookup_one
libnixfetchers.so:git_attr_file__name_hash
libnixfetchers.so:git_attr_file__new
libnixfetchers.so:git_attr_file__out_of_date
libnixfetchers.so:git_attr_file__parse_buffer
libnixfetchers.so:git_attr_fnmatch__match
libnixfetchers.so:git_attr_fnmatch__parse
libnixfetchers.so:git_attr_foreach
libnixfetchers.so:git_attr_foreach_ext
libnixfetchers.so:git_attr_get
libnixfetchers.so:git_attr_get_ext
libnixfetchers.so:git_attr_get_many
libnixfetchers.so:git_attr_get_many_ext
libnixfetchers.so:git_attr_get_many_with_session
libnixfetchers.so:git_attr_path__free
libnixfetchers.so:git_attr_path__init
libnixfetchers.so:git_attr_rule__free
libnixfetchers.so:git_attr_rule__lookup_assignment
libnixfetchers.so:git_attr_rule__match
libnixfetchers.so:git_attr_session__free
libnixfetchers.so:git_attr_session__init
libnixfetchers.so:git_attr_value
libnixfetchers.so:git_blob__create_from_paths
libnixfetchers.so:git_blob__free
libnixfetchers.so:git_blob__getbuf
libnixfetchers.so:git_blob__parse
libnixfetchers.so:git_blob__parse_raw
libnixfetchers.so:git_blob_create_from_buffer
libnixfetchers.so:git_blob_create_from_disk
libnixfetchers.so:git_blob_create_from_stream
libnixfetchers.so:git_blob_create_from_stream_commit
libnixfetchers.so:git_blob_create_from_workdir
libnixfetchers.so:git_blob_create_frombuffer
libnixfetchers.so:git_blob_create_fromdisk
libnixfetchers.so:git_blob_create_fromstream
libnixfetchers.so:git_blob_create_fromstream_commit
libnixfetchers.so:git_blob_create_fromworkdir
libnixfetchers.so:git_blob_data_is_binary
libnixfetchers.so:git_blob_dup
libnixfetchers.so:git_blob_filter
libnixfetchers.so:git_blob_filter_options_init
libnixfetchers.so:git_blob_filtered_content
libnixfetchers.so:git_blob_free
libnixfetchers.so:git_blob_id
libnixfetchers.so:git_blob_is_binary
libnixfetchers.so:git_blob_lookup
libnixfetchers.so:git_blob_lookup_prefix
libnixfetchers.so:git_blob_owner
libnixfetchers.so:git_blob_rawcontent
libnixfetchers.so:git_blob_rawsize
libnixfetchers.so:git_branch__remote_name
libnixfetchers.so:git_branch__upstream_merge
libnixfetchers.so:git_branch__upstream_name
libnixfetchers.so:git_branch__upstream_remote
libnixfetchers.so:git_branch_create
libnixfetchers.so:git_branch_create_from_annotated
libnixfetchers.so:git_branch_delete
libnixfetchers.so:git_branch_is_checked_out
libnixfetchers.so:git_branch_is_head
libnixfetchers.so:git_branch_iterator_free
libnixfetchers.so:git_branch_iterator_new
libnixfetchers.so:git_branch_lookup
libnixfetchers.so:git_branch_move
libnixfetchers.so:git_branch_name
libnixfetchers.so:git_branch_name_is_valid
libnixfetchers.so:git_branch_next
libnixfetchers.so:git_branch_remote_name
libnixfetchers.so:git_branch_set_upstream
libnixfetchers.so:git_branch_upstream
libnixfetchers.so:git_branch_upstream_merge
libnixfetchers.so:git_branch_upstream_name
libnixfetchers.so:git_branch_upstream_remote
libnixfetchers.so:git_buf_contains_nul
libnixfetchers.so:git_buf_dispose
libnixfetchers.so:git_buf_free
libnixfetchers.so:git_buf_fromstr
libnixfetchers.so:git_buf_grow
libnixfetchers.so:git_buf_is_binary
libnixfetchers.so:git_buf_sanitize
libnixfetchers.so:git_buf_set
libnixfetchers.so:git_buf_tostr
libnixfetchers.so:git_cache__current_storage
libnixfetchers.so:git_cache__enabled
libnixfetchers.so:git_cache__max_storage
libnixfetchers.so:git_cache_clear
libnixfetchers.so:git_cache_dispose
libnixfetchers.so:git_cache_get_any
libnixfetchers.so:git_cache_get_parsed
libnixfetchers.so:git_cache_get_raw
libnixfetchers.so:git_cache_init
libnixfetchers.so:git_cache_set_max_object_size
libnixfetchers.so:git_cache_size
libnixfetchers.so:git_cache_store_parsed
libnixfetchers.so:git_cache_store_raw
libnixfetchers.so:git_cached_obj_decref
libnixfetchers.so:git_checkout_head
libnixfetchers.so:git_checkout_index
libnixfetchers.so:git_checkout_init_options
libnixfetchers.so:git_checkout_iterator
libnixfetchers.so:git_checkout_options_init
libnixfetchers.so:git_checkout_tree
libnixfetchers.so:git_clone
libnixfetchers.so:git_clone__should_clone_local
libnixfetchers.so:git_clone__submodule
libnixfetchers.so:git_clone_init_options
libnixfetchers.so:git_clone_options_init
libnixfetchers.so:git_commit__create_buffer
libnixfetchers.so:git_commit__extract_signature
libnixfetchers.so:git_commit__free
libnixfetchers.so:git_commit__header_field
libnixfetchers.so:git_commit__parse
libnixfetchers.so:git_commit__parse_ext
libnixfetchers.so:git_commit__parse_raw
libnixfetchers.so:git_commit_amend
libnixfetchers.so:git_commit_author
libnixfetchers.so:git_commit_author_with_mailmap
libnixfetchers.so:git_commit_body
libnixfetchers.so:git_commit_committer
libnixfetchers.so:git_commit_committer_with_mailmap
libnixfetchers.so:git_commit_create
libnixfetchers.so:git_commit_create_buffer
libnixfetchers.so:git_commit_create_from_callback
libnixfetchers.so:git_commit_create_from_ids
libnixfetchers.so:git_commit_create_from_stage
libnixfetchers.so:git_commit_create_v
libnixfetchers.so:git_commit_create_with_signature
libnixfetchers.so:git_commit_dup
libnixfetchers.so:git_commit_extract_signature
libnixfetchers.so:git_commit_free
libnixfetchers.so:git_commit_graph__writer_dump
libnixfetchers.so:git_commit_graph_entry_find
libnixfetchers.so:git_commit_graph_entry_parent
libnixfetchers.so:git_commit_graph_file_close
libnixfetchers.so:git_commit_graph_file_free
libnixfetchers.so:git_commit_graph_file_needs_refresh
libnixfetchers.so:git_commit_graph_file_open
libnixfetchers.so:git_commit_graph_file_parse
libnixfetchers.so:git_commit_graph_free
libnixfetchers.so:git_commit_graph_get_file
libnixfetchers.so:git_commit_graph_new
libnixfetchers.so:git_commit_graph_open
libnixfetchers.so:git_commit_graph_refresh
libnixfetchers.so:git_commit_graph_validate
libnixfetchers.so:git_commit_graph_writer_add_index_file
libnixfetchers.so:git_commit_graph_writer_add_revwalk
libnixfetchers.so:git_commit_graph_writer_commit
libnixfetchers.so:git_commit_graph_writer_dump
libnixfetchers.so:git_commit_graph_writer_free
libnixfetchers.so:git_commit_graph_writer_new
libnixfetchers.so:git_commit_graph_writer_options_init
libnixfetchers.so:git_commit_header_field
libnixfetchers.so:git_commit_id
libnixfetchers.so:git_commit_list_alloc_node
libnixfetchers.so:git_commit_list_create
libnixfetchers.so:git_commit_list_free
libnixfetchers.so:git_commit_list_generation_cmp
libnixfetchers.so:git_commit_list_insert
libnixfetchers.so:git_commit_list_insert_by_date
libnixfetchers.so:git_commit_list_parse
libnixfetchers.so:git_commit_list_pop
libnixfetchers.so:git_commit_list_time_cmp
libnixfetchers.so:git_commit_lookup
libnixfetchers.so:git_commit_lookup_prefix
libnixfetchers.so:git_commit_message
libnixfetchers.so:git_commit_message_encoding
libnixfetchers.so:git_commit_message_raw
libnixfetchers.so:git_commit_nth_gen_ancestor
libnixfetchers.so:git_commit_owner
libnixfetchers.so:git_commit_parent
libnixfetchers.so:git_commit_parent_id
libnixfetchers.so:git_commit_parentcount
libnixfetchers.so:git_commit_raw_header
libnixfetchers.so:git_commit_summary
libnixfetchers.so:git_commit_time
libnixfetchers.so:git_commit_time_offset
libnixfetchers.so:git_commit_tree
libnixfetchers.so:git_commit_tree_id
libnixfetchers.so:git_commitarray_dispose
libnixfetchers.so:git_config__configmap_lookup
libnixfetchers.so:git_config__find_global
libnixfetchers.so:git_config__find_programdata
libnixfetchers.so:git_config__find_system
libnixfetchers.so:git_config__find_xdg
libnixfetchers.so:git_config__get_bool_force
libnixfetchers.so:git_config__get_int_force
libnixfetchers.so:git_config__get_path
libnixfetchers.so:git_config__get_string_buf
libnixfetchers.so:git_config__get_string_force
libnixfetchers.so:git_config__global_location
libnixfetchers.so:git_config__lookup_entry
libnixfetchers.so:git_config__normalize_name
libnixfetchers.so:git_config__update_entry
libnixfetchers.so:git_config_add_backend
libnixfetchers.so:git_config_add_file_ondisk
libnixfetchers.so:git_config_backend_foreach_match
libnixfetchers.so:git_config_backend_from_file
libnixfetchers.so:git_config_backend_snapshot
libnixfetchers.so:git_config_delete_entry
libnixfetchers.so:git_config_delete_multivar
libnixfetchers.so:git_config_entry_free
libnixfetchers.so:git_config_escaped
libnixfetchers.so:git_config_escapes
libnixfetchers.so:git_config_find_global
libnixfetchers.so:git_config_find_programdata
libnixfetchers.so:git_config_find_system
libnixfetchers.so:git_config_find_xdg
libnixfetchers.so:git_config_foreach
libnixfetchers.so:git_config_foreach_match
libnixfetchers.so:git_config_free
libnixfetchers.so:git_config_get_bool
libnixfetchers.so:git_config_get_entry
libnixfetchers.so:git_config_get_int32
libnixfetchers.so:git_config_get_int64
libnixfetchers.so:git_config_get_mapped
libnixfetchers.so:git_config_get_multivar_foreach
libnixfetchers.so:git_config_get_path
libnixfetchers.so:git_config_get_string
libnixfetchers.so:git_config_get_string_buf
libnixfetchers.so:git_config_init_backend
libnixfetchers.so:git_config_iterator_free
libnixfetchers.so:git_config_iterator_glob_new
libnixfetchers.so:git_config_iterator_new
libnixfetchers.so:git_config_list_add_string
libnixfetchers.so:git_config_list_append
libnixfetchers.so:git_config_list_dup
libnixfetchers.so:git_config_list_dup_entry
libnixfetchers.so:git_config_list_entry_free
libnixfetchers.so:git_config_list_free
libnixfetchers.so:git_config_list_get
libnixfetchers.so:git_config_list_get_unique
libnixfetchers.so:git_config_list_incref
libnixfetchers.so:git_config_list_iterator_new
libnixfetchers.so:git_config_list_new
libnixfetchers.so:git_config_lock
libnixfetchers.so:git_config_lookup_map_enum
libnixfetchers.so:git_config_lookup_map_value
libnixfetchers.so:git_config_multivar_iterator_new
libnixfetchers.so:git_config_new
libnixfetchers.so:git_config_next
libnixfetchers.so:git_config_open_default
libnixfetchers.so:git_config_open_global
libnixfetchers.so:git_config_open_level
libnixfetchers.so:git_config_open_ondisk
libnixfetchers.so:git_config_parse
libnixfetchers.so:git_config_parse_bool
libnixfetchers.so:git_config_parse_int32
libnixfetchers.so:git_config_parse_int64
libnixfetchers.so:git_config_parse_path
libnixfetchers.so:git_config_parser_dispose
libnixfetchers.so:git_config_parser_init
libnixfetchers.so:git_config_rename_section
libnixfetchers.so:git_config_set_bool
libnixfetchers.so:git_config_set_int32
libnixfetchers.so:git_config_set_int64
libnixfetchers.so:git_config_set_multivar
libnixfetchers.so:git_config_set_string
libnixfetchers.so:git_config_set_writeorder
libnixfetchers.so:git_config_snapshot
libnixfetchers.so:git_config_unlock
libnixfetchers.so:git_cred_default_new
libnixfetchers.so:git_cred_free
libnixfetchers.so:git_cred_get_username
libnixfetchers.so:git_cred_has_username
libnixfetchers.so:git_cred_ssh_custom_new
libnixfetchers.so:git_cred_ssh_interactive_new
libnixfetchers.so:git_cred_ssh_key_from_agent
libnixfetchers.so:git_cred_ssh_key_memory_new
libnixfetchers.so:git_cred_ssh_key_new
libnixfetchers.so:git_cred_username_new
libnixfetchers.so:git_cred_userpass_plaintext_new
libnixfetchers.so:git_credential_default_new
libnixfetchers.so:git_credential_free
libnixfetchers.so:git_credential_get_username
libnixfetchers.so:git_credential_has_username
libnixfetchers.so:git_credential_ssh_custom_new
libnixfetchers.so:git_credential_ssh_interactive_new
libnixfetchers.so:git_credential_ssh_key_from_agent
libnixfetchers.so:git_credential_ssh_key_memory_new
libnixfetchers.so:git_credential_ssh_key_new
libnixfetchers.so:git_credential_username_new
libnixfetchers.so:git_credential_userpass_plaintext_new
libnixfetchers.so:git_crlf_filter_new
libnixfetchers.so:git_date_offset_parse
libnixfetchers.so:git_date_parse
libnixfetchers.so:git_date_rfc2822_fmt
libnixfetchers.so:git_decode_varint
libnixfetchers.so:git_delta_apply
libnixfetchers.so:git_delta_create_from_index
libnixfetchers.so:git_delta_index_free
libnixfetchers.so:git_delta_index_init
libnixfetchers.so:git_delta_index_size
libnixfetchers.so:git_delta_read_header
libnixfetchers.so:git_delta_read_header_fromstream
libnixfetchers.so:git_diff__commit
libnixfetchers.so:git_diff__delta_dup
libnixfetchers.so:git_diff__entry_cmp
libnixfetchers.so:git_diff__entry_icmp
libnixfetchers.so:git_diff__from_iterators
libnixfetchers.so:git_diff__merge
libnixfetchers.so:git_diff__merge_like_cgit
libnixfetchers.so:git_diff__oid_for_entry
libnixfetchers.so:git_diff__oid_for_file
libnixfetchers.so:git_diff__paired_foreach
libnixfetchers.so:git_diff__stats_to_buf
libnixfetchers.so:git_diff_addref
libnixfetchers.so:git_diff_blob_to_buffer
libnixfetchers.so:git_diff_blobs
libnixfetchers.so:git_diff_buffers
libnixfetchers.so:git_diff_commit_as_email
libnixfetchers.so:git_diff_delta__casecmp
libnixfetchers.so:git_diff_delta__cmp
libnixfetchers.so:git_diff_delta__format_file_header
libnixfetchers.so:git_diff_delta__should_skip
libnixfetchers.so:git_diff_driver_content_is_binary
libnixfetchers.so:git_diff_driver_free
libnixfetchers.so:git_diff_driver_lookup
libnixfetchers.so:git_diff_driver_registry_free
libnixfetchers.so:git_diff_driver_registry_new
libnixfetchers.so:git_diff_driver_update_options
libnixfetchers.so:git_diff_file_content__clear
libnixfetchers.so:git_diff_file_content__init_from_diff
libnixfetchers.so:git_diff_file_content__init_from_src
libnixfetchers.so:git_diff_file_content__load
libnixfetchers.so:git_diff_file_content__unload
libnixfetchers.so:git_diff_find_context_clear
libnixfetchers.so:git_diff_find_context_init
libnixfetchers.so:git_diff_find_init_options
libnixfetchers.so:git_diff_find_options_init
libnixfetchers.so:git_diff_find_similar
libnixfetchers.so:git_diff_find_similar__calc_similarity
libnixfetchers.so:git_diff_find_similar__hashsig_for_buf
libnixfetchers.so:git_diff_find_similar__hashsig_for_file
libnixfetchers.so:git_diff_find_similar__hashsig_free
libnixfetchers.so:git_diff_foreach
libnixfetchers.so:git_diff_format_email
libnixfetchers.so:git_diff_format_email_init_options
libnixfetchers.so:git_diff_format_email_options_init
libnixfetchers.so:git_diff_free
libnixfetchers.so:git_diff_get_delta
libnixfetchers.so:git_diff_get_perfdata
libnixfetchers.so:git_diff_get_stats
libnixfetchers.so:git_diff_index_to_index
libnixfetchers.so:git_diff_index_to_workdir
libnixfetchers.so:git_diff_init_options
libnixfetchers.so:git_diff_is_sorted_icase
libnixfetchers.so:git_diff_merge
libnixfetchers.so:git_diff_num_deltas
libnixfetchers.so:git_diff_num_deltas_of_type
libnixfetchers.so:git_diff_options_init
libnixfetchers.so:git_diff_patchid
libnixfetchers.so:git_diff_patchid_options_init
libnixfetchers.so:git_diff_print
libnixfetchers.so:git_diff_print_callback__to_buf
libnixfetchers.so:git_diff_print_callback__to_file_handle
libnixfetchers.so:git_diff_stats_deletions
libnixfetchers.so:git_diff_stats_files_changed
libnixfetchers.so:git_diff_stats_free
libnixfetchers.so:git_diff_stats_insertions
libnixfetchers.so:git_diff_stats_to_buf
libnixfetchers.so:git_diff_status_char
libnixfetchers.so:git_diff_to_buf
libnixfetchers.so:git_diff_tree_to_index
libnixfetchers.so:git_diff_tree_to_tree
libnixfetchers.so:git_diff_tree_to_workdir
libnixfetchers.so:git_diff_tree_to_workdir_with_index
libnixfetchers.so:git_disable_pack_keep_file_checks
libnixfetchers.so:git_email__append_from_diff
libnixfetchers.so:git_email_create_from_commit
libnixfetchers.so:git_email_create_from_diff
libnixfetchers.so:git_encode_varint
libnixfetchers.so:git_error_clear
libnixfetchers.so:git_error_exists
libnixfetchers.so:git_error_free
libnixfetchers.so:git_error_global_init
libnixfetchers.so:git_error_last
libnixfetchers.so:git_error_restore
libnixfetchers.so:git_error_save
libnixfetchers.so:git_error_set
libnixfetchers.so:git_error_set_oom
libnixfetchers.so:git_error_set_str
libnixfetchers.so:git_error_system_last
libnixfetchers.so:git_error_system_set
libnixfetchers.so:git_error_vset
libnixfetchers.so:git_failalloc_free
libnixfetchers.so:git_failalloc_malloc
libnixfetchers.so:git_failalloc_realloc
libnixfetchers.so:git_fetch_download_pack
libnixfetchers.so:git_fetch_init_options
libnixfetchers.so:git_fetch_negotiate
libnixfetchers.so:git_fetch_options_init
libnixfetchers.so:git_fetchhead_ref_cmp
libnixfetchers.so:git_fetchhead_ref_create
libnixfetchers.so:git_fetchhead_ref_free
libnixfetchers.so:git_fetchhead_write
libnixfetchers.so:git_filebuf_cleanup
libnixfetchers.so:git_filebuf_commit
libnixfetchers.so:git_filebuf_commit_at
libnixfetchers.so:git_filebuf_flush
libnixfetchers.so:git_filebuf_hash
libnixfetchers.so:git_filebuf_open
libnixfetchers.so:git_filebuf_open_withsize
libnixfetchers.so:git_filebuf_printf
libnixfetchers.so:git_filebuf_reserve
libnixfetchers.so:git_filebuf_stats
libnixfetchers.so:git_filebuf_write
libnixfetchers.so:git_filter_buffered_stream_new
libnixfetchers.so:git_filter_free
libnixfetchers.so:git_filter_global_init
libnixfetchers.so:git_filter_init
libnixfetchers.so:git_filter_list__apply_to_blob
libnixfetchers.so:git_filter_list__apply_to_buffer
libnixfetchers.so:git_filter_list__apply_to_file
libnixfetchers.so:git_filter_list__convert_buf
libnixfetchers.so:git_filter_list__load
libnixfetchers.so:git_filter_list_apply_to_blob
libnixfetchers.so:git_filter_list_apply_to_buffer
libnixfetchers.so:git_filter_list_apply_to_data
libnixfetchers.so:git_filter_list_apply_to_file
libnixfetchers.so:git_filter_list_contains
libnixfetchers.so:git_filter_list_free
libnixfetchers.so:git_filter_list_length
libnixfetchers.so:git_filter_list_load
libnixfetchers.so:git_filter_list_load_ext
libnixfetchers.so:git_filter_list_new
libnixfetchers.so:git_filter_list_push
libnixfetchers.so:git_filter_list_stream_blob
libnixfetchers.so:git_filter_list_stream_buffer
libnixfetchers.so:git_filter_list_stream_data
libnixfetchers.so:git_filter_list_stream_file
libnixfetchers.so:git_filter_lookup
libnixfetchers.so:git_filter_register
libnixfetchers.so:git_filter_source_filemode
libnixfetchers.so:git_filter_source_flags
libnixfetchers.so:git_filter_source_id
libnixfetchers.so:git_filter_source_mode
libnixfetchers.so:git_filter_source_path
libnixfetchers.so:git_filter_source_repo
libnixfetchers.so:git_filter_unregister
libnixfetchers.so:git_fs_path__set_owner
libnixfetchers.so:git_fs_path_apply_relative
libnixfetchers.so:git_fs_path_basename
libnixfetchers.so:git_fs_path_basename_offset
libnixfetchers.so:git_fs_path_basename_r
libnixfetchers.so:git_fs_path_cmp
libnixfetchers.so:git_fs_path_common_dirlen
libnixfetchers.so:git_fs_path_contains
libnixfetchers.so:git_fs_path_contains_dir
libnixfetchers.so:git_fs_path_contains_file
libnixfetchers.so:git_fs_path_direach
libnixfetchers.so:git_fs_path_diriter_filename
libnixfetchers.so:git_fs_path_diriter_free
libnixfetchers.so:git_fs_path_diriter_fullpath
libnixfetchers.so:git_fs_path_diriter_init
libnixfetchers.so:git_fs_path_diriter_next
libnixfetchers.so:git_fs_path_diriter_stat
libnixfetchers.so:git_fs_path_dirlen
libnixfetchers.so:git_fs_path_dirload
libnixfetchers.so:git_fs_path_dirname
libnixfetchers.so:git_fs_path_dirname_r
libnixfetchers.so:git_fs_path_does_decompose_unicode
libnixfetchers.so:git_fs_path_exists
libnixfetchers.so:git_fs_path_find_dir
libnixfetchers.so:git_fs_path_find_executable
libnixfetchers.so:git_fs_path_from_url_or_path
libnixfetchers.so:git_fs_path_fromurl
libnixfetchers.so:git_fs_path_has_non_ascii
libnixfetchers.so:git_fs_path_is_empty_dir
libnixfetchers.so:git_fs_path_is_local_file_url
libnixfetchers.so:git_fs_path_isdir
libnixfetchers.so:git_fs_path_isfile
libnixfetchers.so:git_fs_path_islink
libnixfetchers.so:git_fs_path_join_unrooted
libnixfetchers.so:git_fs_path_lstat
libnixfetchers.so:git_fs_path_make_relative
libnixfetchers.so:git_fs_path_normalize_slashes
libnixfetchers.so:git_fs_path_owner_is
libnixfetchers.so:git_fs_path_owner_is_current_user
libnixfetchers.so:git_fs_path_owner_is_system
libnixfetchers.so:git_fs_path_prettify
libnixfetchers.so:git_fs_path_prettify_dir
libnixfetchers.so:git_fs_path_resolve_relative
libnixfetchers.so:git_fs_path_root
libnixfetchers.so:git_fs_path_set_error
libnixfetchers.so:git_fs_path_squash_slashes
libnixfetchers.so:git_fs_path_str_is_valid_ext
libnixfetchers.so:git_fs_path_string_to_dir
libnixfetchers.so:git_fs_path_supports_symlinks
libnixfetchers.so:git_fs_path_to_dir
libnixfetchers.so:git_fs_path_validate_str_length_with_suffix
libnixfetchers.so:git_fs_path_walk_up
libnixfetchers.so:git_futils_canonical_mode
libnixfetchers.so:git_futils_cp
libnixfetchers.so:git_futils_cp_r
libnixfetchers.so:git_futils_creat_locked
libnixfetchers.so:git_futils_creat_locked_withpath
libnixfetchers.so:git_futils_creat_withpath
libnixfetchers.so:git_futils_fake_symlink
libnixfetchers.so:git_futils_filesize
libnixfetchers.so:git_futils_filestamp_check
libnixfetchers.so:git_futils_filestamp_set
libnixfetchers.so:git_futils_filestamp_set_from_stat
libnixfetchers.so:git_futils_fsync_dir
libnixfetchers.so:git_futils_fsync_parent
libnixfetchers.so:git_futils_mkdir
libnixfetchers.so:git_futils_mkdir_r
libnixfetchers.so:git_futils_mkdir_relative
libnixfetchers.so:git_futils_mkpath2file
libnixfetchers.so:git_futils_mktmp
libnixfetchers.so:git_futils_mmap_free
libnixfetchers.so:git_futils_mmap_ro
libnixfetchers.so:git_futils_mmap_ro_file
libnixfetchers.so:git_futils_mv_withpath
libnixfetchers.so:git_futils_open_ro
libnixfetchers.so:git_futils_readbuffer
libnixfetchers.so:git_futils_readbuffer_fd
libnixfetchers.so:git_futils_readbuffer_fd_full
libnixfetchers.so:git_futils_readbuffer_updated
libnixfetchers.so:git_futils_rmdir_r
libnixfetchers.so:git_futils_touch
libnixfetchers.so:git_futils_truncate
libnixfetchers.so:git_futils_writebuffer
libnixfetchers.so:git_grafts_add
libnixfetchers.so:git_grafts_clear
libnixfetchers.so:git_grafts_free
libnixfetchers.so:git_grafts_get
libnixfetchers.so:git_grafts_new
libnixfetchers.so:git_grafts_oids
libnixfetchers.so:git_grafts_open
libnixfetchers.so:git_grafts_open_or_refresh
libnixfetchers.so:git_grafts_parse
libnixfetchers.so:git_grafts_refresh
libnixfetchers.so:git_grafts_remove
libnixfetchers.so:git_grafts_size
libnixfetchers.so:git_graph_ahead_behind
libnixfetchers.so:git_graph_descendant_of
libnixfetchers.so:git_graph_reachable_from_any
libnixfetchers.so:git_hash_buf
libnixfetchers.so:git_hash_ctx_cleanup
libnixfetchers.so:git_hash_ctx_init
libnixfetchers.so:git_hash_final
libnixfetchers.so:git_hash_fmt
libnixfetchers.so:git_hash_global_init
libnixfetchers.so:git_hash_init
libnixfetchers.so:git_hash_sha1_ctx_cleanup
libnixfetchers.so:git_hash_sha1_ctx_init
libnixfetchers.so:git_hash_sha1_final
libnixfetchers.so:git_hash_sha1_global_init
libnixfetchers.so:git_hash_sha1_init
libnixfetchers.so:git_hash_sha1_update
libnixfetchers.so:git_hash_sha256_ctx_cleanup
libnixfetchers.so:git_hash_sha256_ctx_init
libnixfetchers.so:git_hash_sha256_final
libnixfetchers.so:git_hash_sha256_global_init
libnixfetchers.so:git_hash_sha256_init
libnixfetchers.so:git_hash_sha256_update
libnixfetchers.so:git_hash_update
libnixfetchers.so:git_hash_vec
libnixfetchers.so:git_hashsig_compare
libnixfetchers.so:git_hashsig_create
libnixfetchers.so:git_hashsig_create_fromfile
libnixfetchers.so:git_hashsig_free
libnixfetchers.so:git_http__expect_continue
libnixfetchers.so:git_http_auth_basic
libnixfetchers.so:git_http_auth_dummy
libnixfetchers.so:git_http_auth_ntlm
libnixfetchers.so:git_http_client_free
libnixfetchers.so:git_http_client_has_response
libnixfetchers.so:git_http_client_new
libnixfetchers.so:git_http_client_read_body
libnixfetchers.so:git_http_client_read_response
libnixfetchers.so:git_http_client_send_body
libnixfetchers.so:git_http_client_send_request
libnixfetchers.so:git_http_client_set_options
libnixfetchers.so:git_http_client_skip_body
libnixfetchers.so:git_http_parser_execute
libnixfetchers.so:git_http_response_dispose
libnixfetchers.so:git_http_response_is_redirect
libnixfetchers.so:git_ident_filter_new
libnixfetchers.so:git_ignore__check_pathspec_for_exact_ignores
libnixfetchers.so:git_ignore__for_path
libnixfetchers.so:git_ignore__free
libnixfetchers.so:git_ignore__lookup
libnixfetchers.so:git_ignore__pop_dir
libnixfetchers.so:git_ignore__push_dir
libnixfetchers.so:git_ignore_add_rule
libnixfetchers.so:git_ignore_clear_internal_rules
libnixfetchers.so:git_ignore_path_is_ignored
libnixfetchers.so:git_index__create_mode
libnixfetchers.so:git_index__enforce_unsaved_safety
libnixfetchers.so:git_index__fill
libnixfetchers.so:git_index__find_pos
libnixfetchers.so:git_index__new
libnixfetchers.so:git_index__open
libnixfetchers.so:git_index__set_ignore_case
libnixfetchers.so:git_index_add
libnixfetchers.so:git_index_add_all
libnixfetchers.so:git_index_add_bypath
libnixfetchers.so:git_index_add_from_buffer
libnixfetchers.so:git_index_add_frombuffer
libnixfetchers.so:git_index_caps
libnixfetchers.so:git_index_checksum
libnixfetchers.so:git_index_clear
libnixfetchers.so:git_index_conflict_add
libnixfetchers.so:git_index_conflict_cleanup
libnixfetchers.so:git_index_conflict_get
libnixfetchers.so:git_index_conflict_iterator_free
libnixfetchers.so:git_index_conflict_iterator_new
libnixfetchers.so:git_index_conflict_next
libnixfetchers.so:git_index_conflict_remove
libnixfetchers.so:git_index_entry__init_from_stat
libnixfetchers.so:git_index_entry_cmp
libnixfetchers.so:git_index_entry_icmp
libnixfetchers.so:git_index_entry_is_conflict
libnixfetchers.so:git_index_entry_isrch
libnixfetchers.so:git_index_entry_srch
libnixfetchers.so:git_index_entry_stage
libnixfetchers.so:git_index_entrycount
libnixfetchers.so:git_index_entrymap_clear
libnixfetchers.so:git_index_entrymap_dispose
libnixfetchers.so:git_index_entrymap_get
libnixfetchers.so:git_index_entrymap_put
libnixfetchers.so:git_index_entrymap_remove
libnixfetchers.so:git_index_entrymap_resize
libnixfetchers.so:git_index_entrymap_swap
libnixfetchers.so:git_index_find
libnixfetchers.so:git_index_find_prefix
libnixfetchers.so:git_index_free
libnixfetchers.so:git_index_get_byindex
libnixfetchers.so:git_index_get_bypath
libnixfetchers.so:git_index_has_conflicts
libnixfetchers.so:git_index_iterator_free
libnixfetchers.so:git_index_iterator_new
libnixfetchers.so:git_index_iterator_next
libnixfetchers.so:git_index_name_add
libnixfetchers.so:git_index_name_clear
libnixfetchers.so:git_index_name_entrycount
libnixfetchers.so:git_index_name_get_byindex
libnixfetchers.so:git_index_new
libnixfetchers.so:git_index_open
libnixfetchers.so:git_index_owner
libnixfetchers.so:git_index_path
libnixfetchers.so:git_index_read
libnixfetchers.so:git_index_read_index
libnixfetchers.so:git_index_read_safely
libnixfetchers.so:git_index_read_tree
libnixfetchers.so:git_index_remove
libnixfetchers.so:git_index_remove_all
libnixfetchers.so:git_index_remove_bypath
libnixfetchers.so:git_index_remove_directory
libnixfetchers.so:git_index_reuc_add
libnixfetchers.so:git_index_reuc_clear
libnixfetchers.so:git_index_reuc_entrycount
libnixfetchers.so:git_index_reuc_find
libnixfetchers.so:git_index_reuc_get_byindex
libnixfetchers.so:git_index_reuc_get_bypath
libnixfetchers.so:git_index_reuc_remove
libnixfetchers.so:git_index_set_caps
libnixfetchers.so:git_index_set_version
libnixfetchers.so:git_index_snapshot_find
libnixfetchers.so:git_index_snapshot_new
libnixfetchers.so:git_index_snapshot_release
libnixfetchers.so:git_index_update_all
libnixfetchers.so:git_index_version
libnixfetchers.so:git_index_write
libnixfetchers.so:git_index_write_tree
libnixfetchers.so:git_index_write_tree_to
libnixfetchers.so:git_indexer__max_objects
libnixfetchers.so:git_indexer__set_fsync
libnixfetchers.so:git_indexer_append
libnixfetchers.so:git_indexer_commit
libnixfetchers.so:git_indexer_free
libnixfetchers.so:git_indexer_hash
libnixfetchers.so:git_indexer_init_options
libnixfetchers.so:git_indexer_name
libnixfetchers.so:git_indexer_new
libnixfetchers.so:git_indexer_options_init
libnixfetchers.so:git_indexwriter_cleanup
libnixfetchers.so:git_indexwriter_commit
libnixfetchers.so:git_indexwriter_init
libnixfetchers.so:git_indexwriter_init_for_operation
libnixfetchers.so:git_iterator_current_is_ignored
libnixfetchers.so:git_iterator_current_parent_tree
libnixfetchers.so:git_iterator_current_tree_entry
libnixfetchers.so:git_iterator_current_tree_is_ignored
libnixfetchers.so:git_iterator_current_workdir_path
libnixfetchers.so:git_iterator_for_filesystem
libnixfetchers.so:git_iterator_for_index
libnixfetchers.so:git_iterator_for_nothing
libnixfetchers.so:git_iterator_for_tree
libnixfetchers.so:git_iterator_for_workdir_ext
libnixfetchers.so:git_iterator_foreach
libnixfetchers.so:git_iterator_free
libnixfetchers.so:git_iterator_reset_range
libnixfetchers.so:git_iterator_set_ignore_case
libnixfetchers.so:git_iterator_walk
libnixfetchers.so:git_libgit2_feature_backend
libnixfetchers.so:git_libgit2_features
libnixfetchers.so:git_libgit2_init
libnixfetchers.so:git_libgit2_opts
libnixfetchers.so:git_libgit2_prerelease
libnixfetchers.so:git_libgit2_shutdown
libnixfetchers.so:git_libgit2_version
libnixfetchers.so:git_mailmap_add_entry
libnixfetchers.so:git_mailmap_entry_lookup
libnixfetchers.so:git_mailmap_free
libnixfetchers.so:git_mailmap_from_buffer
libnixfetchers.so:git_mailmap_from_repository
libnixfetchers.so:git_mailmap_new
libnixfetchers.so:git_mailmap_resolve
libnixfetchers.so:git_mailmap_resolve_signature
libnixfetchers.so:git_mbedtls_stream_global_init
libnixfetchers.so:git_mempack_dump
libnixfetchers.so:git_mempack_new
libnixfetchers.so:git_mempack_object_count
libnixfetchers.so:git_mempack_reset
libnixfetchers.so:git_mempack_write_thin_pack
libnixfetchers.so:git_merge
libnixfetchers.so:git_merge__append_conflicts_to_merge_msg
libnixfetchers.so:git_merge__bases_many
libnixfetchers.so:git_merge__check_result
libnixfetchers.so:git_merge__iterators
libnixfetchers.so:git_merge__setup
libnixfetchers.so:git_merge_analysis
libnixfetchers.so:git_merge_analysis_for_ref
libnixfetchers.so:git_merge_base
libnixfetchers.so:git_merge_base_many
libnixfetchers.so:git_merge_base_octopus
libnixfetchers.so:git_merge_bases
libnixfetchers.so:git_merge_bases_many
libnixfetchers.so:git_merge_commits
libnixfetchers.so:git_merge_diff_list__alloc
libnixfetchers.so:git_merge_diff_list__find_differences
libnixfetchers.so:git_merge_diff_list__find_renames
libnixfetchers.so:git_merge_diff_list__free
libnixfetchers.so:git_merge_driver__binary
libnixfetchers.so:git_merge_driver__builtin_apply
libnixfetchers.so:git_merge_driver__text
libnixfetchers.so:git_merge_driver__union
libnixfetchers.so:git_merge_driver_for_source
libnixfetchers.so:git_merge_driver_global_init
libnixfetchers.so:git_merge_driver_lookup
libnixfetchers.so:git_merge_driver_register
libnixfetchers.so:git_merge_driver_source_ancestor
libnixfetchers.so:git_merge_driver_source_file_options
libnixfetchers.so:git_merge_driver_source_ours
libnixfetchers.so:git_merge_driver_source_repo
libnixfetchers.so:git_merge_driver_source_theirs
libnixfetchers.so:git_merge_driver_unregister
libnixfetchers.so:git_merge_file
libnixfetchers.so:git_merge_file_from_index
libnixfetchers.so:git_merge_file_init_input
libnixfetchers.so:git_merge_file_init_options
libnixfetchers.so:git_merge_file_input_init
libnixfetchers.so:git_merge_file_options_init
libnixfetchers.so:git_merge_file_result_free
libnixfetchers.so:git_merge_init_options
libnixfetchers.so:git_merge_options_init
libnixfetchers.so:git_merge_trees
libnixfetchers.so:git_midx_close
libnixfetchers.so:git_midx_entry_find
libnixfetchers.so:git_midx_foreach_entry
libnixfetchers.so:git_midx_free
libnixfetchers.so:git_midx_needs_refresh
libnixfetchers.so:git_midx_open
libnixfetchers.so:git_midx_parse
libnixfetchers.so:git_midx_writer_add
libnixfetchers.so:git_midx_writer_commit
libnixfetchers.so:git_midx_writer_dump
libnixfetchers.so:git_midx_writer_free
libnixfetchers.so:git_midx_writer_new
libnixfetchers.so:git_mwindow__file_limit
libnixfetchers.so:git_mwindow__mapped_limit
libnixfetchers.so:git_mwindow__mem_ctl
libnixfetchers.so:git_mwindow__mutex
libnixfetchers.so:git_mwindow__pack_cache
libnixfetchers.so:git_mwindow__window_size
libnixfetchers.so:git_mwindow_close
libnixfetchers.so:git_mwindow_contains
libnixfetchers.so:git_mwindow_file_deregister
libnixfetchers.so:git_mwindow_file_register
libnixfetchers.so:git_mwindow_free_all
libnixfetchers.so:git_mwindow_get_pack
libnixfetchers.so:git_mwindow_global_init
libnixfetchers.so:git_mwindow_open
libnixfetchers.so:git_mwindow_packmap_clear
libnixfetchers.so:git_mwindow_packmap_contains
libnixfetchers.so:git_mwindow_packmap_dispose
libnixfetchers.so:git_mwindow_packmap_foreach
libnixfetchers.so:git_mwindow_packmap_get
libnixfetchers.so:git_mwindow_packmap_iterate
libnixfetchers.so:git_mwindow_packmap_put
libnixfetchers.so:git_mwindow_packmap_remove
libnixfetchers.so:git_mwindow_packmap_size
libnixfetchers.so:git_mwindow_put_pack
libnixfetchers.so:git_net_hostname_matches_cert
libnixfetchers.so:git_net_str_is_url
libnixfetchers.so:git_net_url_apply_redirect
libnixfetchers.so:git_net_url_dispose
libnixfetchers.so:git_net_url_dup
libnixfetchers.so:git_net_url_fmt
libnixfetchers.so:git_net_url_fmt_path
libnixfetchers.so:git_net_url_is_default_port
libnixfetchers.so:git_net_url_is_ipv6
libnixfetchers.so:git_net_url_joinpath
libnixfetchers.so:git_net_url_matches_pattern
libnixfetchers.so:git_net_url_matches_pattern_list
libnixfetchers.so:git_net_url_parse
libnixfetchers.so:git_net_url_parse_http
libnixfetchers.so:git_net_url_parse_scp
libnixfetchers.so:git_net_url_parse_standard_or_scp
libnixfetchers.so:git_net_url_swap
libnixfetchers.so:git_net_url_valid
libnixfetchers.so:git_object__free
libnixfetchers.so:git_object__from_odb_object
libnixfetchers.so:git_object__from_raw
libnixfetchers.so:git_object__init_from_odb_object
libnixfetchers.so:git_object__is_valid
libnixfetchers.so:git_object__parse_oid_header
libnixfetchers.so:git_object__size
libnixfetchers.so:git_object__strict_input_validation
libnixfetchers.so:git_object__write_oid_header
libnixfetchers.so:git_object_dup
libnixfetchers.so:git_object_free
libnixfetchers.so:git_object_id
libnixfetchers.so:git_object_lookup
libnixfetchers.so:git_object_lookup_bypath
libnixfetchers.so:git_object_lookup_prefix
libnixfetchers.so:git_object_owner
libnixfetchers.so:git_object_peel
libnixfetchers.so:git_object_rawcontent_is_valid
libnixfetchers.so:git_object_short_id
libnixfetchers.so:git_object_string2type
libnixfetchers.so:git_object_stringn2type
libnixfetchers.so:git_object_type
libnixfetchers.so:git_object_type2string
libnixfetchers.so:git_object_typeisloose
libnixfetchers.so:git_odb__add_default_backends
libnixfetchers.so:git_odb__backend_loose
libnixfetchers.so:git_odb__error_ambiguous
libnixfetchers.so:git_odb__error_mismatch
libnixfetchers.so:git_odb__error_notfound
libnixfetchers.so:git_odb__format_object_header
libnixfetchers.so:git_odb__freshen
libnixfetchers.so:git_odb__get_commit_graph_file
libnixfetchers.so:git_odb__hash
libnixfetchers.so:git_odb__hashfd
libnixfetchers.so:git_odb__hashfd_filtered
libnixfetchers.so:git_odb__hashfile
libnixfetchers.so:git_odb__hashlink
libnixfetchers.so:git_odb__hashobj
libnixfetchers.so:git_odb__loose_priority
libnixfetchers.so:git_odb__new
libnixfetchers.so:git_odb__open
libnixfetchers.so:git_odb__packed_priority
libnixfetchers.so:git_odb__read_header_or_object
libnixfetchers.so:git_odb__set_caps
libnixfetchers.so:git_odb__strict_hash_verification
libnixfetchers.so:git_odb_add_alternate
libnixfetchers.so:git_odb_add_backend
libnixfetchers.so:git_odb_add_disk_alternate
libnixfetchers.so:git_odb_backend_data_alloc
libnixfetchers.so:git_odb_backend_data_free
libnixfetchers.so:git_odb_backend_loose
libnixfetchers.so:git_odb_backend_malloc
libnixfetchers.so:git_odb_backend_one_pack
libnixfetchers.so:git_odb_backend_pack
libnixfetchers.so:git_odb_exists
libnixfetchers.so:git_odb_exists_ext
libnixfetchers.so:git_odb_exists_prefix
libnixfetchers.so:git_odb_expand_ids
libnixfetchers.so:git_odb_foreach
libnixfetchers.so:git_odb_free
libnixfetchers.so:git_odb_get_backend
libnixfetchers.so:git_odb_hash
libnixfetchers.so:git_odb_hashfile
libnixfetchers.so:git_odb_init_backend
libnixfetchers.so:git_odb_new
libnixfetchers.so:git_odb_num_backends
libnixfetchers.so:git_odb_object__free
libnixfetchers.so:git_odb_object_data
libnixfetchers.so:git_odb_object_dup
libnixfetchers.so:git_odb_object_free
libnixfetchers.so:git_odb_object_id
libnixfetchers.so:git_odb_object_size
libnixfetchers.so:git_odb_object_type
libnixfetchers.so:git_odb_open
libnixfetchers.so:git_odb_open_rstream
libnixfetchers.so:git_odb_open_wstream
libnixfetchers.so:git_odb_read
libnixfetchers.so:git_odb_read_header
libnixfetchers.so:git_odb_read_prefix
libnixfetchers.so:git_odb_refresh
libnixfetchers.so:git_odb_set_commit_graph
libnixfetchers.so:git_odb_stream_finalize_write
libnixfetchers.so:git_odb_stream_free
libnixfetchers.so:git_odb_stream_read
libnixfetchers.so:git_odb_stream_write
libnixfetchers.so:git_odb_write
libnixfetchers.so:git_odb_write_multi_pack_index
libnixfetchers.so:git_odb_write_pack
libnixfetchers.so:git_oid__empty_blob_sha1
libnixfetchers.so:git_oid__empty_tree_sha1
libnixfetchers.so:git_oid__fromraw
libnixfetchers.so:git_oid__fromstr
libnixfetchers.so:git_oid__fromstrn
libnixfetchers.so:git_oid__fromstrp
libnixfetchers.so:git_oid_allocfmt
libnixfetchers.so:git_oid_cmp
libnixfetchers.so:git_oid_cpy
libnixfetchers.so:git_oid_equal
libnixfetchers.so:git_oid_fmt
libnixfetchers.so:git_oid_fromraw
libnixfetchers.so:git_oid_fromstr
libnixfetchers.so:git_oid_fromstrn
libnixfetchers.so:git_oid_fromstrp
libnixfetchers.so:git_oid_global_init
libnixfetchers.so:git_oid_is_zero
libnixfetchers.so:git_oid_iszero
libnixfetchers.so:git_oid_ncmp
libnixfetchers.so:git_oid_nfmt
libnixfetchers.so:git_oid_pathfmt
libnixfetchers.so:git_oid_shorten_add
libnixfetchers.so:git_oid_shorten_free
libnixfetchers.so:git_oid_shorten_new
libnixfetchers.so:git_oid_strcmp
libnixfetchers.so:git_oid_streq
libnixfetchers.so:git_oid_tostr
libnixfetchers.so:git_oid_tostr_s
libnixfetchers.so:git_oidarray__add
libnixfetchers.so:git_oidarray__from_array
libnixfetchers.so:git_oidarray__remove
libnixfetchers.so:git_oidarray__reverse
libnixfetchers.so:git_oidarray__to_array
libnixfetchers.so:git_oidarray_dispose
libnixfetchers.so:git_oidarray_free
libnixfetchers.so:git_openssl__add_x509_cert
libnixfetchers.so:git_openssl__reset_context
libnixfetchers.so:git_openssl__set_cert_location
libnixfetchers.so:git_openssl_set_locking
libnixfetchers.so:git_openssl_stream_global_init
libnixfetchers.so:git_openssl_stream_new
libnixfetchers.so:git_openssl_stream_wrap
libnixfetchers.so:git_pack__lookup_id
libnixfetchers.so:git_pack_entry_find
libnixfetchers.so:git_pack_foreach_entry
libnixfetchers.so:git_pack_foreach_entry_offset
libnixfetchers.so:git_pack_oidmap_clear
libnixfetchers.so:git_pack_oidmap_contains
libnixfetchers.so:git_pack_oidmap_dispose
libnixfetchers.so:git_pack_oidmap_foreach
libnixfetchers.so:git_pack_oidmap_get
libnixfetchers.so:git_pack_oidmap_iterate
libnixfetchers.so:git_pack_oidmap_put
libnixfetchers.so:git_pack_oidmap_remove
libnixfetchers.so:git_pack_oidmap_size
libnixfetchers.so:git_packbuilder__prepare
libnixfetchers.so:git_packbuilder__write_buf
libnixfetchers.so:git_packbuilder_foreach
libnixfetchers.so:git_packbuilder_free
libnixfetchers.so:git_packbuilder_hash
libnixfetchers.so:git_packbuilder_insert
libnixfetchers.so:git_packbuilder_insert_commit
libnixfetchers.so:git_packbuilder_insert_recur
libnixfetchers.so:git_packbuilder_insert_tree
libnixfetchers.so:git_packbuilder_insert_walk
libnixfetchers.so:git_packbuilder_name
libnixfetchers.so:git_packbuilder_new
libnixfetchers.so:git_packbuilder_object_count
libnixfetchers.so:git_packbuilder_set_callbacks
libnixfetchers.so:git_packbuilder_set_threads
libnixfetchers.so:git_packbuilder_write
libnixfetchers.so:git_packbuilder_write_buf
libnixfetchers.so:git_packbuilder_written
libnixfetchers.so:git_packfile__name
libnixfetchers.so:git_packfile__object_header
libnixfetchers.so:git_packfile_alloc
libnixfetchers.so:git_packfile_free
libnixfetchers.so:git_packfile_resolve_header
libnixfetchers.so:git_packfile_stream_dispose
libnixfetchers.so:git_packfile_stream_open
libnixfetchers.so:git_packfile_stream_read
libnixfetchers.so:git_packfile_unpack
libnixfetchers.so:git_packfile_unpack_header
libnixfetchers.so:git_parse_advance_chars
libnixfetchers.so:git_parse_advance_digit
libnixfetchers.so:git_parse_advance_expected
libnixfetchers.so:git_parse_advance_line
libnixfetchers.so:git_parse_advance_nl
libnixfetchers.so:git_parse_advance_oid
libnixfetchers.so:git_parse_advance_ws
libnixfetchers.so:git_parse_ctx_clear
libnixfetchers.so:git_parse_ctx_init
libnixfetchers.so:git_parse_peek
libnixfetchers.so:git_patch__invoke_callbacks
libnixfetchers.so:git_patch__to_buf
libnixfetchers.so:git_patch_free
libnixfetchers.so:git_patch_from_blob_and_buffer
libnixfetchers.so:git_patch_from_blobs
libnixfetchers.so:git_patch_from_buffers
libnixfetchers.so:git_patch_from_diff
libnixfetchers.so:git_patch_generated_driver
libnixfetchers.so:git_patch_generated_from_diff
libnixfetchers.so:git_patch_generated_new_data
libnixfetchers.so:git_patch_generated_old_data
libnixfetchers.so:git_patch_get_delta
libnixfetchers.so:git_patch_get_hunk
libnixfetchers.so:git_patch_get_line_in_hunk
libnixfetchers.so:git_patch_line_stats
libnixfetchers.so:git_patch_num_hunks
libnixfetchers.so:git_patch_num_lines_in_hunk
libnixfetchers.so:git_patch_owner
libnixfetchers.so:git_patch_print
libnixfetchers.so:git_patch_size
libnixfetchers.so:git_patch_to_buf
libnixfetchers.so:git_path_is_gitfile
libnixfetchers.so:git_path_str_is_valid
libnixfetchers.so:git_pathspec__clear
libnixfetchers.so:git_pathspec__init
libnixfetchers.so:git_pathspec__match
libnixfetchers.so:git_pathspec__vfree
libnixfetchers.so:git_pathspec__vinit
libnixfetchers.so:git_pathspec_free
libnixfetchers.so:git_pathspec_is_empty
libnixfetchers.so:git_pathspec_match_diff
libnixfetchers.so:git_pathspec_match_index
libnixfetchers.so:git_pathspec_match_list_diff_entry
libnixfetchers.so:git_pathspec_match_list_entry
libnixfetchers.so:git_pathspec_match_list_entrycount
libnixfetchers.so:git_pathspec_match_list_failed_entry
libnixfetchers.so:git_pathspec_match_list_failed_entrycount
libnixfetchers.so:git_pathspec_match_list_free
libnixfetchers.so:git_pathspec_match_tree
libnixfetchers.so:git_pathspec_match_workdir
libnixfetchers.so:git_pathspec_matches_path
libnixfetchers.so:git_pathspec_new
libnixfetchers.so:git_pathspec_prefix
libnixfetchers.so:git_pkt_buffer_done
libnixfetchers.so:git_pkt_buffer_flush
libnixfetchers.so:git_pkt_buffer_have
libnixfetchers.so:git_pkt_buffer_wants
libnixfetchers.so:git_pkt_free
libnixfetchers.so:git_pkt_parse_line
libnixfetchers.so:git_pool__open_pages
libnixfetchers.so:git_pool__ptr_in_pool
libnixfetchers.so:git_pool_clear
libnixfetchers.so:git_pool_global_init
libnixfetchers.so:git_pool_init
libnixfetchers.so:git_pool_malloc
libnixfetchers.so:git_pool_mallocz
libnixfetchers.so:git_pool_strcat
libnixfetchers.so:git_pool_strdup
libnixfetchers.so:git_pool_strdup_safe
libnixfetchers.so:git_pool_strndup
libnixfetchers.so:git_pool_swap
libnixfetchers.so:git_pqueue_init
libnixfetchers.so:git_pqueue_insert
libnixfetchers.so:git_pqueue_pop
libnixfetchers.so:git_proxy_init_options
libnixfetchers.so:git_proxy_options_dispose
libnixfetchers.so:git_proxy_options_dup
libnixfetchers.so:git_proxy_options_init
libnixfetchers.so:git_push_add_refspec
libnixfetchers.so:git_push_finish
libnixfetchers.so:git_push_free
libnixfetchers.so:git_push_init_options
libnixfetchers.so:git_push_new
libnixfetchers.so:git_push_options_init
libnixfetchers.so:git_push_status_foreach
libnixfetchers.so:git_push_status_free
libnixfetchers.so:git_push_update_tips
libnixfetchers.so:git_rand_global_init
libnixfetchers.so:git_rand_next
libnixfetchers.so:git_rand_seed
libnixfetchers.so:git_refdb__free
libnixfetchers.so:git_refdb_backend_fs
libnixfetchers.so:git_refdb_compress
libnixfetchers.so:git_refdb_delete
libnixfetchers.so:git_refdb_ensure_log
libnixfetchers.so:git_refdb_exists
libnixfetchers.so:git_refdb_free
libnixfetchers.so:git_refdb_has_log
libnixfetchers.so:git_refdb_init_backend
libnixfetchers.so:git_refdb_iterator
libnixfetchers.so:git_refdb_iterator_free
libnixfetchers.so:git_refdb_iterator_next
libnixfetchers.so:git_refdb_iterator_next_name
libnixfetchers.so:git_refdb_lock
libnixfetchers.so:git_refdb_lookup
libnixfetchers.so:git_refdb_new
libnixfetchers.so:git_refdb_open
libnixfetchers.so:git_refdb_reflog_read
libnixfetchers.so:git_refdb_rename
libnixfetchers.so:git_refdb_resolve
libnixfetchers.so:git_refdb_set_backend
libnixfetchers.so:git_refdb_should_write_head_reflog
libnixfetchers.so:git_refdb_should_write_reflog
libnixfetchers.so:git_refdb_unlock
libnixfetchers.so:git_refdb_write
libnixfetchers.so:git_reference__alloc
libnixfetchers.so:git_reference__alloc_symbolic
libnixfetchers.so:git_reference__cmp_cb
libnixfetchers.so:git_reference__enable_symbolic_ref_target_validation
libnixfetchers.so:git_reference__is_branch
libnixfetchers.so:git_reference__is_note
libnixfetchers.so:git_reference__is_remote
libnixfetchers.so:git_reference__is_tag
libnixfetchers.so:git_reference__is_unborn_head
libnixfetchers.so:git_reference__log_signature
libnixfetchers.so:git_reference__name_is_valid
libnixfetchers.so:git_reference__normalize_name
libnixfetchers.so:git_reference__realloc
libnixfetchers.so:git_reference__shorthand
libnixfetchers.so:git_reference__update_for_commit
libnixfetchers.so:git_reference__update_terminal
libnixfetchers.so:git_reference_cmp
libnixfetchers.so:git_reference_create
libnixfetchers.so:git_reference_create_matching
libnixfetchers.so:git_reference_delete
libnixfetchers.so:git_reference_dup
libnixfetchers.so:git_reference_dwim
libnixfetchers.so:git_reference_ensure_log
libnixfetchers.so:git_reference_foreach
libnixfetchers.so:git_reference_foreach_glob
libnixfetchers.so:git_reference_foreach_name
libnixfetchers.so:git_reference_free
libnixfetchers.so:git_reference_has_log
libnixfetchers.so:git_reference_is_branch
libnixfetchers.so:git_reference_is_note
libnixfetchers.so:git_reference_is_remote
libnixfetchers.so:git_reference_is_tag
libnixfetchers.so:git_reference_is_valid_name
libnixfetchers.so:git_reference_iterator_free
libnixfetchers.so:git_reference_iterator_glob_new
libnixfetchers.so:git_reference_iterator_new
libnixfetchers.so:git_reference_list
libnixfetchers.so:git_reference_lookup
libnixfetchers.so:git_reference_lookup_resolved
libnixfetchers.so:git_reference_name
libnixfetchers.so:git_reference_name_is_valid
libnixfetchers.so:git_reference_name_to_id
libnixfetchers.so:git_reference_next
libnixfetchers.so:git_reference_next_name
libnixfetchers.so:git_reference_normalize_name
libnixfetchers.so:git_reference_owner
libnixfetchers.so:git_reference_peel
libnixfetchers.so:git_reference_remove
libnixfetchers.so:git_reference_rename
libnixfetchers.so:git_reference_resolve
libnixfetchers.so:git_reference_set_target
libnixfetchers.so:git_reference_shorthand
libnixfetchers.so:git_reference_symbolic_create
libnixfetchers.so:git_reference_symbolic_create_matching
libnixfetchers.so:git_reference_symbolic_set_target
libnixfetchers.so:git_reference_symbolic_target
libnixfetchers.so:git_reference_target
libnixfetchers.so:git_reference_target_peel
libnixfetchers.so:git_reference_type
libnixfetchers.so:git_reflog_append
libnixfetchers.so:git_reflog_delete
libnixfetchers.so:git_reflog_drop
libnixfetchers.so:git_reflog_entry__free
libnixfetchers.so:git_reflog_entry_byindex
libnixfetchers.so:git_reflog_entry_committer
libnixfetchers.so:git_reflog_entry_id_new
libnixfetchers.so:git_reflog_entry_id_old
libnixfetchers.so:git_reflog_entry_message
libnixfetchers.so:git_reflog_entrycount
libnixfetchers.so:git_reflog_free
libnixfetchers.so:git_reflog_read
libnixfetchers.so:git_reflog_rename
libnixfetchers.so:git_reflog_write
libnixfetchers.so:git_refspec__dispose
libnixfetchers.so:git_refspec__dwim_one
libnixfetchers.so:git_refspec__parse
libnixfetchers.so:git_refspec__rtransform
libnixfetchers.so:git_refspec__serialize
libnixfetchers.so:git_refspec__transform
libnixfetchers.so:git_refspec_direction
libnixfetchers.so:git_refspec_dst
libnixfetchers.so:git_refspec_dst_matches
libnixfetchers.so:git_refspec_force
libnixfetchers.so:git_refspec_free
libnixfetchers.so:git_refspec_is_negative
libnixfetchers.so:git_refspec_is_wildcard
libnixfetchers.so:git_refspec_parse
libnixfetchers.so:git_refspec_rtransform
libnixfetchers.so:git_refspec_src
libnixfetchers.so:git_refspec_src_matches
libnixfetchers.so:git_refspec_src_matches_negative
libnixfetchers.so:git_refspec_string
libnixfetchers.so:git_refspec_transform
libnixfetchers.so:git_regexp_compile
libnixfetchers.so:git_regexp_dispose
libnixfetchers.so:git_regexp_match
libnixfetchers.so:git_regexp_search
libnixfetchers.so:git_remote__default_branch
libnixfetchers.so:git_remote__http_proxy
libnixfetchers.so:git_remote__matching_dst_refspec
libnixfetchers.so:git_remote__matching_refspec
libnixfetchers.so:git_remote__urlfordirection
libnixfetchers.so:git_remote_add_fetch
libnixfetchers.so:git_remote_add_push
libnixfetchers.so:git_remote_autotag
libnixfetchers.so:git_remote_capabilities
libnixfetchers.so:git_remote_connect
libnixfetchers.so:git_remote_connect_ext
libnixfetchers.so:git_remote_connect_options_dispose
libnixfetchers.so:git_remote_connect_options_dup
libnixfetchers.so:git_remote_connect_options_init
libnixfetchers.so:git_remote_connect_options_normalize
libnixfetchers.so:git_remote_connected
libnixfetchers.so:git_remote_create
libnixfetchers.so:git_remote_create_anonymous
libnixfetchers.so:git_remote_create_detached
libnixfetchers.so:git_remote_create_init_options
libnixfetchers.so:git_remote_create_options_init
libnixfetchers.so:git_remote_create_with_fetchspec
libnixfetchers.so:git_remote_create_with_opts
libnixfetchers.so:git_remote_default_branch
libnixfetchers.so:git_remote_delete
libnixfetchers.so:git_remote_disconnect
libnixfetchers.so:git_remote_download
libnixfetchers.so:git_remote_dup
libnixfetchers.so:git_remote_fetch
libnixfetchers.so:git_remote_free
libnixfetchers.so:git_remote_get_fetch_refspecs
libnixfetchers.so:git_remote_get_push_refspecs
libnixfetchers.so:git_remote_get_refspec
libnixfetchers.so:git_remote_init_callbacks
libnixfetchers.so:git_remote_is_valid_name
libnixfetchers.so:git_remote_list
libnixfetchers.so:git_remote_lookup
libnixfetchers.so:git_remote_ls
libnixfetchers.so:git_remote_name
libnixfetchers.so:git_remote_name_is_valid
libnixfetchers.so:git_remote_oid_type
libnixfetchers.so:git_remote_owner
libnixfetchers.so:git_remote_prune
libnixfetchers.so:git_remote_prune_refs
libnixfetchers.so:git_remote_push
libnixfetchers.so:git_remote_pushurl
libnixfetchers.so:git_remote_refspec_count
libnixfetchers.so:git_remote_rename
libnixfetchers.so:git_remote_set_autotag
libnixfetchers.so:git_remote_set_instance_pushurl
libnixfetchers.so:git_remote_set_instance_url
libnixfetchers.so:git_remote_set_pushurl
libnixfetchers.so:git_remote_set_url
libnixfetchers.so:git_remote_stats
libnixfetchers.so:git_remote_stop
libnixfetchers.so:git_remote_update_tips
libnixfetchers.so:git_remote_upload
libnixfetchers.so:git_remote_url
libnixfetchers.so:git_repository__abbrev_length
libnixfetchers.so:git_repository__cleanup
libnixfetchers.so:git_repository__cleanup_files
libnixfetchers.so:git_repository__configmap_lookup
libnixfetchers.so:git_repository__configmap_lookup_cache_clear
libnixfetchers.so:git_repository__extensions
libnixfetchers.so:git_repository__free_extensions
libnixfetchers.so:git_repository__fsync_gitdir
libnixfetchers.so:git_repository__item_path
libnixfetchers.so:git_repository__new
libnixfetchers.so:git_repository__reserved_names
libnixfetchers.so:git_repository__reserved_names_posix
libnixfetchers.so:git_repository__reserved_names_posix_len
libnixfetchers.so:git_repository__reserved_names_win32
libnixfetchers.so:git_repository__reserved_names_win32_len
libnixfetchers.so:git_repository__set_extensions
libnixfetchers.so:git_repository__set_objectformat
libnixfetchers.so:git_repository__set_orig_head
libnixfetchers.so:git_repository__shallow_roots
libnixfetchers.so:git_repository__shallow_roots_write
libnixfetchers.so:git_repository__validate_ownership
libnixfetchers.so:git_repository_commit_parents
libnixfetchers.so:git_repository_commondir
libnixfetchers.so:git_repository_config
libnixfetchers.so:git_repository_config__weakptr
libnixfetchers.so:git_repository_config_snapshot
libnixfetchers.so:git_repository_create_head
libnixfetchers.so:git_repository_detach_head
libnixfetchers.so:git_repository_discover
libnixfetchers.so:git_repository_fetchhead_foreach
libnixfetchers.so:git_repository_foreach_worktree
libnixfetchers.so:git_repository_free
libnixfetchers.so:git_repository_get_namespace
libnixfetchers.so:git_repository_grafts__weakptr
libnixfetchers.so:git_repository_hashfile
libnixfetchers.so:git_repository_head
libnixfetchers.so:git_repository_head_commit
libnixfetchers.so:git_repository_head_detached
libnixfetchers.so:git_repository_head_detached_for_worktree
libnixfetchers.so:git_repository_head_for_worktree
libnixfetchers.so:git_repository_head_tree
libnixfetchers.so:git_repository_head_unborn
libnixfetchers.so:git_repository_ident
libnixfetchers.so:git_repository_index
libnixfetchers.so:git_repository_index__weakptr
libnixfetchers.so:git_repository_init
libnixfetchers.so:git_repository_init_ext
libnixfetchers.so:git_repository_init_init_options
libnixfetchers.so:git_repository_init_options_init
libnixfetchers.so:git_repository_initialbranch
libnixfetchers.so:git_repository_is_bare
libnixfetchers.so:git_repository_is_empty
libnixfetchers.so:git_repository_is_shallow
libnixfetchers.so:git_repository_is_worktree
libnixfetchers.so:git_repository_item_path
libnixfetchers.so:git_repository_mergehead_foreach
libnixfetchers.so:git_repository_message
libnixfetchers.so:git_repository_message_remove
libnixfetchers.so:git_repository_new
libnixfetchers.so:git_repository_odb
libnixfetchers.so:git_repository_odb__weakptr
libnixfetchers.so:git_repository_oid_type
libnixfetchers.so:git_repository_open
libnixfetchers.so:git_repository_open_bare
libnixfetchers.so:git_repository_open_ext
libnixfetchers.so:git_repository_open_from_worktree
libnixfetchers.so:git_repository_path
libnixfetchers.so:git_repository_refdb
libnixfetchers.so:git_repository_refdb__weakptr
libnixfetchers.so:git_repository_reinit_filesystem
libnixfetchers.so:git_repository_set_bare
libnixfetchers.so:git_repository_set_config
libnixfetchers.so:git_repository_set_head
libnixfetchers.so:git_repository_set_head_detached
libnixfetchers.so:git_repository_set_head_detached_from_annotated
libnixfetchers.so:git_repository_set_ident
libnixfetchers.so:git_repository_set_index
libnixfetchers.so:git_repository_set_namespace
libnixfetchers.so:git_repository_set_odb
libnixfetchers.so:git_repository_set_refdb
libnixfetchers.so:git_repository_set_workdir
libnixfetchers.so:git_repository_shallow_grafts__weakptr
libnixfetchers.so:git_repository_state
libnixfetchers.so:git_repository_state_cleanup
libnixfetchers.so:git_repository_submodule_cache_all
libnixfetchers.so:git_repository_submodule_cache_clear
libnixfetchers.so:git_repository_workdir
libnixfetchers.so:git_repository_workdir_path
libnixfetchers.so:git_repository_wrap_odb
libnixfetchers.so:git_revparse
libnixfetchers.so:git_revparse_ext
libnixfetchers.so:git_revparse_single
libnixfetchers.so:git_revwalk__commit_lookup
libnixfetchers.so:git_revwalk__push_commit
libnixfetchers.so:git_revwalk__push_glob
libnixfetchers.so:git_revwalk__push_ref
libnixfetchers.so:git_revwalk_add_hide_cb
libnixfetchers.so:git_revwalk_free
libnixfetchers.so:git_revwalk_hide
libnixfetchers.so:git_revwalk_hide_glob
libnixfetchers.so:git_revwalk_hide_head
libnixfetchers.so:git_revwalk_hide_ref
libnixfetchers.so:git_revwalk_new
libnixfetchers.so:git_revwalk_next
libnixfetchers.so:git_revwalk_push
libnixfetchers.so:git_revwalk_push_glob
libnixfetchers.so:git_revwalk_push_head
libnixfetchers.so:git_revwalk_push_range
libnixfetchers.so:git_revwalk_push_ref
libnixfetchers.so:git_revwalk_repository
libnixfetchers.so:git_revwalk_reset
libnixfetchers.so:git_revwalk_simplify_first_parent
libnixfetchers.so:git_revwalk_sorting
libnixfetchers.so:git_runtime_init
libnixfetchers.so:git_runtime_init_count
libnixfetchers.so:git_runtime_shutdown
libnixfetchers.so:git_runtime_shutdown_register
libnixfetchers.so:git_settings__user_agent
libnixfetchers.so:git_settings__user_agent_product
libnixfetchers.so:git_settings_global_init
libnixfetchers.so:git_signature__equal
libnixfetchers.so:git_signature__parse
libnixfetchers.so:git_signature__pdup
libnixfetchers.so:git_signature__writebuf
libnixfetchers.so:git_signature_default
libnixfetchers.so:git_signature_default_from_env
libnixfetchers.so:git_signature_dup
libnixfetchers.so:git_signature_free
libnixfetchers.so:git_signature_from_buffer
libnixfetchers.so:git_signature_new
libnixfetchers.so:git_signature_now
libnixfetchers.so:git_smart__detect_caps
libnixfetchers.so:git_smart__download_pack
libnixfetchers.so:git_smart__get_push_stream
libnixfetchers.so:git_smart__negotiate_fetch
libnixfetchers.so:git_smart__negotiation_step
libnixfetchers.so:git_smart__ofs_delta_enabled
libnixfetchers.so:git_smart__push
libnixfetchers.so:git_smart__recv
libnixfetchers.so:git_smart__shallow_roots
libnixfetchers.so:git_smart__store_refs
libnixfetchers.so:git_smart__update_heads
libnixfetchers.so:git_smart_subtransport_git
libnixfetchers.so:git_smart_subtransport_http
libnixfetchers.so:git_smart_subtransport_ssh
libnixfetchers.so:git_smart_subtransport_ssh_libssh2
libnixfetchers.so:git_smart_subtransport_ssh_libssh2_set_paths
libnixfetchers.so:git_socket_stream__connect_timeout
libnixfetchers.so:git_socket_stream__timeout
libnixfetchers.so:git_socket_stream_global_init
libnixfetchers.so:git_socket_stream_new
libnixfetchers.so:git_sortedcache_clear
libnixfetchers.so:git_sortedcache_copy
libnixfetchers.so:git_sortedcache_entry
libnixfetchers.so:git_sortedcache_entrycount
libnixfetchers.so:git_sortedcache_free
libnixfetchers.so:git_sortedcache_incref
libnixfetchers.so:git_sortedcache_lockandload
libnixfetchers.so:git_sortedcache_lookup
libnixfetchers.so:git_sortedcache_lookup_index
libnixfetchers.so:git_sortedcache_new
libnixfetchers.so:git_sortedcache_path
libnixfetchers.so:git_sortedcache_remove
libnixfetchers.so:git_sortedcache_rlock
libnixfetchers.so:git_sortedcache_runlock
libnixfetchers.so:git_sortedcache_updated
libnixfetchers.so:git_sortedcache_upsert
libnixfetchers.so:git_sortedcache_wlock
libnixfetchers.so:git_sortedcache_wunlock
libnixfetchers.so:git_status_byindex
libnixfetchers.so:git_status_file
libnixfetchers.so:git_status_foreach
libnixfetchers.so:git_status_foreach_ext
libnixfetchers.so:git_status_init_options
libnixfetchers.so:git_status_list_entrycount
libnixfetchers.so:git_status_list_free
libnixfetchers.so:git_status_list_get_perfdata
libnixfetchers.so:git_status_list_new
libnixfetchers.so:git_status_options_init
libnixfetchers.so:git_status_should_ignore
libnixfetchers.so:git_stdalloc_init_allocator
libnixfetchers.so:git_str__initstr
libnixfetchers.so:git_str__oom
libnixfetchers.so:git_str_attach
libnixfetchers.so:git_str_attach_notowned
libnixfetchers.so:git_str_clear
libnixfetchers.so:git_str_cmp
libnixfetchers.so:git_str_common_prefix
libnixfetchers.so:git_str_consume
libnixfetchers.so:git_str_consume_bytes
libnixfetchers.so:git_str_contains_nul
libnixfetchers.so:git_str_copy_cstr
libnixfetchers.so:git_str_crlf_to_lf
libnixfetchers.so:git_str_decode_base64
libnixfetchers.so:git_str_decode_base85
libnixfetchers.so:git_str_decode_percent
libnixfetchers.so:git_str_detach
libnixfetchers.so:git_str_detect_bom
libnixfetchers.so:git_str_dispose
libnixfetchers.so:git_str_encode_base64
libnixfetchers.so:git_str_encode_base85
libnixfetchers.so:git_str_encode_hexstr
libnixfetchers.so:git_str_gather_text_stats
libnixfetchers.so:git_str_grow
libnixfetchers.so:git_str_grow_by
libnixfetchers.so:git_str_init
libnixfetchers.so:git_str_is_binary
libnixfetchers.so:git_str_join
libnixfetchers.so:git_str_join3
libnixfetchers.so:git_str_join_n
libnixfetchers.so:git_str_lf_to_crlf
libnixfetchers.so:git_str_printf
libnixfetchers.so:git_str_put
libnixfetchers.so:git_str_putc
libnixfetchers.so:git_str_putcn
libnixfetchers.so:git_str_puts
libnixfetchers.so:git_str_puts_escaped
libnixfetchers.so:git_str_quote
libnixfetchers.so:git_str_rtrim
libnixfetchers.so:git_str_rtruncate_at_char
libnixfetchers.so:git_str_set
libnixfetchers.so:git_str_sets
libnixfetchers.so:git_str_shorten
libnixfetchers.so:git_str_splice
libnixfetchers.so:git_str_swap
libnixfetchers.so:git_str_truncate
libnixfetchers.so:git_str_truncate_at_char
libnixfetchers.so:git_str_try_grow
libnixfetchers.so:git_str_unescape
libnixfetchers.so:git_str_unquote
libnixfetchers.so:git_str_vprintf
libnixfetchers.so:git_strarray_copy
libnixfetchers.so:git_strarray_dispose
libnixfetchers.so:git_strarray_free
libnixfetchers.so:git_stream_register
libnixfetchers.so:git_stream_register_tls
libnixfetchers.so:git_stream_registry_global_init
libnixfetchers.so:git_stream_registry_lookup
libnixfetchers.so:git_submodule__lookup_with_cache
libnixfetchers.so:git_submodule__map
libnixfetchers.so:git_submodule__status
libnixfetchers.so:git_submodule_add_finalize
libnixfetchers.so:git_submodule_add_setup
libnixfetchers.so:git_submodule_add_to_index
libnixfetchers.so:git_submodule_branch
libnixfetchers.so:git_submodule_cache_free
libnixfetchers.so:git_submodule_cache_init
libnixfetchers.so:git_submodule_clone
libnixfetchers.so:git_submodule_dup
libnixfetchers.so:git_submodule_fetch_recurse_submodules
libnixfetchers.so:git_submodule_foreach
libnixfetchers.so:git_submodule_free
libnixfetchers.so:git_submodule_head_id
libnixfetchers.so:git_submodule_ignore
libnixfetchers.so:git_submodule_index_id
libnixfetchers.so:git_submodule_init
libnixfetchers.so:git_submodule_location
libnixfetchers.so:git_submodule_lookup
libnixfetchers.so:git_submodule_name
libnixfetchers.so:git_submodule_name_is_valid
libnixfetchers.so:git_submodule_open
libnixfetchers.so:git_submodule_open_bare
libnixfetchers.so:git_submodule_owner
libnixfetchers.so:git_submodule_parse_ignore
libnixfetchers.so:git_submodule_parse_update
libnixfetchers.so:git_submodule_path
libnixfetchers.so:git_submodule_reload
libnixfetchers.so:git_submodule_repo_init
libnixfetchers.so:git_submodule_resolve_url
libnixfetchers.so:git_submodule_set_branch
libnixfetchers.so:git_submodule_set_fetch_recurse_submodules
libnixfetchers.so:git_submodule_set_ignore
libnixfetchers.so:git_submodule_set_update
libnixfetchers.so:git_submodule_set_url
libnixfetchers.so:git_submodule_status
libnixfetchers.so:git_submodule_sync
libnixfetchers.so:git_submodule_update
libnixfetchers.so:git_submodule_update_init_options
libnixfetchers.so:git_submodule_update_options_init
libnixfetchers.so:git_submodule_update_strategy
libnixfetchers.so:git_submodule_url
libnixfetchers.so:git_submodule_wd_id
libnixfetchers.so:git_sysdir_expand_global_file
libnixfetchers.so:git_sysdir_expand_homedir_file
libnixfetchers.so:git_sysdir_find_global_file
libnixfetchers.so:git_sysdir_find_homedir
libnixfetchers.so:git_sysdir_find_programdata_file
libnixfetchers.so:git_sysdir_find_system_file
libnixfetchers.so:git_sysdir_find_template_dir
libnixfetchers.so:git_sysdir_find_xdg_file
libnixfetchers.so:git_sysdir_get
libnixfetchers.so:git_sysdir_global_init
libnixfetchers.so:git_sysdir_reset
libnixfetchers.so:git_sysdir_set
libnixfetchers.so:git_tag__free
libnixfetchers.so:git_tag__parse
libnixfetchers.so:git_tag__parse_raw
libnixfetchers.so:git_tag_annotation_create
libnixfetchers.so:git_tag_create
libnixfetchers.so:git_tag_create_from_buffer
libnixfetchers.so:git_tag_create_frombuffer
libnixfetchers.so:git_tag_create_lightweight
libnixfetchers.so:git_tag_delete
libnixfetchers.so:git_tag_dup
libnixfetchers.so:git_tag_foreach
libnixfetchers.so:git_tag_free
libnixfetchers.so:git_tag_id
libnixfetchers.so:git_tag_list
libnixfetchers.so:git_tag_list_match
libnixfetchers.so:git_tag_lookup
libnixfetchers.so:git_tag_lookup_prefix
libnixfetchers.so:git_tag_message
libnixfetchers.so:git_tag_name
libnixfetchers.so:git_tag_name_is_valid
libnixfetchers.so:git_tag_owner
libnixfetchers.so:git_tag_peel
libnixfetchers.so:git_tag_tagger
libnixfetchers.so:git_tag_target
libnixfetchers.so:git_tag_target_id
libnixfetchers.so:git_tag_target_type
libnixfetchers.so:git_tls_stream_new
libnixfetchers.so:git_tls_stream_wrap
libnixfetchers.so:git_tlsdata_dispose
libnixfetchers.so:git_tlsdata_get
libnixfetchers.so:git_tlsdata_init
libnixfetchers.so:git_tlsdata_set
libnixfetchers.so:git_trace__data
libnixfetchers.so:git_trace_set
libnixfetchers.so:git_transaction_commit
libnixfetchers.so:git_transaction_config_new
libnixfetchers.so:git_transaction_free
libnixfetchers.so:git_transaction_lock_ref
libnixfetchers.so:git_transaction_new
libnixfetchers.so:git_transaction_remove
libnixfetchers.so:git_transaction_set_reflog
libnixfetchers.so:git_transaction_set_symbolic_target
libnixfetchers.so:git_transaction_set_target
libnixfetchers.so:git_transport_init
libnixfetchers.so:git_transport_local
libnixfetchers.so:git_transport_new
libnixfetchers.so:git_transport_register
libnixfetchers.so:git_transport_remote_connect_options
libnixfetchers.so:git_transport_smart
libnixfetchers.so:git_transport_smart_certificate_check
libnixfetchers.so:git_transport_smart_credentials
libnixfetchers.so:git_transport_ssh_libssh2_global_init
libnixfetchers.so:git_transport_ssh_with_paths
libnixfetchers.so:git_transport_unregister
libnixfetchers.so:git_tree__free
libnixfetchers.so:git_tree__parse
libnixfetchers.so:git_tree__parse_raw
libnixfetchers.so:git_tree__write_index
libnixfetchers.so:git_tree_cache_get
libnixfetchers.so:git_tree_cache_invalidate_path
libnixfetchers.so:git_tree_cache_new
libnixfetchers.so:git_tree_cache_read
libnixfetchers.so:git_tree_cache_read_tree
libnixfetchers.so:git_tree_cache_write
libnixfetchers.so:git_tree_create_updated
libnixfetchers.so:git_tree_dup
libnixfetchers.so:git_tree_entry_byid
libnixfetchers.so:git_tree_entry_byindex
libnixfetchers.so:git_tree_entry_byname
libnixfetchers.so:git_tree_entry_bypath
libnixfetchers.so:git_tree_entry_cmp
libnixfetchers.so:git_tree_entry_dup
libnixfetchers.so:git_tree_entry_filemode
libnixfetchers.so:git_tree_entry_filemode_raw
libnixfetchers.so:git_tree_entry_free
libnixfetchers.so:git_tree_entry_id
libnixfetchers.so:git_tree_entry_name
libnixfetchers.so:git_tree_entry_to_object
libnixfetchers.so:git_tree_entry_type
libnixfetchers.so:git_tree_entrycount
libnixfetchers.so:git_tree_free
libnixfetchers.so:git_tree_id
libnixfetchers.so:git_tree_lookup
libnixfetchers.so:git_tree_lookup_prefix
libnixfetchers.so:git_tree_owner
libnixfetchers.so:git_tree_walk
libnixfetchers.so:git_treebuilder_clear
libnixfetchers.so:git_treebuilder_entrycount
libnixfetchers.so:git_treebuilder_filter
libnixfetchers.so:git_treebuilder_free
libnixfetchers.so:git_treebuilder_get
libnixfetchers.so:git_treebuilder_insert
libnixfetchers.so:git_treebuilder_new
libnixfetchers.so:git_treebuilder_remove
libnixfetchers.so:git_treebuilder_write
libnixfetchers.so:git_treebuilder_write_with_buffer
libnixfetchers.so:git_utf8_char_length
libnixfetchers.so:git_utf8_iterate
libnixfetchers.so:git_utf8_valid_buf_length
libnixfetchers.so:git_vector_bsearch2
libnixfetchers.so:git_vector_clear
libnixfetchers.so:git_vector_detach
libnixfetchers.so:git_vector_dispose
libnixfetchers.so:git_vector_dispose_deep
libnixfetchers.so:git_vector_dup
libnixfetchers.so:git_vector_init
libnixfetchers.so:git_vector_insert
libnixfetchers.so:git_vector_insert_null
libnixfetchers.so:git_vector_insert_sorted
libnixfetchers.so:git_vector_pop
libnixfetchers.so:git_vector_remove
libnixfetchers.so:git_vector_remove_matching
libnixfetchers.so:git_vector_remove_range
libnixfetchers.so:git_vector_resize_to
libnixfetchers.so:git_vector_reverse
libnixfetchers.so:git_vector_search
libnixfetchers.so:git_vector_search2
libnixfetchers.so:git_vector_set
libnixfetchers.so:git_vector_size_hint
libnixfetchers.so:git_vector_sort
libnixfetchers.so:git_vector_swap
libnixfetchers.so:git_vector_uniq
libnixfetchers.so:git_vector_verify_sorted
libnixfetchers.so:git_worktree__read_link
libnixfetchers.so:git_worktree_add
libnixfetchers.so:git_worktree_add_init_options
libnixfetchers.so:git_worktree_add_options_init
libnixfetchers.so:git_worktree_free
libnixfetchers.so:git_worktree_is_locked
libnixfetchers.so:git_worktree_is_prunable
libnixfetchers.so:git_worktree_list
libnixfetchers.so:git_worktree_lock
libnixfetchers.so:git_worktree_lookup
libnixfetchers.so:git_worktree_name
libnixfetchers.so:git_worktree_open_from_repository
libnixfetchers.so:git_worktree_path
libnixfetchers.so:git_worktree_prune
libnixfetchers.so:git_worktree_prune_init_options
libnixfetchers.so:git_worktree_prune_options_init
libnixfetchers.so:git_worktree_unlock
libnixfetchers.so:git_worktree_validate
libnixfetchers.so:git_xdiff_init
libnixfetchers.so:git_zstream_deflatebuf
libnixfetchers.so:git_zstream_done
libnixfetchers.so:git_zstream_eos
libnixfetchers.so:git_zstream_free
libnixfetchers.so:git_zstream_get_output
libnixfetchers.so:git_zstream_get_output_chunk
libnixfetchers.so:git_zstream_inflatebuf
libnixfetchers.so:git_zstream_init
libnixfetchers.so:git_zstream_reset
libnixfetchers.so:git_zstream_set_input
libnixfetchers.so:git_zstream_suggest_output_len
libnixfetchers.so:giterr_clear
libnixfetchers.so:giterr_last
libnixfetchers.so:giterr_set_oom
libnixfetchers.so:giterr_set_str
libnixfetchers.so:llhttp__after_headers_complete
libnixfetchers.so:llhttp__after_message_complete
libnixfetchers.so:llhttp__before_headers_complete
libnixfetchers.so:llhttp__debug
libnixfetchers.so:llhttp__internal__c_and_flags
libnixfetchers.so:llhttp__internal__c_is_equal_content_length
libnixfetchers.so:llhttp__internal__c_is_equal_method
libnixfetchers.so:llhttp__internal__c_is_equal_upgrade
libnixfetchers.so:llhttp__internal__c_load_header_state
libnixfetchers.so:llhttp__internal__c_load_http_major
libnixfetchers.so:llhttp__internal__c_load_http_minor
libnixfetchers.so:llhttp__internal__c_load_initial_message_completed
libnixfetchers.so:llhttp__internal__c_load_method
libnixfetchers.so:llhttp__internal__c_load_type
libnixfetchers.so:llhttp__internal__c_mul_add_content_length
libnixfetchers.so:llhttp__internal__c_mul_add_content_length_1
libnixfetchers.so:llhttp__internal__c_mul_add_status_code
libnixfetchers.so:llhttp__internal__c_or_flags
libnixfetchers.so:llhttp__internal__c_or_flags_1
libnixfetchers.so:llhttp__internal__c_or_flags_17
libnixfetchers.so:llhttp__internal__c_or_flags_18
libnixfetchers.so:llhttp__internal__c_or_flags_20
libnixfetchers.so:llhttp__internal__c_or_flags_5
libnixfetchers.so:llhttp__internal__c_or_flags_6
libnixfetchers.so:llhttp__internal__c_or_flags_7
libnixfetchers.so:llhttp__internal__c_or_flags_8
libnixfetchers.so:llhttp__internal__c_store_header_state
libnixfetchers.so:llhttp__internal__c_store_http_major
libnixfetchers.so:llhttp__internal__c_store_http_minor
libnixfetchers.so:llhttp__internal__c_store_method
libnixfetchers.so:llhttp__internal__c_test_flags
libnixfetchers.so:llhttp__internal__c_test_flags_2
libnixfetchers.so:llhttp__internal__c_test_flags_3
libnixfetchers.so:llhttp__internal__c_test_flags_4
libnixfetchers.so:llhttp__internal__c_test_lenient_flags
libnixfetchers.so:llhttp__internal__c_test_lenient_flags_1
libnixfetchers.so:llhttp__internal__c_test_lenient_flags_2
libnixfetchers.so:llhttp__internal__c_test_lenient_flags_20
libnixfetchers.so:llhttp__internal__c_test_lenient_flags_22
libnixfetchers.so:llhttp__internal__c_test_lenient_flags_24
libnixfetchers.so:llhttp__internal__c_test_lenient_flags_3
libnixfetchers.so:llhttp__internal__c_test_lenient_flags_4
libnixfetchers.so:llhttp__internal__c_test_lenient_flags_7
libnixfetchers.so:llhttp__internal__c_test_lenient_flags_8
libnixfetchers.so:llhttp__internal__c_update_content_length
libnixfetchers.so:llhttp__internal__c_update_finish
libnixfetchers.so:llhttp__internal__c_update_finish_1
libnixfetchers.so:llhttp__internal__c_update_finish_3
libnixfetchers.so:llhttp__internal__c_update_header_state
libnixfetchers.so:llhttp__internal__c_update_header_state_1
libnixfetchers.so:llhttp__internal__c_update_header_state_3
libnixfetchers.so:llhttp__internal__c_update_header_state_6
libnixfetchers.so:llhttp__internal__c_update_header_state_7
libnixfetchers.so:llhttp__internal__c_update_header_state_8
libnixfetchers.so:llhttp__internal__c_update_http_major
libnixfetchers.so:llhttp__internal__c_update_http_minor
libnixfetchers.so:llhttp__internal__c_update_initial_message_completed
libnixfetchers.so:llhttp__internal__c_update_status_code
libnixfetchers.so:llhttp__internal__c_update_type
libnixfetchers.so:llhttp__internal__c_update_type_1
libnixfetchers.so:llhttp__internal__c_update_upgrade
libnixfetchers.so:llhttp__internal_execute
libnixfetchers.so:llhttp__internal_init
libnixfetchers.so:llhttp__on_body
libnixfetchers.so:llhttp__on_chunk_complete
libnixfetchers.so:llhttp__on_chunk_extension_name
libnixfetchers.so:llhttp__on_chunk_extension_name_complete
libnixfetchers.so:llhttp__on_chunk_extension_value
libnixfetchers.so:llhttp__on_chunk_extension_value_complete
libnixfetchers.so:llhttp__on_chunk_header
libnixfetchers.so:llhttp__on_header_field
libnixfetchers.so:llhttp__on_header_field_complete
libnixfetchers.so:llhttp__on_header_value
libnixfetchers.so:llhttp__on_header_value_complete
libnixfetchers.so:llhttp__on_headers_complete
libnixfetchers.so:llhttp__on_message_begin
libnixfetchers.so:llhttp__on_message_complete
libnixfetchers.so:llhttp__on_method
libnixfetchers.so:llhttp__on_method_complete
libnixfetchers.so:llhttp__on_reset
libnixfetchers.so:llhttp__on_status
libnixfetchers.so:llhttp__on_status_complete
libnixfetchers.so:llhttp__on_url
libnixfetchers.so:llhttp__on_url_complete
libnixfetchers.so:llhttp__on_version
libnixfetchers.so:llhttp__on_version_complete
libnixfetchers.so:llhttp_errno_name
libnixfetchers.so:llhttp_execute
libnixfetchers.so:llhttp_finish
libnixfetchers.so:llhttp_get_errno
libnixfetchers.so:llhttp_get_error_pos
libnixfetchers.so:llhttp_get_error_reason
libnixfetchers.so:llhttp_get_http_major
libnixfetchers.so:llhttp_get_http_minor
libnixfetchers.so:llhttp_get_method
libnixfetchers.so:llhttp_get_status_code
libnixfetchers.so:llhttp_get_type
libnixfetchers.so:llhttp_get_upgrade
libnixfetchers.so:llhttp_init
libnixfetchers.so:llhttp_message_needs_eof
libnixfetchers.so:llhttp_method_name
libnixfetchers.so:llhttp_pause
libnixfetchers.so:llhttp_reset
libnixfetchers.so:llhttp_resume
libnixfetchers.so:llhttp_resume_after_upgrade
libnixfetchers.so:llhttp_set_error_reason
libnixfetchers.so:llhttp_set_lenient_chunked_length
libnixfetchers.so:llhttp_set_lenient_data_after_close
libnixfetchers.so:llhttp_set_lenient_headers
libnixfetchers.so:llhttp_set_lenient_keep_alive
libnixfetchers.so:llhttp_set_lenient_optional_cr_before_lf
libnixfetchers.so:llhttp_set_lenient_optional_crlf_after_chunk
libnixfetchers.so:llhttp_set_lenient_optional_lf_after_cr
libnixfetchers.so:llhttp_set_lenient_spaces_after_chunk_size
libnixfetchers.so:llhttp_set_lenient_transfer_encoding
libnixfetchers.so:llhttp_set_lenient_version
libnixfetchers.so:llhttp_settings_init
libnixfetchers.so:llhttp_should_keep_alive
libnixfetchers.so:llhttp_status_name
libnixfetchers.so:ntlm_client_challenge_nonce
libnixfetchers.so:ntlm_client_errmsg
libnixfetchers.so:ntlm_client_free
libnixfetchers.so:ntlm_client_init
libnixfetchers.so:ntlm_client_negotiate
libnixfetchers.so:ntlm_client_reset
libnixfetchers.so:ntlm_client_response
libnixfetchers.so:ntlm_client_set_challenge
libnixfetchers.so:ntlm_client_set_credentials
libnixfetchers.so:ntlm_client_set_errmsg
libnixfetchers.so:ntlm_client_set_hostname
libnixfetchers.so:ntlm_client_set_nonce
libnixfetchers.so:ntlm_client_set_target
libnixfetchers.so:ntlm_client_set_timestamp
libnixfetchers.so:ntlm_client_set_version
libnixfetchers.so:ntlm_client_signature
libnixfetchers.so:ntlm_client_target
libnixfetchers.so:ntlm_client_target_domain
libnixfetchers.so:ntlm_client_target_domain_dns
libnixfetchers.so:ntlm_client_target_server
libnixfetchers.so:ntlm_client_target_server_dns
libnixfetchers.so:ntlm_crypt_init
libnixfetchers.so:ntlm_crypt_shutdown
libnixfetchers.so:ntlm_des_encrypt
libnixfetchers.so:ntlm_hmac_md5_final
libnixfetchers.so:ntlm_hmac_md5_init
libnixfetchers.so:ntlm_hmac_md5_update
libnixfetchers.so:ntlm_htonll
libnixfetchers.so:ntlm_md4_digest
libnixfetchers.so:ntlm_memzero
libnixfetchers.so:ntlm_random_bytes
libnixfetchers.so:ntlm_unicode_init
libnixfetchers.so:ntlm_unicode_shutdown
libnixfetchers.so:ntlm_unicode_utf16_to_8
libnixfetchers.so:ntlm_unicode_utf8_to_16
libnixfetchers.so:openssl_initialized
libnixfetchers.so:openssl_mutex
libnixfetchers.so:p_creat
libnixfetchers.so:p_fsync__cnt
libnixfetchers.so:p_getcwd
libnixfetchers.so:p_mmap
libnixfetchers.so:p_munmap
libnixfetchers.so:p_open
libnixfetchers.so:p_read
libnixfetchers.so:p_realpath
libnixfetchers.so:p_rename
libnixfetchers.so:p_write
libnixfetchers.so:sha1_compression_states
libnixfetchers.so:sha1_dvs
libnixfetchers.so:ubc_check
libnixfetchers.so:wildmatch
libnixfetchers.so:xdl_alloc_grow_helper
libnixfetchers.so:xdl_blankline
libnixfetchers.so:xdl_bogosqrt
libnixfetchers.so:xdl_build_script
libnixfetchers.so:xdl_cha_alloc
libnixfetchers.so:xdl_cha_free
libnixfetchers.so:xdl_cha_init
libnixfetchers.so:xdl_change_compact
libnixfetchers.so:xdl_diff
libnixfetchers.so:xdl_do_diff
libnixfetchers.so:xdl_do_histogram_diff
libnixfetchers.so:xdl_do_patience_diff
libnixfetchers.so:xdl_emit_diff
libnixfetchers.so:xdl_emit_diffrec
libnixfetchers.so:xdl_emit_hunk_hdr
libnixfetchers.so:xdl_fall_back_diff
libnixfetchers.so:xdl_free_env
libnixfetchers.so:xdl_free_script
libnixfetchers.so:xdl_get_hunk
libnixfetchers.so:xdl_guess_lines
libnixfetchers.so:xdl_hash_record
libnixfetchers.so:xdl_hashbits
libnixfetchers.so:xdl_merge
libnixfetchers.so:xdl_mmfile_first
libnixfetchers.so:xdl_mmfile_size
libnixfetchers.so:xdl_num_out
libnixfetchers.so:xdl_prepare_env
libnixfetchers.so:xdl_recmatch
libnixfetchers.so:xdl_recs_cmp
libnixflake.so:_ZN3nix12flakeIdRegexB5cxx11E
libnixflake.so:_ZN3nix13parseFlakeRefERKNS_8fetchers8SettingsERKNSt7__cxx1112basic_stringIcSt11char_traitsIcESaIcEEERKSt8optionalIS9_Ebbb
libnixflake.so:_ZN3nix14getNameFromURLB5cxx11ERKNS_9ParsedURLE
libnixflake.so:_ZN3nix16parseURLFlakeRefERKNS_8fetchers8SettingsERKNSt7__cxx1112basic_stringIcSt11char_traitsIcESaIcEEERKSt8optionalIS9_Eb
libnixflake.so:_ZN3nix18maybeParseFlakeRefERKNS_8fetchers8SettingsERKNSt7__cxx1112basic_stringIcSt11char_traitsIcESaIcEEERKSt8optionalIS9_E
libnixflake.so:_ZN3nix25parseFlakeRefWithFragmentERKNS_8fetchers8SettingsERKNSt7__cxx1112basic_stringIcSt11char_traitsIcESaIcEEERKSt8optionalIS9_Ebbb
libnixflake.so:_ZN3nix29parsePathFlakeRefWithFragmentERKNS_8fetchers8SettingsERKNSt7__cxx1112basic_stringIcSt11char_traitsIcESaIcEEERKSt8optionalIS9_Ebbb
libnixflake.so:_ZN3nix30maybeParseFlakeRefWithFragmentERKNS_8fetchers8SettingsERKNSt7__cxx1112basic_stringIcSt11char_traitsIcESaIcEEERKSt8optionalIS9_E
libnixflake.so:_ZN3nix47parseFlakeRefWithFragmentAndExtendedOutputsSpecERKNS_8fetchers8SettingsERKNSt7__cxx1112basic_stringIcSt11char_traitsIcESaIcEEERKSt8optionalIS9_Ebb
libnixflake.so:_ZN3nix5flake10ConfigFile5applyERKNS0_8SettingsE
libnixflake.so:_ZN3nix5flake10LockedNodeC1ERKNS_8fetchers8SettingsERKN8nlohmann16json_abi_v3_11_210basic_jsonISt3mapSt6vectorNSt7__cxx1112basic_stringIcSt11char_traitsIcESaIcEEEblmdSaNS7_14adl_serializerESA_IhSaIhEEEE
libnixflake.so:_ZN3nix5flake10LockedNodeC2ERKNS_8fetchers8SettingsERKN8nlohmann16json_abi_v3_11_210basic_jsonISt3mapSt6vectorNSt7__cxx1112basic_stringIcSt11char_traitsIcESaIcEEEblmdSaNS7_14adl_serializerESA_IhSaIhEEEE
libnixflake.so:_ZN3nix5flake15trustedListPathB5cxx11Ev
libnixflake.so:_ZN3nix5flake18parseInputAttrPathB5cxx11ESt17basic_string_viewIcSt11char_traitsIcEE
libnixflake.so:_ZN3nix5flake18printInputAttrPathERKSt6vectorINSt7__cxx1112basic_stringIcSt11char_traitsIcESaIcEEESaIS7_EE
libnixflake.so:_ZN3nix5flake5FlakeD1Ev
libnixflake.so:_ZN3nix5flake5FlakeD2Ev
libnixflake.so:_ZN3nix5flake7initLibERKNS0_8SettingsE
libnixflake.so:_ZN3nix5flake8LockFile4diffB5cxx11ERKS1_S3_
libnixflake.so:_ZN3nix5flake8LockFile5checkEv
libnixflake.so:_ZN3nix5flake8LockFile9findInputERKSt6vectorINSt7__cxx1112basic_stringIcSt11char_traitsIcESaIcEEESaIS8_EE
libnixflake.so:_ZN3nix5flake8LockFileC1ERKNS_8fetchers8SettingsESt17basic_string_viewIcSt11char_traitsIcEES9_
libnixflake.so:_ZN3nix5flake8LockFileC2ERKNS_8fetchers8SettingsESt17basic_string_viewIcSt11char_traitsIcEES9_
libnixflake.so:_ZN3nix5flake8SettingsC1Ev
libnixflake.so:_ZN3nix5flake8SettingsC2Ev
libnixflake.so:_ZN3nix5flake8getFlakeERNS_9EvalStateERKNS_8FlakeRefEb
libnixflake.so:_ZN3nix5flake9callFlakeERNS_9EvalStateERKNS0_11LockedFlakeERNS_5ValueE
libnixflake.so:_ZN3nix5flake9lockFlakeERKNS0_8SettingsERNS_9EvalStateERKNS_8FlakeRefERKNS0_9LockFlagsE
libnixflake.so:_ZN3nix5flakelsERSoRKNS0_8LockFileE
libnixflake.so:_ZN3nix5flakelsERSoRKSt7variantIJNS_3refINS0_10LockedNodeEEESt6vectorINSt7__cxx1112basic_stringIcSt11char_traitsIcESaIcEEESaISC_EEEE
libnixflake.so:_ZN3nix8FlakeRef9fromAttrsERKNS_8fetchers8SettingsERKSt3mapINSt7__cxx1112basic_stringIcSt11char_traitsIcESaIcEEESt7variantIJSB_mNS_8ExplicitIbEEEESt4lessISB_ESaISt4pairIKSB_SF_EEE
libnixflake.so:_ZN3nixlsERSoRKNS_8FlakeRefE
libnixflake.so:_ZNK3nix5flake10LockedNode16computeStorePathERNS_5StoreE
libnixflake.so:_ZNK3nix5flake11LockedFlake14getFingerprintENS_3refINS_5StoreEEERKNS_8fetchers8SettingsE
libnixflake.so:_ZNK3nix5flake8LockFile10isUnlockedERKNS_8fetchers8SettingsE
libnixflake.so:_ZNK3nix5flake8LockFile12getAllInputsB5cxx11Ev
libnixflake.so:_ZNK3nix5flake8LockFile6toJSONB5cxx11Ev
libnixflake.so:_ZNK3nix5flake8LockFile9to_stringB5cxx11Ev
libnixflake.so:_ZNK3nix5flake8LockFileeqERKS1_
libnixflake.so:_ZNK3nix8FlakeRef7resolveENS_3refINS_5StoreEEERKSt8functionIFbNS_8fetchers8Registry12RegistryTypeEEE
libnixflake.so:_ZNK3nix8FlakeRef7toAttrsB5cxx11Ev
libnixflake.so:_ZNK3nix8FlakeRef9lazyFetchENS_3refINS_5StoreEEE
libnixflake.so:_ZNK3nix8FlakeRef9to_stringB5cxx11Ev
libnixflake.so:_end
libnixflakec.so:_end
libnixflakec.so:nix_flake_init_global
libnixflakec.so:nix_flake_settings_free
libnixflakec.so:nix_flake_settings_new
libnixmain.so:_ZN3nix10LegacyArgs11processArgsERKNSt7__cxx114listINS1_12basic_stringIcSt11char_traitsIcESaIcEEESaIS7_EEEb
libnixmain.so:_ZN3nix10LegacyArgs11processFlagERSt14_List_iteratorINSt7__cxx1112basic_stringIcSt11char_traitsIcESaIcEEEES8_
libnixmain.so:_ZN3nix10LegacyArgsC1ERKNSt7__cxx1112basic_stringIcSt11char_traitsIcESaIcEEESt8functionIFbRSt14_List_iteratorIS6_ERKSB_EE
libnixmain.so:_ZN3nix10LegacyArgsC2ERKNSt7__cxx1112basic_stringIcSt11char_traitsIcESaIcEEESt8functionIFbRSt14_List_iteratorIS6_ERKSB_EE
libnixmain.so:_ZN3nix10PrintFreedD1Ev
libnixmain.so:_ZN3nix10PrintFreedD2Ev
libnixmain.so:_ZN3nix11initPluginsEv
libnixmain.so:_ZN3nix12parseCmdLineERKNSt7__cxx1112basic_stringIcSt11char_traitsIcESaIcEEERKNS0_4listIS5_SaIS5_EEESt8functionIFbRSt14_List_iteratorIS5_ERKSF_EE
libnixmain.so:_ZN3nix12parseCmdLineEiPPcSt8functionIFbRSt14_List_iteratorINSt7__cxx1112basic_stringIcSt11char_traitsIcESaIcEEEERKSA_EE
libnixmain.so:_ZN3nix12printMissingENS_3refINS_5StoreEEERKSt3setINS_9StorePathESt4lessIS4_ESaIS4_EESA_SA_mmNS_9VerbosityE
libnixmain.so:_ZN3nix12printMissingENS_3refINS_5StoreEEERKSt6vectorINS_11DerivedPathESaIS4_EENS_9VerbosityE
libnixmain.so:_ZN3nix12printVersionERKNSt7__cxx1112basic_stringIcSt11char_traitsIcESaIcEEE
libnixmain.so:_ZN3nix12setLogFormatERKNS_9LogFormatE
libnixmain.so:_ZN3nix12setLogFormatERKNSt7__cxx1112basic_stringIcSt11char_traitsIcESaIcEEE
libnixmain.so:_ZN3nix13MixCommonArgs21initialFlagsProcessedEv
libnixmain.so:_ZN3nix13MixCommonArgsC1ERKNSt7__cxx1112basic_stringIcSt11char_traitsIcESaIcEEE
libnixmain.so:_ZN3nix13MixCommonArgsC2ERKNSt7__cxx1112basic_stringIcSt11char_traitsIcESaIcEEE
libnixmain.so:_ZN3nix14parseLogFormatERKNSt7__cxx1112basic_stringIcSt11char_traitsIcESaIcEEE
libnixmain.so:_ZN3nix14printGCWarningEv
libnixmain.so:_ZN3nix15makeProgressBarEv
libnixmain.so:_ZN3nix16defaultLogFormatE
libnixmain.so:_ZN3nix16handleExceptionsERKNSt7__cxx1112basic_stringIcSt11char_traitsIcESaIcEEESt8functionIFvvEE
libnixmain.so:_ZN3nix17makeDefaultLoggerEv
libnixmain.so:_ZN3nix19detectStackOverflowEv
libnixmain.so:_ZN3nix20stackOverflowHandlerE
libnixmain.so:_ZN3nix27defaultStackOverflowHandlerEP9siginfo_tPv
libnixmain.so:_ZN3nix6getArgERKNSt7__cxx1112basic_stringIcSt11char_traitsIcESaIcEEERSt14_List_iteratorIS5_ERKS9_
libnixmain.so:_ZN3nix7initNixEb
libnixmain.so:_ZN3nix8RunPagerC1Ev
libnixmain.so:_ZN3nix8RunPagerC2Ev
libnixmain.so:_ZN3nix8RunPagerD1Ev
libnixmain.so:_ZN3nix8RunPagerD2Ev
libnixmain.so:_ZN3nix9savedArgvE
libnixmain.so:_ZNK3nix18PluginFilesSetting5parseERKNSt7__cxx1112basic_stringIcSt11char_traitsIcESaIcEEE
libnixmain.so:_ZTCN3nix10LegacyArgsE0_NS_13MixCommonArgsE
libnixmain.so:_ZTCN3nix10LegacyArgsE40_NS_8RootArgsE
libnixmain.so:_ZTIN3nix10LegacyArgsE
libnixmain.so:_ZTIN3nix13MixCommonArgsE
libnixmain.so:_ZTIN3nix18PluginFilesSettingE
libnixmain.so:_ZTSN3nix10LegacyArgsE
libnixmain.so:_ZTSN3nix13MixCommonArgsE
libnixmain.so:_ZTSN3nix18PluginFilesSettingE
libnixmain.so:_ZTTN3nix10LegacyArgsE
libnixmain.so:_ZTTN3nix13MixCommonArgsE
libnixmain.so:_ZTVN3nix10LegacyArgsE
libnixmain.so:_ZTVN3nix13MixCommonArgsE
libnixmain.so:_ZTVN3nix18PluginFilesSettingE
libnixmain.so:_ZTv0_n56_N3nix10LegacyArgs11processFlagERSt14_List_iteratorINSt7__cxx1112basic_stringIcSt11char_traitsIcESaIcEEEES8_
libnixmain.so:_ZTv0_n64_N3nix10LegacyArgs11processArgsERKNSt7__cxx114listINS1_12basic_stringIcSt11char_traitsIcESaIcEEESaIS7_EEEb
libnixmain.so:_ZTv0_n80_N3nix13MixCommonArgs21initialFlagsProcessedEv
libnixmainc.so:_Z16nix_init_pluginsP13nix_c_context
libnixstore.so:_ZN3nix10Derivation8fromJSONERKNS_14StoreDirConfigERKN8nlohmann16json_abi_v3_11_210basic_jsonISt3mapSt6vectorNSt7__cxx1112basic_stringIcSt11char_traitsIcESaIcEEEblmdSaNS5_14adl_serializerES8_IhSaIhEEEERKNS_27ExperimentalFeatureSettingsE
libnixstore.so:_ZN3nix10LocalStore10addToStoreERKNS_13ValidPathInfoERNS_6SourceENS_10RepairFlagENS_13CheckSigsFlagE
libnixstore.so:_ZN3nix10LocalStore10getVersionB5cxx11Ev
libnixstore.so:_ZN3nix10LocalStore10openGCLockEv
libnixstore.so:_ZN3nix10LocalStore10verifyPathERKNS_9StorePathESt8functionIFbS3_EERSt3setIS1_St4lessIS1_ESaIS1_EESC_NS_10RepairFlagERb
libnixstore.so:_ZN3nix10LocalStore11addBuildLogERKNS_9StorePathESt17basic_string_viewIcSt11char_traitsIcEE
libnixstore.so:_ZN3nix10LocalStore11addTempRootERKNS_9StorePathE
libnixstore.so:_ZN3nix10LocalStore11getProtocolEv
libnixstore.so:_ZN3nix10LocalStore11verifyStoreEbNS_10RepairFlagE
libnixstore.so:_ZN3nix10LocalStore12addValidPathERNS0_5StateERKNS_13ValidPathInfoEb
libnixstore.so:_ZN3nix10LocalStore12isValidPath_ERNS0_5StateERKNS_9StorePathE
libnixstore.so:_ZN3nix10LocalStore12optimisePathERKNSt7__cxx1112basic_stringIcSt11char_traitsIcESaIcEEENS_10RepairFlagE
libnixstore.so:_ZN3nix10LocalStore12signPathInfoERNS_13ValidPathInfoE
libnixstore.so:_ZN3nix10LocalStore13addSignaturesERKNS_9StorePathERKSt3setINSt7__cxx1112basic_stringIcSt11char_traitsIcESaIcEEESt4lessISA_ESaISA_EE
libnixstore.so:_ZN3nix10LocalStore13findTempRootsERSt13unordered_mapINS_9StorePathESt13unordered_setINSt7__cxx1112basic_stringIcSt11char_traitsIcESaIcEEESt4hashIS9_ESt8equal_toIS9_ESaIS9_EESA_IS2_ESC_IS2_ESaISt4pairIKS2_SF_EEEb
libnixstore.so:_ZN3nix10LocalStore13getPublicKeysB5cxx11Ev
libnixstore.so:_ZN3nix10LocalStore13loadInodeHashEv
libnixstore.so:_ZN3nix10LocalStore13optimisePath_EPNS_8ActivityERNS_13OptimiseStatsERKNSt7__cxx1112basic_stringIcSt11char_traitsIcESaIcEEERSt13unordered_setImSt4hashImESt8equal_toImESaImEENS_10RepairFlagE
libnixstore.so:_ZN3nix10LocalStore13optimiseStoreERNS_13OptimiseStatsE
libnixstore.so:_ZN3nix10LocalStore13optimiseStoreEv
libnixstore.so:_ZN3nix10LocalStore14collectGarbageERKNS_9GCOptionsERNS_9GCResultsE
libnixstore.so:_ZN3nix10LocalStore14invalidatePathERNS0_5StateERKNS_9StorePathE
libnixstore.so:_ZN3nix10LocalStore14queryReferrersERKNS_9StorePathERSt3setIS1_St4lessIS1_ESaIS1_EE
libnixstore.so:_ZN3nix10LocalStore14queryReferrersERNS0_5StateERKNS_9StorePathERSt3setIS3_St4lessIS3_ESaIS3_EE
libnixstore.so:_ZN3nix10LocalStore14updatePathInfoERNS0_5StateERKNS_13ValidPathInfoE
libnixstore.so:_ZN3nix10LocalStore15addIndirectRootERKNSt7__cxx1112basic_stringIcSt11char_traitsIcESaIcEEE
libnixstore.so:_ZN3nix10LocalStore15deleteStorePathERKNSt7__cxx1112basic_stringIcSt11char_traitsIcESaIcEEERm
libnixstore.so:_ZN3nix10LocalStore15findRootsNoTempERSt13unordered_mapINS_9StorePathESt13unordered_setINSt7__cxx1112basic_stringIcSt11char_traitsIcESaIcEEESt4hashIS9_ESt8equal_toIS9_ESaIS9_EESA_IS2_ESC_IS2_ESaISt4pairIKS2_SF_EEEb
libnixstore.so:_ZN3nix10LocalStore15isTrustedClientEv
libnixstore.so:_ZN3nix10LocalStore15queryValidPathsERKSt3setINS_9StorePathESt4lessIS2_ESaIS2_EENS_14SubstituteFlagE
libnixstore.so:_ZN3nix10LocalStore15signRealisationERNS_11RealisationE
libnixstore.so:_ZN3nix10LocalStore15upgradeDBSchemaERNS0_5StateE
libnixstore.so:_ZN3nix10LocalStore16findRuntimeRootsERSt13unordered_mapINS_9StorePathESt13unordered_setINSt7__cxx1112basic_stringIcSt11char_traitsIcESaIcEEESt4hashIS9_ESt8equal_toIS9_ESaIS9_EESA_IS2_ESC_IS2_ESaISt4pairIKS2_SF_EEEb
libnixstore.so:_ZN3nix10LocalStore16queryValidPathIdERNS0_5StateERKNS_9StorePathE
libnixstore.so:_ZN3nix10LocalStore17makeStoreWritableEv
libnixstore.so:_ZN3nix10LocalStore17queryRealisation_ERNS0_5StateERKNS_9DrvOutputE
libnixstore.so:_ZN3nix10LocalStore17registerDrvOutputERKNS_11RealisationE
libnixstore.so:_ZN3nix10LocalStore17registerDrvOutputERKNS_11RealisationENS_13CheckSigsFlagE
libnixstore.so:_ZN3nix10LocalStore17registerValidPathERKNS_13ValidPathInfoE
libnixstore.so:_ZN3nix10LocalStore18addToStoreFromDumpERNS_6SourceESt17basic_string_viewIcSt11char_traitsIcEENS_23FileSerialisationMethodENS_20ContentAddressMethodENS_13HashAlgorithmERKSt3setINS_9StorePathESt4lessISB_ESaISB_EENS_10RepairFlagE
libnixstore.so:_ZN3nix10LocalStore18queryAllValidPathsEv
libnixstore.so:_ZN3nix10LocalStore18queryValidDeriversERKNS_9StorePathE
libnixstore.so:_ZN3nix10LocalStore18registerValidPathsERKSt3mapINS_9StorePathENS_13ValidPathInfoESt4lessIS2_ESaISt4pairIKS2_S3_EEE
libnixstore.so:_ZN3nix10LocalStore19createTempRootsFileEv
libnixstore.so:_ZN3nix10LocalStore19isValidPathUncachedERKNS_9StorePathE
libnixstore.so:_ZN3nix10LocalStore19pathInfoIsUntrustedERKNS_13ValidPathInfoE
libnixstore.so:_ZN3nix10LocalStore19verifyAllValidPathsENS_10RepairFlagE
libnixstore.so:_ZN3nix10LocalStore20createTempDirInStoreB5cxx11Ev
libnixstore.so:_ZN3nix10LocalStore21cacheDrvOutputMappingERNS0_5StateEmRKNSt7__cxx1112basic_stringIcSt11char_traitsIcESaIcEEERKNS_9StorePathE
libnixstore.so:_ZN3nix10LocalStore21invalidatePathCheckedERKNS_9StorePathE
libnixstore.so:_ZN3nix10LocalStore21queryPathFromHashPartERKNSt7__cxx1112basic_stringIcSt11char_traitsIcESaIcEEE
libnixstore.so:_ZN3nix10LocalStore21queryPathInfoInternalERNS0_5StateERKNS_9StorePathE
libnixstore.so:_ZN3nix10LocalStore21queryPathInfoUncachedERKNS_9StorePathENS_8CallbackISt10shared_ptrIKNS_13ValidPathInfoEEEE
libnixstore.so:_ZN3nix10LocalStore21queryRealisationCore_ERNS0_5StateERKNS_9DrvOutputE
libnixstore.so:_ZN3nix10LocalStore22realisationIsUntrustedERKNS_11RealisationE
libnixstore.so:_ZN3nix10LocalStore23querySubstitutablePathsERKSt3setINS_9StorePathESt4lessIS2_ESaIS2_EE
libnixstore.so:_ZN3nix10LocalStore24queryRealisationUncachedERKNS_9DrvOutputENS_8CallbackISt10shared_ptrIKNS_11RealisationEEEE
libnixstore.so:_ZN3nix10LocalStore27readDirectoryIgnoringInodesERKNSt7__cxx1112basic_stringIcSt11char_traitsIcESaIcEEERKSt13unordered_setImSt4hashImESt8equal_toImESaImEE
libnixstore.so:_ZN3nix10LocalStore37queryStaticPartialDerivationOutputMapB5cxx11ERKNS_9StorePathE
libnixstore.so:_ZN3nix10LocalStore6autoGCEb
libnixstore.so:_ZN3nix10LocalStore6getUriB5cxx11Ev
libnixstore.so:_ZN3nix10LocalStore6openDBERNS0_5StateEb
libnixstore.so:_ZN3nix10LocalStore8vacuumDBEv
libnixstore.so:_ZN3nix10LocalStore9findRootsB5cxx11Eb
libnixstore.so:_ZN3nix10LocalStore9findRootsERKNSt7__cxx1112basic_stringIcSt11char_traitsIcESaIcEEENSt10filesystem9file_typeERSt13unordered_mapINS_9StorePathESt13unordered_setIS6_St4hashIS6_ESt8equal_toIS6_ESaIS6_EESE_ISC_ESG_ISC_ESaISt4pairIKSC_SJ_EEE
libnixstore.so:_ZN3nix10LocalStore9getSchemaEv
libnixstore.so:_ZN3nix10LocalStoreC1ERKSt3mapINSt7__cxx1112basic_stringIcSt11char_traitsIcESaIcEEES7_St4lessIS7_ESaISt4pairIKS7_S7_EEE
libnixstore.so:_ZN3nix10LocalStoreC1ESt17basic_string_viewIcSt11char_traitsIcEES4_RKSt3mapINSt7__cxx1112basic_stringIcS3_SaIcEEES9_St4lessIS9_ESaISt4pairIKS9_S9_EEE
libnixstore.so:_ZN3nix10LocalStoreC2ERKSt3mapINSt7__cxx1112basic_stringIcSt11char_traitsIcESaIcEEES7_St4lessIS7_ESaISt4pairIKS7_S7_EEE
libnixstore.so:_ZN3nix10LocalStoreC2ESt17basic_string_viewIcSt11char_traitsIcEES4_RKSt3mapINSt7__cxx1112basic_stringIcS3_SaIcEEES9_St4lessIS9_ESaISt4pairIKS9_S9_EEE
libnixstore.so:_ZN3nix10LocalStoreD0Ev
libnixstore.so:_ZN3nix10LocalStoreD1Ev
libnixstore.so:_ZN3nix10LocalStoreD2Ev
libnixstore.so:_ZN3nix10SQLiteStmt3Use4bindEv
libnixstore.so:_ZN3nix10SQLiteStmt3Use4execEv
libnixstore.so:_ZN3nix10SQLiteStmt3Use4nextEv
libnixstore.so:_ZN3nix10SQLiteStmt3Use4stepEv
libnixstore.so:_ZN3nix10SQLiteStmt3Use6getIntEi
libnixstore.so:_ZN3nix10SQLiteStmt3Use6getStrB5cxx11Ei
libnixstore.so:_ZN3nix10SQLiteStmt3Use6isNullEi
libnixstore.so:_ZN3nix10SQLiteStmt3UseC1ERS0_
libnixstore.so:_ZN3nix10SQLiteStmt3UseC2ERS0_
libnixstore.so:_ZN3nix10SQLiteStmt3UseD1Ev
libnixstore.so:_ZN3nix10SQLiteStmt3UseD2Ev
libnixstore.so:_ZN3nix10SQLiteStmt3UseclEPKhmb
libnixstore.so:_ZN3nix10SQLiteStmt3UseclESt17basic_string_viewIcSt11char_traitsIcEEb
libnixstore.so:_ZN3nix10SQLiteStmt3UseclElb
libnixstore.so:_ZN3nix10SQLiteStmt6createEP7sqlite3RKNSt7__cxx1112basic_stringIcSt11char_traitsIcESaIcEEE
libnixstore.so:_ZN3nix10SQLiteStmtD1Ev
libnixstore.so:_ZN3nix10SQLiteStmtD2Ev
libnixstore.so:_ZN3nix10ServeProto21BasicClientConnection11importPathsERKNS_14StoreDirConfigESt8functionIFvRNS_4SinkEEE
libnixstore.so:_ZN3nix10ServeProto21BasicClientConnection11narFromPathERKNS_14StoreDirConfigERKNS_9StorePathESt8functionIFvRNS_6SourceEEE
libnixstore.so:_ZN3nix10ServeProto21BasicClientConnection14queryPathInfosERKNS_14StoreDirConfigERKSt3setINS_9StorePathESt4lessIS6_ESaIS6_EE
libnixstore.so:_ZN3nix10ServeProto21BasicClientConnection15queryValidPathsERKNS_14StoreDirConfigEbRKSt3setINS_9StorePathESt4lessIS6_ESaIS6_EENS_14SubstituteFlagE
libnixstore.so:_ZN3nix10ServeProto21BasicClientConnection25putBuildDerivationRequestERKNS_14StoreDirConfigERKNS_9StorePathERKNS_15BasicDerivationERKNS0_12BuildOptionsE
libnixstore.so:_ZN3nix10ServeProto21BasicClientConnection26getBuildDerivationResponseERKNS_14StoreDirConfigE
libnixstore.so:_ZN3nix10ServeProto21BasicClientConnection9handshakeERNS_12BufferedSinkERNS_6SourceEjSt17basic_string_viewIcSt11char_traitsIcEE
libnixstore.so:_ZN3nix10ServeProto21BasicServerConnection9handshakeERNS_12BufferedSinkERNS_6SourceEj
libnixstore.so:_ZN3nix10ServeProto9SerialiseINS0_12BuildOptionsEE4readERKNS_14StoreDirConfigENS0_8ReadConnE
libnixstore.so:_ZN3nix10ServeProto9SerialiseINS0_12BuildOptionsEE5writeERKNS_14StoreDirConfigENS0_9WriteConnERKS2_
libnixstore.so:_ZN3nix10ServeProto9SerialiseINS_11BuildResultEE4readERKNS_14StoreDirConfigENS0_8ReadConnE
libnixstore.so:_ZN3nix10ServeProto9SerialiseINS_11BuildResultEE5writeERKNS_14StoreDirConfigENS0_9WriteConnERKS2_
libnixstore.so:_ZN3nix10ServeProto9SerialiseINS_20UnkeyedValidPathInfoEE4readERKNS_14StoreDirConfigENS0_8ReadConnE
libnixstore.so:_ZN3nix10ServeProto9SerialiseINS_20UnkeyedValidPathInfoEE5writeERKNS_14StoreDirConfigENS0_9WriteConnERKS2_
libnixstore.so:_ZN3nix10nixVersionB5cxx11E
libnixstore.so:_ZN3nix10switchLinkENSt7__cxx1112basic_stringIcSt11char_traitsIcESaIcEEES5_
libnixstore.so:_ZN3nix11BaseSettingINS_11SandboxModeEE12convertToArgERNS_4ArgsERKNSt7__cxx1112basic_stringIcSt11char_traitsIcESaIcEEE
libnixstore.so:_ZN3nix11CommonProto9SerialiseINS_11RealisationEE4readERKNS_14StoreDirConfigENS0_8ReadConnE
libnixstore.so:_ZN3nix11CommonProto9SerialiseINS_11RealisationEE5writeERKNS_14StoreDirConfigENS0_9WriteConnERKS2_
libnixstore.so:_ZN3nix11CommonProto9SerialiseINS_14ContentAddressEE4readERKNS_14StoreDirConfigENS0_8ReadConnE
libnixstore.so:_ZN3nix11CommonProto9SerialiseINS_14ContentAddressEE5writeERKNS_14StoreDirConfigENS0_9WriteConnERKS2_
libnixstore.so:_ZN3nix11CommonProto9SerialiseINS_9DrvOutputEE4readERKNS_14StoreDirConfigENS0_8ReadConnE
libnixstore.so:_ZN3nix11CommonProto9SerialiseINS_9DrvOutputEE5writeERKNS_14StoreDirConfigENS0_9WriteConnERKS2_
libnixstore.so:_ZN3nix11CommonProto9SerialiseINS_9StorePathEE4readERKNS_14StoreDirConfigENS0_8ReadConnE
libnixstore.so:_ZN3nix11CommonProto9SerialiseINS_9StorePathEE5writeERKNS_14StoreDirConfigENS0_9WriteConnERKS2_
libnixstore.so:_ZN3nix11CommonProto9SerialiseINSt7__cxx1112basic_stringIcSt11char_traitsIcESaIcEEEE4readERKNS_14StoreDirConfigENS0_8ReadConnE
libnixstore.so:_ZN3nix11CommonProto9SerialiseINSt7__cxx1112basic_stringIcSt11char_traitsIcESaIcEEEE5writeERKNS_14StoreDirConfigENS0_9WriteConnERKS7_
libnixstore.so:_ZN3nix11CommonProto9SerialiseISt8optionalINS_14ContentAddressEEE4readERKNS_14StoreDirConfigENS0_8ReadConnE
libnixstore.so:_ZN3nix11CommonProto9SerialiseISt8optionalINS_14ContentAddressEEE5writeERKNS_14StoreDirConfigENS0_9WriteConnERKS4_
libnixstore.so:_ZN3nix11CommonProto9SerialiseISt8optionalINS_9StorePathEEE4readERKNS_14StoreDirConfigENS0_8ReadConnE
libnixstore.so:_ZN3nix11CommonProto9SerialiseISt8optionalINS_9StorePathEEE5writeERKNS_14StoreDirConfigENS0_9WriteConnERKS4_
libnixstore.so:_ZN3nix11DerivedPath10fromSingleERKNS_17SingleDerivedPathE
libnixstore.so:_ZN3nix11DerivedPath11parseLegacyERKNS_14StoreDirConfigESt17basic_string_viewIcSt11char_traitsIcEERKNS_27ExperimentalFeatureSettingsE
libnixstore.so:_ZN3nix11DerivedPath5parseERKNS_14StoreDirConfigESt17basic_string_viewIcSt11char_traitsIcEERKNS_27ExperimentalFeatureSettingsE
libnixstore.so:_ZN3nix11OutputsSpec5parseESt17basic_string_viewIcSt11char_traitsIcEE
libnixstore.so:_ZN3nix11OutputsSpec8parseOptESt17basic_string_viewIcSt11char_traitsIcEE
libnixstore.so:_ZN3nix11Realisation4signERKNS_6SignerE
libnixstore.so:_ZN3nix11Realisation7closureERNS_5StoreERKSt3setIS0_St4lessIS0_ESaIS0_EE
libnixstore.so:_ZN3nix11Realisation7closureERNS_5StoreERKSt3setIS0_St4lessIS0_ESaIS0_EERS7_
libnixstore.so:_ZN3nix11Realisation8fromJSONERKN8nlohmann16json_abi_v3_11_210basic_jsonISt3mapSt6vectorNSt7__cxx1112basic_stringIcSt11char_traitsIcESaIcEEEblmdSaNS2_14adl_serializerES5_IhSaIhEEEERKSB_
libnixstore.so:_ZN3nix11RemoteStore10addToStoreERKNS_13ValidPathInfoERNS_6SourceENS_10RepairFlagENS_13CheckSigsFlagE
libnixstore.so:_ZN3nix11RemoteStore10buildPathsERKSt6vectorINS_11DerivedPathESaIS2_EENS_9BuildModeESt10shared_ptrINS_5StoreEE
libnixstore.so:_ZN3nix11RemoteStore10ensurePathERKNS_9StorePathE
libnixstore.so:_ZN3nix11RemoteStore10getVersionB5cxx11Ev
libnixstore.so:_ZN3nix11RemoteStore10setOptionsERNS0_10ConnectionE
libnixstore.so:_ZN3nix11RemoteStore10setOptionsEv
libnixstore.so:_ZN3nix11RemoteStore11addBuildLogERKNS_9StorePathESt17basic_string_viewIcSt11char_traitsIcEE
libnixstore.so:_ZN3nix11RemoteStore11addTempRootERKNS_9StorePathE
libnixstore.so:_ZN3nix11RemoteStore11getProtocolEv
libnixstore.so:_ZN3nix11RemoteStore11narFromPathERKNS_9StorePathERNS_4SinkE
libnixstore.so:_ZN3nix11RemoteStore11verifyStoreEbNS_10RepairFlagE
libnixstore.so:_ZN3nix11RemoteStore12addCAToStoreERNS_6SourceESt17basic_string_viewIcSt11char_traitsIcEENS_20ContentAddressMethodENS_13HashAlgorithmERKSt3setINS_9StorePathESt4lessISA_ESaISA_EENS_10RepairFlagE
libnixstore.so:_ZN3nix11RemoteStore12queryMissingERKSt6vectorINS_11DerivedPathESaIS2_EERSt3setINS_9StorePathESt4lessIS8_ESaIS8_EESD_SD_RmSE_
libnixstore.so:_ZN3nix11RemoteStore13addSignaturesERKNS_9StorePathERKSt3setINSt7__cxx1112basic_stringIcSt11char_traitsIcESaIcEEESt4lessISA_ESaISA_EE
libnixstore.so:_ZN3nix11RemoteStore13getConnectionEv
libnixstore.so:_ZN3nix11RemoteStore13getFSAccessorEb
libnixstore.so:_ZN3nix11RemoteStore13optimiseStoreEv
libnixstore.so:_ZN3nix11RemoteStore14collectGarbageERKNS_9GCOptionsERNS_9GCResultsE
libnixstore.so:_ZN3nix11RemoteStore14initConnectionERNS0_10ConnectionE
libnixstore.so:_ZN3nix11RemoteStore14queryReferrersERKNS_9StorePathERSt3setIS1_St4lessIS1_ESaIS1_EE
libnixstore.so:_ZN3nix11RemoteStore15buildDerivationERKNS_9StorePathERKNS_15BasicDerivationENS_9BuildModeE
libnixstore.so:_ZN3nix11RemoteStore15isTrustedClientEv
libnixstore.so:_ZN3nix11RemoteStore15queryValidPathsERKSt3setINS_9StorePathESt4lessIS2_ESaIS2_EENS_14SubstituteFlagE
libnixstore.so:_ZN3nix11RemoteStore16ConnectionHandle13processStderrEPNS_4SinkEPNS_6SourceEbb
libnixstore.so:_ZN3nix11RemoteStore16ConnectionHandle14withFramedSinkESt8functionIFvRNS_4SinkEEE
libnixstore.so:_ZN3nix11RemoteStore16ConnectionHandleD1Ev
libnixstore.so:_ZN3nix11RemoteStore16ConnectionHandleD2Ev
libnixstore.so:_ZN3nix11RemoteStore17registerDrvOutputERKNS_11RealisationE
libnixstore.so:_ZN3nix11RemoteStore18addMultipleToStoreEOSt6vectorISt4pairINS_13ValidPathInfoESt10unique_ptrINS_6SourceESt14default_deleteIS5_EEESaIS9_EERNS_8ActivityENS_10RepairFlagENS_13CheckSigsFlagE
libnixstore.so:_ZN3nix11RemoteStore18addMultipleToStoreERNS_6SourceENS_10RepairFlagENS_13CheckSigsFlagE
libnixstore.so:_ZN3nix11RemoteStore18addToStoreFromDumpERNS_6SourceESt17basic_string_viewIcSt11char_traitsIcEENS_23FileSerialisationMethodENS_20ContentAddressMethodENS_13HashAlgorithmERKSt3setINS_9StorePathESt4lessISB_ESaISB_EENS_10RepairFlagE
libnixstore.so:_ZN3nix11RemoteStore18queryAllValidPathsEv
libnixstore.so:_ZN3nix11RemoteStore18queryValidDeriversERKNS_9StorePathE
libnixstore.so:_ZN3nix11RemoteStore19flushBadConnectionsEv
libnixstore.so:_ZN3nix11RemoteStore19isValidPathUncachedERKNS_9StorePathE
libnixstore.so:_ZN3nix11RemoteStore21buildPathsWithResultsERKSt6vectorINS_11DerivedPathESaIS2_EENS_9BuildModeESt10shared_ptrINS_5StoreEE
libnixstore.so:_ZN3nix11RemoteStore21copyDrvsFromEvalStoreERKSt6vectorINS_11DerivedPathESaIS2_EESt10shared_ptrINS_5StoreEE
libnixstore.so:_ZN3nix11RemoteStore21openConnectionWrapperEv
libnixstore.so:_ZN3nix11RemoteStore21queryPathFromHashPartERKNSt7__cxx1112basic_stringIcSt11char_traitsIcESaIcEEE
libnixstore.so:_ZN3nix11RemoteStore21queryPathInfoUncachedERKNS_9StorePathENS_8CallbackISt10shared_ptrIKNS_13ValidPathInfoEEEE
libnixstore.so:_ZN3nix11RemoteStore22queryDerivationOutputsERKNS_9StorePathE
libnixstore.so:_ZN3nix11RemoteStore23querySubstitutablePathsERKSt3setINS_9StorePathESt4lessIS2_ESaIS2_EE
libnixstore.so:_ZN3nix11RemoteStore24queryRealisationUncachedERKNS_9DrvOutputENS_8CallbackISt10shared_ptrIKNS_11RealisationEEEE
libnixstore.so:_ZN3nix11RemoteStore27querySubstitutablePathInfosERKSt3mapINS_9StorePathESt8optionalINS_14ContentAddressEESt4lessIS2_ESaISt4pairIKS2_S5_EEERS1_IS2_NS_21SubstitutablePathInfoES7_SaIS8_IS9_SF_EEE
libnixstore.so:_ZN3nix11RemoteStore31queryPartialDerivationOutputMapB5cxx11ERKNS_9StorePathEPNS_5StoreE
libnixstore.so:_ZN3nix11RemoteStore7connectEv
libnixstore.so:_ZN3nix11RemoteStore9findRootsB5cxx11Eb
libnixstore.so:_ZN3nix11RemoteStoreC2ERKSt3mapINSt7__cxx1112basic_stringIcSt11char_traitsIcESaIcEEES7_St4lessIS7_ESaISt4pairIKS7_S7_EEE
libnixstore.so:_ZN3nix11SQLiteError6throw_EP7sqlite3ONS_7HintFmtE
libnixstore.so:_ZN3nix11SQLiteErrorC1EPKcS2_iiiONS_7HintFmtE
libnixstore.so:_ZN3nix11SQLiteErrorC2EPKcS2_iiiONS_7HintFmtE
libnixstore.so:_ZN3nix11StoreConfig24getDefaultSystemFeaturesB5cxx11Ev
libnixstore.so:_ZN3nix11WorkerProto11allFeaturesB5cxx11E
libnixstore.so:_ZN3nix11WorkerProto21BasicClientConnection11addTempRootERKNS_14StoreDirConfigEPbRKNS_9StorePathE
libnixstore.so:_ZN3nix11WorkerProto21BasicClientConnection11importPathsERKNS_14StoreDirConfigEPbRNS_6SourceE
libnixstore.so:_ZN3nix11WorkerProto21BasicClientConnection11narFromPathERKNS_14StoreDirConfigEPbRKNS_9StorePathESt8functionIFvRNS_6SourceEEE
libnixstore.so:_ZN3nix11WorkerProto21BasicClientConnection13postHandshakeERKNS_14StoreDirConfigE
libnixstore.so:_ZN3nix11WorkerProto21BasicClientConnection13processStderrEPbPNS_4SinkEPNS_6SourceEbb
libnixstore.so:_ZN3nix11WorkerProto21BasicClientConnection13queryPathInfoERKNS_14StoreDirConfigEPbRKNS_9StorePathE
libnixstore.so:_ZN3nix11WorkerProto21BasicClientConnection15queryValidPathsERKNS_14StoreDirConfigEPbRKSt3setINS_9StorePathESt4lessIS7_ESaIS7_EENS_14SubstituteFlagE
libnixstore.so:_ZN3nix11WorkerProto21BasicClientConnection19processStderrReturnEPNS_4SinkEPNS_6SourceEbb
libnixstore.so:_ZN3nix11WorkerProto21BasicClientConnection25putBuildDerivationRequestERKNS_14StoreDirConfigEPbRKNS_9StorePathERKNS_15BasicDerivationENS_9BuildModeE
libnixstore.so:_ZN3nix11WorkerProto21BasicClientConnection26getBuildDerivationResponseERKNS_14StoreDirConfigEPb
libnixstore.so:_ZN3nix11WorkerProto21BasicClientConnection9handshakeERNS_12BufferedSinkERNS_6SourceEjRKSt3setINSt7__cxx1112basic_stringIcSt11char_traitsIcESaIcEEESt4lessISC_ESaISC_EE
libnixstore.so:_ZN3nix11WorkerProto21BasicClientConnectionD0Ev
libnixstore.so:_ZN3nix11WorkerProto21BasicClientConnectionD1Ev
libnixstore.so:_ZN3nix11WorkerProto21BasicClientConnectionD2Ev
libnixstore.so:_ZN3nix11WorkerProto21BasicServerConnection13postHandshakeERKNS_14StoreDirConfigERKNS0_19ClientHandshakeInfoE
libnixstore.so:_ZN3nix11WorkerProto21BasicServerConnection9handshakeERNS_12BufferedSinkERNS_6SourceEjRKSt3setINSt7__cxx1112basic_stringIcSt11char_traitsIcESaIcEEESt4lessISC_ESaISC_EE
libnixstore.so:_ZN3nix11WorkerProto9SerialiseINS0_19ClientHandshakeInfoEE4readERKNS_14StoreDirConfigENS0_8ReadConnE
libnixstore.so:_ZN3nix11WorkerProto9SerialiseINS0_19ClientHandshakeInfoEE5writeERKNS_14StoreDirConfigENS0_9WriteConnERKS2_
libnixstore.so:_ZN3nix11WorkerProto9SerialiseINS_11BuildResultEE4readERKNS_14StoreDirConfigENS0_8ReadConnE
libnixstore.so:_ZN3nix11WorkerProto9SerialiseINS_11BuildResultEE5writeERKNS_14StoreDirConfigENS0_9WriteConnERKS2_
libnixstore.so:_ZN3nix11WorkerProto9SerialiseINS_11DerivedPathEE4readERKNS_14StoreDirConfigENS0_8ReadConnE
libnixstore.so:_ZN3nix11WorkerProto9SerialiseINS_11DerivedPathEE5writeERKNS_14StoreDirConfigENS0_9WriteConnERKS2_
libnixstore.so:_ZN3nix11WorkerProto9SerialiseINS_13ValidPathInfoEE4readERKNS_14StoreDirConfigENS0_8ReadConnE
libnixstore.so:_ZN3nix11WorkerProto9SerialiseINS_13ValidPathInfoEE5writeERKNS_14StoreDirConfigENS0_9WriteConnERKS2_
libnixstore.so:_ZN3nix11WorkerProto9SerialiseINS_16KeyedBuildResultEE4readERKNS_14StoreDirConfigENS0_8ReadConnE
libnixstore.so:_ZN3nix11WorkerProto9SerialiseINS_16KeyedBuildResultEE5writeERKNS_14StoreDirConfigENS0_9WriteConnERKS2_
libnixstore.so:_ZN3nix11WorkerProto9SerialiseINS_20UnkeyedValidPathInfoEE4readERKNS_14StoreDirConfigENS0_8ReadConnE
libnixstore.so:_ZN3nix11WorkerProto9SerialiseINS_20UnkeyedValidPathInfoEE5writeERKNS_14StoreDirConfigENS0_9WriteConnERKS2_
libnixstore.so:_ZN3nix11WorkerProto9SerialiseINS_9BuildModeEE4readERKNS_14StoreDirConfigENS0_8ReadConnE
libnixstore.so:_ZN3nix11WorkerProto9SerialiseINS_9BuildModeEE5writeERKNS_14StoreDirConfigENS0_9WriteConnERKS2_
libnixstore.so:_ZN3nix11WorkerProto9SerialiseISt8optionalINS_11TrustedFlagEEE4readERKNS_14StoreDirConfigENS0_8ReadConnE
libnixstore.so:_ZN3nix11WorkerProto9SerialiseISt8optionalINS_11TrustedFlagEEE5writeERKNS_14StoreDirConfigENS0_9WriteConnERKS4_
libnixstore.so:_ZN3nix11WorkerProto9SerialiseISt8optionalINSt6chrono8durationIlSt5ratioILl1ELl1000000EEEEEE4readERKNS_14StoreDirConfigENS0_8ReadConnE
libnixstore.so:_ZN3nix11WorkerProto9SerialiseISt8optionalINSt6chrono8durationIlSt5ratioILl1ELl1000000EEEEEE5writeERKNS_14StoreDirConfigENS0_9WriteConnERKS8_
libnixstore.so:_ZN3nix11copyClosureERNS_5StoreES1_RKSt3setINS_12RealisedPathESt4lessIS3_ESaIS3_EENS_10RepairFlagENS_13CheckSigsFlagENS_14SubstituteFlagE
libnixstore.so:_ZN3nix11copyClosureERNS_5StoreES1_RKSt3setINS_9StorePathESt4lessIS3_ESaIS3_EENS_10RepairFlagENS_13CheckSigsFlagENS_14SubstituteFlagE
libnixstore.so:_ZN3nix11getMachinesEv
libnixstore.so:_ZN3nix11lockProfileERNS_9PathLocksERKNSt7__cxx1112basic_stringIcSt11char_traitsIcESaIcEEE
libnixstore.so:_ZN3nix11profilesDirB5cxx11Ev
libnixstore.so:_ZN3nix11upcast_goalESt10shared_ptrINS_20PathSubstitutionGoalEE
libnixstore.so:_ZN3nix11upcast_goalESt10shared_ptrINS_25DrvOutputSubstitutionGoalEE
libnixstore.so:_ZN3nix12FileTransfer19enqueueFileTransferERKNS_19FileTransferRequestE
libnixstore.so:_ZN3nix12FileTransfer6uploadERKNS_19FileTransferRequestE
libnixstore.so:_ZN3nix12FileTransfer8downloadEONS_19FileTransferRequestERNS_4SinkESt8functionIFvNS_18FileTransferResultEEE
libnixstore.so:_ZN3nix12FileTransfer8downloadERKNS_19FileTransferRequestE
libnixstore.so:_ZN3nix12HookInstanceC1Ev
libnixstore.so:_ZN3nix12HookInstanceC2Ev
libnixstore.so:_ZN3nix12HookInstanceD1Ev
libnixstore.so:_ZN3nix12HookInstanceD2Ev
libnixstore.so:_ZN3nix12LocalFSStore10drvsLogDirB5cxx11E
libnixstore.so:_ZN3nix12LocalFSStore11narFromPathERKNS_9StorePathERNS_4SinkE
libnixstore.so:_ZN3nix12LocalFSStore13getFSAccessorEb
libnixstore.so:_ZN3nix12LocalFSStore16getBuildLogExactB5cxx11ERKNS_9StorePathE
libnixstore.so:_ZN3nix12LocalFSStoreC2ERKSt3mapINSt7__cxx1112basic_stringIcSt11char_traitsIcESaIcEEES7_St4lessIS7_ESaISt4pairIKS7_S7_EEE
libnixstore.so:_ZN3nix12RealisedPath7closureERNS_5StoreERKSt3setIS0_St4lessIS0_ESaIS0_EERS7_
libnixstore.so:_ZN3nix12buildProfileERKNSt7__cxx1112basic_stringIcSt11char_traitsIcESaIcEEEOSt6vectorINS_7PackageESaIS9_EE
libnixstore.so:_ZN3nix12createSSHEnvB5cxx11Ev
libnixstore.so:_ZN3nix12initLibStoreEb
libnixstore.so:_ZN3nix12isDerivationESt17basic_string_viewIcSt11char_traitsIcEE
libnixstore.so:_ZN3nix12loadConfFileERNS_14AbstractConfigE
libnixstore.so:_ZN3nix12openLockFileERKNSt7__cxx1112basic_stringIcSt11char_traitsIcESaIcEEEb
libnixstore.so:_ZN3nix12setupSeccompEv
libnixstore.so:_ZN3nix13ValidPathInfo4signERKNS_5StoreERKNS_6SignerE
libnixstore.so:_ZN3nix13ValidPathInfoC1ERKNS_5StoreESt17basic_string_viewIcSt11char_traitsIcEEONS_28ContentAddressWithReferencesENS_4HashE
libnixstore.so:_ZN3nix13ValidPathInfoC2ERKNS_5StoreESt17basic_string_viewIcSt11char_traitsIcEEONS_28ContentAddressWithReferencesENS_4HashE
libnixstore.so:_ZN3nix13copyStorePathERNS_5StoreES1_RKNS_9StorePathENS_10RepairFlagENS_13CheckSigsFlagE
libnixstore.so:_ZN3nix13nextComponentERPKcS1_
libnixstore.so:_ZN3nix13useBuildUsersEv
libnixstore.so:_ZN3nix14ContentAddress5parseESt17basic_string_viewIcSt11char_traitsIcEE
libnixstore.so:_ZN3nix14ContentAddress8parseOptESt17basic_string_viewIcSt11char_traitsIcEE
libnixstore.so:_ZN3nix14DerivationGoal10isReadDescEi
libnixstore.so:_ZN3nix14DerivationGoal10tryToBuildEv
libnixstore.so:_ZN3nix14DerivationGoal10waiteeDoneESt10shared_ptrINS_4GoalEENS2_8ExitCodeE
libnixstore.so:_ZN3nix14DerivationGoal11openLogFileB5cxx11Ev
libnixstore.so:_ZN3nix14DerivationGoal12closeLogFileEv
libnixstore.so:_ZN3nix14DerivationGoal12tryBuildHookEv
libnixstore.so:_ZN3nix14DerivationGoal13repairClosureEv
libnixstore.so:_ZN3nix14DerivationGoal13tryLocalBuildEv
libnixstore.so:_ZN3nix14DerivationGoal14closeReadPipesEv
libnixstore.so:_ZN3nix14DerivationGoal14getChildStatusEv
libnixstore.so:_ZN3nix14DerivationGoal14haveDerivationEv
libnixstore.so:_ZN3nix14DerivationGoal15registerOutputsB5cxx11Ev
libnixstore.so:_ZN3nix14DerivationGoal16addWantedOutputsERKNS_11OutputsSpecE
libnixstore.so:_ZN3nix14DerivationGoal16resolvedFinishedEv
libnixstore.so:_ZN3nix14DerivationGoal17checkPathValidityB5cxx11Ev
libnixstore.so:_ZN3nix14DerivationGoal17handleChildOutputEiSt17basic_string_viewIcSt11char_traitsIcEE
libnixstore.so:_ZN3nix14DerivationGoal18assertPathValidityB5cxx11Ev
libnixstore.so:_ZN3nix14DerivationGoal18cleanupHookFinallyEv
libnixstore.so:_ZN3nix14DerivationGoal19cleanupPreChildKillEv
libnixstore.so:_ZN3nix14DerivationGoal20cleanupPostChildKillEv
libnixstore.so:_ZN3nix14DerivationGoal20gaveUpOnSubstitutionEv
libnixstore.so:_ZN3nix14DerivationGoal24queryDerivationOutputMapB5cxx11Ev
libnixstore.so:_ZN3nix14DerivationGoal28cleanupDecideWhetherDiskFullEv
libnixstore.so:_ZN3nix14DerivationGoal31queryPartialDerivationOutputMapB5cxx11Ev
libnixstore.so:_ZN3nix14DerivationGoal37cleanupPostOutputsRegisteredModeCheckEv
libnixstore.so:_ZN3nix14DerivationGoal3keyB5cxx11Ev
libnixstore.so:_ZN3nix14DerivationGoal40cleanupPostOutputsRegisteredModeNonCheckEv
libnixstore.so:_ZN3nix14DerivationGoal4doneENS_11BuildResult6StatusESt3mapINSt7__cxx1112basic_stringIcSt11char_traitsIcESaIcEEENS_11RealisationESt4lessIS9_ESaISt4pairIKS9_SA_EEESt8optionalINS_5ErrorEE
libnixstore.so:_ZN3nix14DerivationGoal4initEv
libnixstore.so:_ZN3nix14DerivationGoal7startedEv
libnixstore.so:_ZN3nix14DerivationGoal8timedOutEONS_5ErrorE
libnixstore.so:_ZN3nix14DerivationGoal9buildDoneEv
libnixstore.so:_ZN3nix14DerivationGoal9flushLineEv
libnixstore.so:_ZN3nix14DerivationGoal9handleEOFEi
libnixstore.so:_ZN3nix14DerivationGoal9killChildEv
libnixstore.so:_ZN3nix14DerivationGoalC1ERKNS_9StorePathERKNS_11OutputsSpecERNS_6WorkerENS_9BuildModeE
libnixstore.so:_ZN3nix14DerivationGoalC1ERKNS_9StorePathERKNS_15BasicDerivationERKNS_11OutputsSpecERNS_6WorkerENS_9BuildModeE
libnixstore.so:_ZN3nix14DerivationGoalC2ERKNS_9StorePathERKNS_11OutputsSpecERNS_6WorkerENS_9BuildModeE
libnixstore.so:_ZN3nix14DerivationGoalC2ERKNS_9StorePathERKNS_15BasicDerivationERKNS_11OutputsSpecERNS_6WorkerENS_9BuildModeE
libnixstore.so:_ZN3nix14DerivationGoalD0Ev
libnixstore.so:_ZN3nix14DerivationGoalD1Ev
libnixstore.so:_ZN3nix14DerivationGoalD2Ev
libnixstore.so:_ZN3nix14LegacySSHStore10addToStoreERKNS_13ValidPathInfoERNS_6SourceENS_10RepairFlagENS_13CheckSigsFlagE
libnixstore.so:_ZN3nix14LegacySSHStore10buildPathsERKSt6vectorINS_11DerivedPathESaIS2_EENS_9BuildModeESt10shared_ptrINS_5StoreEE
libnixstore.so:_ZN3nix14LegacySSHStore11getProtocolEv
libnixstore.so:_ZN3nix14LegacySSHStore11narFromPathERKNS_9StorePathERNS_4SinkE
libnixstore.so:_ZN3nix14LegacySSHStore11narFromPathERKNS_9StorePathESt8functionIFvRNS_6SourceEEE
libnixstore.so:_ZN3nix14LegacySSHStore14openConnectionEv
libnixstore.so:_ZN3nix14LegacySSHStore15buildDerivationERKNS_9StorePathERKNS_15BasicDerivationENS_9BuildModeE
libnixstore.so:_ZN3nix14LegacySSHStore15queryValidPathsERKSt3setINS_9StorePathESt4lessIS2_ESaIS2_EENS_14SubstituteFlagE
libnixstore.so:_ZN3nix14LegacySSHStore15queryValidPathsERKSt3setINS_9StorePathESt4lessIS2_ESaIS2_EEbNS_14SubstituteFlagE
libnixstore.so:_ZN3nix14LegacySSHStore16computeFSClosureERKSt3setINS_9StorePathESt4lessIS2_ESaIS2_EERS6_bbb
libnixstore.so:_ZN3nix14LegacySSHStore16getConnectionPidEv
libnixstore.so:_ZN3nix14LegacySSHStore18getConnectionStatsEv
libnixstore.so:_ZN3nix14LegacySSHStore20buildDerivationAsyncERKNS_9StorePathERKNS_15BasicDerivationERKNS_10ServeProto12BuildOptionsE
libnixstore.so:_ZN3nix14LegacySSHStore21queryPathInfoUncachedERKNS_9StorePathENS_8CallbackISt10shared_ptrIKNS_13ValidPathInfoEEEE
libnixstore.so:_ZN3nix14LegacySSHStore22queryPathInfosUncachedERKSt3setINS_9StorePathESt4lessIS2_ESaIS2_EE
libnixstore.so:_ZN3nix14LegacySSHStore24addMultipleToStoreLegacyERNS_5StoreERKSt3setINS_9StorePathESt4lessIS4_ESaIS4_EE
libnixstore.so:_ZN3nix14LegacySSHStore6getUriB5cxx11Ev
libnixstore.so:_ZN3nix14LegacySSHStore7connectEv
libnixstore.so:_ZN3nix14LegacySSHStoreC1ESt17basic_string_viewIcSt11char_traitsIcEES4_RKSt3mapINSt7__cxx1112basic_stringIcS3_SaIcEEES9_St4lessIS9_ESaISt4pairIKS9_S9_EEE
libnixstore.so:_ZN3nix14LegacySSHStoreC2ESt17basic_string_viewIcSt11char_traitsIcEES4_RKSt3mapINSt7__cxx1112basic_stringIcS3_SaIcEEES9_St4lessIS9_ESaISt4pairIKS9_S9_EEE
libnixstore.so:_ZN3nix14SSHStoreConfig3docB5cxx11Ev
libnixstore.so:_ZN3nix14SSHStoreConfigC1ESt17basic_string_viewIcSt11char_traitsIcEES4_RKSt3mapINSt7__cxx1112basic_stringIcS3_SaIcEEES9_St4lessIS9_ESaISt4pairIKS9_S9_EEE
libnixstore.so:_ZN3nix14SSHStoreConfigC2ESt17basic_string_viewIcSt11char_traitsIcEES4_RKSt3mapINSt7__cxx1112basic_stringIcS3_SaIcEEES9_St4lessIS9_ESaISt4pairIKS9_S9_EEE
libnixstore.so:_ZN3nix14StoreDirConfig9showPathsB5cxx11ERKSt3setINS_9StorePathESt4lessIS2_ESaIS2_EE
libnixstore.so:_ZN3nix14StoreReference5parseERKNSt7__cxx1112basic_stringIcSt11char_traitsIcESaIcEEERKSt3mapIS6_S6_St4lessIS6_ESaISt4pairIS7_S6_EEE
libnixstore.so:_ZN3nix14UDSRemoteStore10Connection10closeWriteEv
libnixstore.so:_ZN3nix14UDSRemoteStore14openConnectionEv
libnixstore.so:_ZN3nix14UDSRemoteStore15addIndirectRootERKNSt7__cxx1112basic_stringIcSt11char_traitsIcESaIcEEE
libnixstore.so:_ZN3nix14UDSRemoteStore6getUriB5cxx11Ev
libnixstore.so:_ZN3nix14UDSRemoteStoreC1ERKSt3mapINSt7__cxx1112basic_stringIcSt11char_traitsIcESaIcEEES7_St4lessIS7_ESaISt4pairIKS7_S7_EEE
libnixstore.so:_ZN3nix14UDSRemoteStoreC1ESt17basic_string_viewIcSt11char_traitsIcEES4_RKSt3mapINSt7__cxx1112basic_stringIcS3_SaIcEEES9_St4lessIS9_ESaISt4pairIKS9_S9_EEE
libnixstore.so:_ZN3nix14UDSRemoteStoreC2ERKSt3mapINSt7__cxx1112basic_stringIcSt11char_traitsIcESaIcEEES7_St4lessIS7_ESaISt4pairIKS7_S7_EEE
libnixstore.so:_ZN3nix14UDSRemoteStoreC2ESt17basic_string_viewIcSt11char_traitsIcEES4_RKSt3mapINSt7__cxx1112basic_stringIcS3_SaIcEEES9_St4lessIS9_ESaISt4pairIKS9_S9_EEE
libnixstore.so:_ZN3nix14addToWeakGoalsERSt3setISt8weak_ptrINS_4GoalEESt10owner_lessIS3_ESaIS3_EESt10shared_ptrIS2_E
libnixstore.so:_ZN3nix14deleteLockFileERKNSt7__cxx1112basic_stringIcSt11char_traitsIcESaIcEEEi
libnixstore.so:_ZN3nix14handleDiffHookEjjRKNSt7__cxx1112basic_stringIcSt11char_traitsIcESaIcEEES7_S7_S7_
libnixstore.so:_ZN3nix14outputPathNameB5cxx11ESt17basic_string_viewIcSt11char_traitsIcEES3_
libnixstore.so:_ZN3nix14readDerivationERNS_6SourceERKNS_14StoreDirConfigERNS_15BasicDerivationESt17basic_string_viewIcSt11char_traitsIcEE
libnixstore.so:_ZN3nix14toDerivedPathsESt6vectorINS_20StorePathWithOutputsESaIS1_EE
libnixstore.so:_ZN3nix15BasicDerivation12nameFromPathERKNS_9StorePathE
libnixstore.so:_ZN3nix15BasicDerivation13applyRewritesERKSt3mapINSt7__cxx1112basic_stringIcSt11char_traitsIcESaIcEEES7_St4lessIS7_ESaISt4pairIKS7_S7_EEE
libnixstore.so:_ZN3nix15Implementations10registeredE
libnixstore.so:_ZN3nix15PathRefScanSink14getResultPathsEv
libnixstore.so:_ZN3nix15PathRefScanSink9fromPathsERKSt3setINS_9StorePathESt4lessIS2_ESaIS2_EE
libnixstore.so:_ZN3nix15PathRefScanSinkC1EOSt3setINSt7__cxx1112basic_stringIcSt11char_traitsIcESaIcEEESt4lessIS7_ESaIS7_EEOSt3mapIS7_NS_9StorePathES9_SaISt4pairIKS7_SE_EEE
libnixstore.so:_ZN3nix15PathRefScanSinkC2EOSt3setINSt7__cxx1112basic_stringIcSt11char_traitsIcESaIcEEESt4lessIS7_ESaIS7_EEOSt3mapIS7_NS_9StorePathES9_SaISt4pairIKS7_SE_EEE
libnixstore.so:_ZN3nix15acquireUserLockEjb
libnixstore.so:_ZN3nix15builtinBuildenvERKNS_15BasicDerivationERKSt3mapINSt7__cxx1112basic_stringIcSt11char_traitsIcESaIcEEES9_St4lessIS9_ESaISt4pairIKS9_S9_EEE
libnixstore.so:_ZN3nix15builtinFetchurlERKNS_15BasicDerivationERKSt3mapINSt7__cxx1112basic_stringIcSt11char_traitsIcESaIcEEES9_St4lessIS9_ESaISt4pairIKS9_S9_EEERSD_SJ_
libnixstore.so:_ZN3nix15commonChildInitEv
libnixstore.so:_ZN3nix15compareVersionsESt17basic_string_viewIcSt11char_traitsIcEES3_
libnixstore.so:_ZN3nix15findGenerationsENSt7__cxx1112basic_stringIcSt11char_traitsIcESaIcEEE
libnixstore.so:_ZN3nix15getDerivationCAERKNS_15BasicDerivationE
libnixstore.so:_ZN3nix15getFileTransferEv
libnixstore.so:_ZN3nix15hashPlaceholderB5cxx11ESt17basic_string_viewIcSt11char_traitsIcEE
libnixstore.so:_ZN3nix15isTrustedClientEv
libnixstore.so:_ZN3nix15makeNarAccessorEONSt7__cxx1112basic_stringIcSt11char_traitsIcESaIcEEE
libnixstore.so:_ZN3nix15makeNarAccessorERNS_6SourceE
libnixstore.so:_ZN3nix15parseDerivationERKNS_14StoreDirConfigEONSt7__cxx1112basic_stringIcSt11char_traitsIcESaIcEEESt17basic_string_viewIcS6_ERKNS_27ExperimentalFeatureSettingsE
libnixstore.so:_ZN3nix15rootChannelsDirB5cxx11Ev
libnixstore.so:_ZN3nix15rootProfilesDirB5cxx11Ev
libnixstore.so:_ZN3nix15writeDerivationERNS_4SinkERKNS_14StoreDirConfigERKNS_15BasicDerivationE
libnixstore.so:_ZN3nix15writeDerivationERNS_5StoreERKNS_10DerivationENS_10RepairFlagEb
libnixstore.so:_ZN3nix16BinaryCacheStore10addToStoreERKNS_13ValidPathInfoERNS_6SourceENS_10RepairFlagENS_13CheckSigsFlagE
libnixstore.so:_ZN3nix16BinaryCacheStore10addToStoreESt17basic_string_viewIcSt11char_traitsIcEERKNS_10SourcePathENS_20ContentAddressMethodENS_13HashAlgorithmERKSt3setINS_9StorePathESt4lessISB_ESaISB_EERSt8functionIFbRKNSt7__cxx1112basic_stringIcS3_SaIcEEEEENS_10RepairFlagE
libnixstore.so:_ZN3nix16BinaryCacheStore10upsertFileERKNSt7__cxx1112basic_stringIcSt11char_traitsIcESaIcEEEOS6_S8_
libnixstore.so:_ZN3nix16BinaryCacheStore11addBuildLogERKNS_9StorePathESt17basic_string_viewIcSt11char_traitsIcEE
libnixstore.so:_ZN3nix16BinaryCacheStore11narFromPathERKNS_9StorePathERNS_4SinkE
libnixstore.so:_ZN3nix16BinaryCacheStore12writeNarInfoENS_3refINS_7NarInfoEEE
libnixstore.so:_ZN3nix16BinaryCacheStore13addSignaturesERKNS_9StorePathERKSt3setINSt7__cxx1112basic_stringIcSt11char_traitsIcESaIcEEESt4lessISA_ESaISA_EE
libnixstore.so:_ZN3nix16BinaryCacheStore13getFSAccessorEb
libnixstore.so:_ZN3nix16BinaryCacheStore14narInfoFileForB5cxx11ERKNS_9StorePathE
libnixstore.so:_ZN3nix16BinaryCacheStore15getNixCacheInfoB5cxx11Ev
libnixstore.so:_ZN3nix16BinaryCacheStore16addToStoreCommonERNS_6SourceENS_10RepairFlagENS_13CheckSigsFlagESt8functionIFNS_13ValidPathInfoESt4pairINS_4HashEmEEE
libnixstore.so:_ZN3nix16BinaryCacheStore16getBuildLogExactB5cxx11ERKNS_9StorePathE
libnixstore.so:_ZN3nix16BinaryCacheStore17registerDrvOutputERKNS_11RealisationE
libnixstore.so:_ZN3nix16BinaryCacheStore18addToStoreFromDumpERNS_6SourceESt17basic_string_viewIcSt11char_traitsIcEENS_23FileSerialisationMethodENS_20ContentAddressMethodENS_13HashAlgorithmERKSt3setINS_9StorePathESt4lessISB_ESaISB_EENS_10RepairFlagE
libnixstore.so:_ZN3nix16BinaryCacheStore19isValidPathUncachedERKNS_9StorePathE
libnixstore.so:_ZN3nix16BinaryCacheStore21queryPathFromHashPartERKNSt7__cxx1112basic_stringIcSt11char_traitsIcESaIcEEE
libnixstore.so:_ZN3nix16BinaryCacheStore21queryPathInfoUncachedERKNS_9StorePathENS_8CallbackISt10shared_ptrIKNS_13ValidPathInfoEEEE
libnixstore.so:_ZN3nix16BinaryCacheStore24queryRealisationUncachedERKNS_9DrvOutputENS_8CallbackISt10shared_ptrIKNS_11RealisationEEEE
libnixstore.so:_ZN3nix16BinaryCacheStore4initEv
libnixstore.so:_ZN3nix16BinaryCacheStore7getFileERKNSt7__cxx1112basic_stringIcSt11char_traitsIcESaIcEEE
libnixstore.so:_ZN3nix16BinaryCacheStore7getFileERKNSt7__cxx1112basic_stringIcSt11char_traitsIcESaIcEEENS_8CallbackISt8optionalIS6_EEE
libnixstore.so:_ZN3nix16BinaryCacheStore7getFileERKNSt7__cxx1112basic_stringIcSt11char_traitsIcESaIcEEERNS_4SinkE
libnixstore.so:_ZN3nix16BinaryCacheStoreC2ERKSt3mapINSt7__cxx1112basic_stringIcSt11char_traitsIcESaIcEEES7_St4lessIS7_ESaISt4pairIKS7_S7_EEE
libnixstore.so:_ZN3nix16DerivationOutput8fromJSONERKNS_14StoreDirConfigESt17basic_string_viewIcSt11char_traitsIcEES7_RKN8nlohmann16json_abi_v3_11_210basic_jsonISt3mapSt6vectorNSt7__cxx1112basic_stringIcS6_SaIcEEEblmdSaNS9_14adl_serializerESC_IhSaIhEEEERKNS_27ExperimentalFeatureSettingsE
libnixstore.so:_ZN3nix16DerivedPathBuilt5parseERKNS_14StoreDirConfigENS_3refINS_17SingleDerivedPathEEESt17basic_string_viewIcSt11char_traitsIcEERKNS_27ExperimentalFeatureSettingsE
libnixstore.so:_ZN3nix16LocalStoreConfig3docB5cxx11Ev
libnixstore.so:_ZN3nix16LocalStoreConfigC1ESt17basic_string_viewIcSt11char_traitsIcEES4_RKSt3mapINSt7__cxx1112basic_stringIcS3_SaIcEEES9_St4lessIS9_ESaISt4pairIKS9_S9_EEE
libnixstore.so:_ZN3nix16LocalStoreConfigC2ESt17basic_string_viewIcSt11char_traitsIcEES4_RKSt3mapINSt7__cxx1112basic_stringIcS3_SaIcEEES9_St4lessIS9_ESaISt4pairIKS9_S9_EEE
libnixstore.so:_ZN3nix16ParsedDerivation22prepareStructuredAttrsB5cxx11ERNS_5StoreERKSt3setINS_9StorePathESt4lessIS4_ESaIS4_EE
libnixstore.so:_ZN3nix16ParsedDerivationC1ERKNS_9StorePathERNS_15BasicDerivationE
libnixstore.so:_ZN3nix16ParsedDerivationC2ERKNS_9StorePathERNS_15BasicDerivationE
libnixstore.so:_ZN3nix16ParsedDerivationD1Ev
libnixstore.so:_ZN3nix16ParsedDerivationD2Ev
libnixstore.so:_ZN3nix16RemoteFSAccessor10addToCacheESt17basic_string_viewIcSt11char_traitsIcEEONSt7__cxx1112basic_stringIcS3_SaIcEEE
libnixstore.so:_ZN3nix16RemoteFSAccessor10maybeLstatERKNS_9CanonPathE
libnixstore.so:_ZN3nix16RemoteFSAccessor13makeCacheFileESt17basic_string_viewIcSt11char_traitsIcEERKNSt7__cxx1112basic_stringIcS3_SaIcEEE
libnixstore.so:_ZN3nix16RemoteFSAccessor13readDirectoryB5cxx11ERKNS_9CanonPathE
libnixstore.so:_ZN3nix16RemoteFSAccessor5fetchERKNS_9CanonPathE
libnixstore.so:_ZN3nix16RemoteFSAccessor8readFileB5cxx11ERKNS_9CanonPathE
libnixstore.so:_ZN3nix16RemoteFSAccessor8readLinkB5cxx11ERKNS_9CanonPathE
libnixstore.so:_ZN3nix16RemoteFSAccessorC1ENS_3refINS_5StoreEEEbRKNSt7__cxx1112basic_stringIcSt11char_traitsIcESaIcEEE
libnixstore.so:_ZN3nix16RemoteFSAccessorC2ENS_3refINS_5StoreEEEbRKNSt7__cxx1112basic_stringIcSt11char_traitsIcESaIcEEE
libnixstore.so:_ZN3nix16createGenerationERNS_12LocalFSStoreENSt7__cxx1112basic_stringIcSt11char_traitsIcESaIcEEENS_9StorePathE
libnixstore.so:_ZN3nix16deleteGenerationERKNSt7__cxx1112basic_stringIcSt11char_traitsIcESaIcEEEm
libnixstore.so:_ZN3nix16drvNamesFromArgsERKNSt7__cxx114listINS0_12basic_stringIcSt11char_traitsIcESaIcEEESaIS6_EEE
libnixstore.so:_ZN3nix16filterDrvOutputsERKNS_11OutputsSpecEOSt3mapINSt7__cxx1112basic_stringIcSt11char_traitsIcESaIcEEENS_11RealisationESt4lessIS9_ESaISt4pairIKS9_SA_EEE
libnixstore.so:_ZN3nix16handleSQLiteBusyERKNS_10SQLiteBusyERl
libnixstore.so:_ZN3nix16makeFileTransferEv
libnixstore.so:_ZN3nix16replaceValidPathERKNSt7__cxx1112basic_stringIcSt11char_traitsIcESaIcEEES7_
libnixstore.so:_ZN3nix16runPostBuildHookERNS_5StoreERNS_6LoggerERKNS_9StorePathERKSt3setIS4_St4lessIS4_ESaIS4_EE
libnixstore.so:_ZN3nix16switchGenerationERKNSt7__cxx1112basic_stringIcSt11char_traitsIcESaIcEEESt8optionalImEb
libnixstore.so:_ZN3nix17DerivationOptions20fromParsedDerivationERKNS_16ParsedDerivationEb
libnixstore.so:_ZN3nix17DerivedPathOpaque5parseERKNS_14StoreDirConfigESt17basic_string_viewIcSt11char_traitsIcEE
libnixstore.so:_ZN3nix17IndirectRootStore11addPermRootERKNS_9StorePathERKNSt7__cxx1112basic_stringIcSt11char_traitsIcESaIcEEE
libnixstore.so:_ZN3nix17IndirectRootStore11makeSymlinkERKNSt7__cxx1112basic_stringIcSt11char_traitsIcESaIcEEES8_
libnixstore.so:_ZN3nix17LocalOverlayStore13optimiseStoreEv
libnixstore.so:_ZN3nix17LocalOverlayStore14collectGarbageERKNS_9GCOptionsERNS_9GCResultsE
libnixstore.so:_ZN3nix17LocalOverlayStore14queryReferrersERKNS_9StorePathERSt3setIS1_St4lessIS1_ESaIS1_EE
libnixstore.so:_ZN3nix17LocalOverlayStore15deleteStorePathERKNSt7__cxx1112basic_stringIcSt11char_traitsIcESaIcEEERm
libnixstore.so:_ZN3nix17LocalOverlayStore16queryGCReferrersERKNS_9StorePathERSt3setIS1_St4lessIS1_ESaIS1_EE
libnixstore.so:_ZN3nix17LocalOverlayStore17registerDrvOutputERKNS_11RealisationE
libnixstore.so:_ZN3nix17LocalOverlayStore18queryValidDeriversERKNS_9StorePathE
libnixstore.so:_ZN3nix17LocalOverlayStore18registerValidPathsERKSt3mapINS_9StorePathENS_13ValidPathInfoESt4lessIS2_ESaISt4pairIKS2_S3_EEE
libnixstore.so:_ZN3nix17LocalOverlayStore18remountIfNecessaryEv
libnixstore.so:_ZN3nix17LocalOverlayStore19isValidPathUncachedERKNS_9StorePathE
libnixstore.so:_ZN3nix17LocalOverlayStore19verifyAllValidPathsENS_10RepairFlagE
libnixstore.so:_ZN3nix17LocalOverlayStore21queryPathFromHashPartERKNSt7__cxx1112basic_stringIcSt11char_traitsIcESaIcEEE
libnixstore.so:_ZN3nix17LocalOverlayStore21queryPathInfoUncachedERKNS_9StorePathENS_8CallbackISt10shared_ptrIKNS_13ValidPathInfoEEEE
libnixstore.so:_ZN3nix17LocalOverlayStore24queryRealisationUncachedERKNS_9DrvOutputENS_8CallbackISt10shared_ptrIKNS_11RealisationEEEE
libnixstore.so:_ZN3nix17LocalOverlayStoreC1ESt17basic_string_viewIcSt11char_traitsIcEES4_RKSt3mapINSt7__cxx1112basic_stringIcS3_SaIcEEES9_St4lessIS9_ESaISt4pairIKS9_S9_EEE
libnixstore.so:_ZN3nix17LocalOverlayStoreC2ESt17basic_string_viewIcSt11char_traitsIcEES4_RKSt3mapINSt7__cxx1112basic_stringIcS3_SaIcEEES9_St4lessIS9_ESaISt4pairIKS9_S9_EEE
libnixstore.so:_ZN3nix17SingleDerivedPath11parseLegacyERKNS_14StoreDirConfigESt17basic_string_viewIcSt11char_traitsIcEERKNS_27ExperimentalFeatureSettingsE
libnixstore.so:_ZN3nix17SingleDerivedPath5parseERKNS_14StoreDirConfigESt17basic_string_viewIcSt11char_traitsIcEERKNS_27ExperimentalFeatureSettingsE
libnixstore.so:_ZN3nix17deleteGenerationsERKNSt7__cxx1112basic_stringIcSt11char_traitsIcESaIcEEERKSt3setImSt4lessImESaImEEb
libnixstore.so:_ZN3nix17getDefaultProfileB5cxx11Ev
libnixstore.so:_ZN3nix17scanForReferencesERKNSt7__cxx1112basic_stringIcSt11char_traitsIcESaIcEEERKSt3setINS_9StorePathESt4lessIS9_ESaIS9_EE
libnixstore.so:_ZN3nix17scanForReferencesERNS_4SinkERKNSt7__cxx1112basic_stringIcSt11char_traitsIcESaIcEEERKSt3setINS_9StorePathESt4lessISB_ESaISB_EE
libnixstore.so:_ZN3nix17splitUriAndParamsERKNSt7__cxx1112basic_stringIcSt11char_traitsIcESaIcEEE
libnixstore.so:_ZN3nix18LocalFSStoreConfigC2ESt17basic_string_viewIcSt11char_traitsIcEERKSt3mapINSt7__cxx1112basic_stringIcS3_SaIcEEES9_St4lessIS9_ESaISt4pairIKS9_S9_EEE
libnixstore.so:_ZN3nix18defaultChannelsDirB5cxx11Ev
libnixstore.so:_ZN3nix18getUserConfigFilesB5cxx11Ev
libnixstore.so:_ZN3nix18resolveDerivedPathB5cxx11ERNS_5StoreERKNS_16DerivedPathBuiltE
libnixstore.so:_ZN3nix18resolveDerivedPathB5cxx11ERNS_5StoreERKNS_16DerivedPathBuiltEPS0_
libnixstore.so:_ZN3nix18resolveDerivedPathERNS_5StoreERKNS_17SingleDerivedPathEPS0_
libnixstore.so:_ZN3nix18staticOutputHashesB5cxx11ERNS_5StoreERKNS_10DerivationE
libnixstore.so:_ZN3nix19ExtendedOutputsSpec5parseESt17basic_string_viewIcSt11char_traitsIcEE
libnixstore.so:_ZN3nix19ExtendedOutputsSpec8parseOptESt17basic_string_viewIcSt11char_traitsIcEE
libnixstore.so:_ZN3nix19LocalDerivationGoal10initTmpDirEv
libnixstore.so:_ZN3nix19LocalDerivationGoal10isReadDescEi
libnixstore.so:_ZN3nix19LocalDerivationGoal10stopDaemonEv
libnixstore.so:_ZN3nix19LocalDerivationGoal11killSandboxEb
libnixstore.so:_ZN3nix19LocalDerivationGoal11startDaemonEv
libnixstore.so:_ZN3nix19LocalDerivationGoal12checkOutputsERKSt3mapINSt7__cxx1112basic_stringIcSt11char_traitsIcESaIcEEENS_13ValidPathInfoESt4lessIS7_ESaISt4pairIKS7_S8_EEE
libnixstore.so:_ZN3nix19LocalDerivationGoal12deleteTmpDirEb
libnixstore.so:_ZN3nix19LocalDerivationGoal12startBuilderEv
libnixstore.so:_ZN3nix19LocalDerivationGoal13addDependencyERKNS_9StorePathE
libnixstore.so:_ZN3nix19LocalDerivationGoal13getLocalStoreEv
libnixstore.so:_ZN3nix19LocalDerivationGoal13tryLocalBuildEv
libnixstore.so:_ZN3nix19LocalDerivationGoal14chownToBuilderERKNSt7__cxx1112basic_stringIcSt11char_traitsIcESaIcEEE
libnixstore.so:_ZN3nix19LocalDerivationGoal14closeReadPipesEv
libnixstore.so:_ZN3nix19LocalDerivationGoal14getChildStatusEv
libnixstore.so:_ZN3nix19LocalDerivationGoal15registerOutputsB5cxx11Ev
libnixstore.so:_ZN3nix19LocalDerivationGoal15signRealisationERNS_11RealisationE
libnixstore.so:_ZN3nix19LocalDerivationGoal16makeFallbackPathERKNS_9StorePathE
libnixstore.so:_ZN3nix19LocalDerivationGoal16makeFallbackPathESt17basic_string_viewIcSt11char_traitsIcEE
libnixstore.so:_ZN3nix19LocalDerivationGoal18cleanupHookFinallyEv
libnixstore.so:_ZN3nix19LocalDerivationGoal19cleanupPreChildKillEv
libnixstore.so:_ZN3nix19LocalDerivationGoal20cleanupPostChildKillEv
libnixstore.so:_ZN3nix19LocalDerivationGoal20writeStructuredAttrsEv
libnixstore.so:_ZN3nix19LocalDerivationGoal27processSandboxSetupMessagesEv
libnixstore.so:_ZN3nix19LocalDerivationGoal28cleanupDecideWhetherDiskFullEv
libnixstore.so:_ZN3nix19LocalDerivationGoal37cleanupPostOutputsRegisteredModeCheckEv
libnixstore.so:_ZN3nix19LocalDerivationGoal40cleanupPostOutputsRegisteredModeNonCheckEv
libnixstore.so:_ZN3nix19LocalDerivationGoal7homeDirB5cxx11E
libnixstore.so:_ZN3nix19LocalDerivationGoal7initEnvEv
libnixstore.so:_ZN3nix19LocalDerivationGoal8runChildEv
libnixstore.so:_ZN3nix19LocalDerivationGoal9isAllowedERKNS_11DerivedPathE
libnixstore.so:_ZN3nix19LocalDerivationGoal9killChildEv
libnixstore.so:_ZN3nix19LocalDerivationGoalD0Ev
libnixstore.so:_ZN3nix19LocalDerivationGoalD1Ev
libnixstore.so:_ZN3nix19LocalDerivationGoalD2Ev
libnixstore.so:_ZN3nix19decodeValidPathInfoERKNS_5StoreERSiSt8optionalISt4pairINS_4HashEmEE
libnixstore.so:_ZN3nix19drvOutputReferencesERKSt3setINS_11RealisationESt4lessIS1_ESaIS1_EERKS0_INS_9StorePathES2_IS8_ESaIS8_EE
libnixstore.so:_ZN3nix19drvOutputReferencesERNS_5StoreERKNS_10DerivationERKNS_9StorePathEPS0_
libnixstore.so:_ZN3nix19getNarInfoDiskCacheEv
libnixstore.so:_ZN3nix19makeLazyNarAccessorERKNSt7__cxx1112basic_stringIcSt11char_traitsIcESaIcEEESt8functionIFS5_mmEE
libnixstore.so:_ZN3nix20CommonSSHStoreConfig15createSSHMasterEbi
libnixstore.so:_ZN3nix20CommonSSHStoreConfigC2ESt17basic_string_viewIcSt11char_traitsIcEES4_RKSt3mapINSt7__cxx1112basic_stringIcS3_SaIcEEES9_St4lessIS9_ESaISt4pairIKS9_S9_EEE
libnixstore.so:_ZN3nix20ContentAddressMethod11parsePrefixERSt17basic_string_viewIcSt11char_traitsIcEE
libnixstore.so:_ZN3nix20ContentAddressMethod13parseWithAlgoESt17basic_string_viewIcSt11char_traitsIcEE
libnixstore.so:_ZN3nix20ContentAddressMethod5parseESt17basic_string_viewIcSt11char_traitsIcEE
libnixstore.so:_ZN3nix20LegacySSHStoreConfig3docB5cxx11Ev
libnixstore.so:_ZN3nix20LegacySSHStoreConfigC1ESt17basic_string_viewIcSt11char_traitsIcEES4_RKSt3mapINSt7__cxx1112basic_stringIcS3_SaIcEEES9_St4lessIS9_ESaISt4pairIKS9_S9_EEE
libnixstore.so:_ZN3nix20LegacySSHStoreConfigC2ESt17basic_string_viewIcSt11char_traitsIcEES4_RKSt3mapINSt7__cxx1112basic_stringIcS3_SaIcEEES9_St4lessIS9_ESaISt4pairIKS9_S9_EEE
libnixstore.so:_ZN3nix20PathSubstitutionGoal4doneENS_4Goal8ExitCodeENS_11BuildResult6StatusESt8optionalINSt7__cxx1112basic_stringIcSt11char_traitsIcESaIcEEEE
libnixstore.so:_ZN3nix20PathSubstitutionGoal4initEv
libnixstore.so:_ZN3nix20PathSubstitutionGoal7cleanupEv
libnixstore.so:_ZN3nix20PathSubstitutionGoal8tryToRunENS_9StorePathENS_3refINS_5StoreEEESt10shared_ptrIKNS_13ValidPathInfoEERb
libnixstore.so:_ZN3nix20PathSubstitutionGoal9handleEOFEi
libnixstore.so:_ZN3nix20PathSubstitutionGoalC1ERKNS_9StorePathERNS_6WorkerENS_10RepairFlagESt8optionalINS_14ContentAddressEE
libnixstore.so:_ZN3nix20PathSubstitutionGoalC2ERKNS_9StorePathERNS_6WorkerENS_10RepairFlagESt8optionalINS_14ContentAddressEE
libnixstore.so:_ZN3nix20PathSubstitutionGoalD0Ev
libnixstore.so:_ZN3nix20PathSubstitutionGoalD1Ev
libnixstore.so:_ZN3nix20PathSubstitutionGoalD2Ev
libnixstore.so:_ZN3nix20StorePathWithOutputs18tryFromDerivedPathERKNS_11DerivedPathE
libnixstore.so:_ZN3nix20UDSRemoteStoreConfig3docB5cxx11Ev
libnixstore.so:_ZN3nix20UDSRemoteStoreConfigC1ESt17basic_string_viewIcSt11char_traitsIcEES4_RKSt3mapINSt7__cxx1112basic_stringIcS3_SaIcEEES9_St4lessIS9_ESaISt4pairIKS9_S9_EEE
libnixstore.so:_ZN3nix20UDSRemoteStoreConfigC2ESt17basic_string_viewIcSt11char_traitsIcEES4_RKSt3mapINSt7__cxx1112basic_stringIcS3_SaIcEEES9_St4lessIS9_ESaISt4pairIKS9_S9_EEE
libnixstore.so:_ZN3nix20UnkeyedValidPathInfo8fromJSONERKNS_5StoreERKN8nlohmann16json_abi_v3_11_210basic_jsonISt3mapSt6vectorNSt7__cxx1112basic_stringIcSt11char_traitsIcESaIcEEEblmdSaNS5_14adl_serializerES8_IhSaIhEEEE
libnixstore.so:_ZN3nix20builtinUnpackChannelERKNS_15BasicDerivationERKSt3mapINSt7__cxx1112basic_stringIcSt11char_traitsIcESaIcEEES9_St4lessIS9_ESaISt4pairIKS9_S9_EEE
libnixstore.so:_ZN3nix20deleteOldGenerationsERKNSt7__cxx1112basic_stringIcSt11char_traitsIcESaIcEEEb
libnixstore.so:_ZN3nix20drvRequireExperimentERKNS_17SingleDerivedPathERKNS_27ExperimentalFeatureSettingsE
libnixstore.so:_ZN3nix20fileTransferSettingsE
libnixstore.so:_ZN3nix20getDefaultPublicKeysB5cxx11Ev
libnixstore.so:_ZN3nix20hashDerivationModuloERNS_5StoreERKNS_10DerivationEb
libnixstore.so:_ZN3nix20makeContentAddressedERNS_5StoreES1_RKNS_9StorePathE
libnixstore.so:_ZN3nix20makeContentAddressedERNS_5StoreES1_RKSt3setINS_9StorePathESt4lessIS3_ESaIS3_EE
libnixstore.so:_ZN3nix20makeCurlFileTransferEv
libnixstore.so:_ZN3nix20parsePathWithOutputsB5cxx11ESt17basic_string_viewIcSt11char_traitsIcEE
libnixstore.so:_ZN3nix20parsePathWithOutputsERKNS_14StoreDirConfigESt17basic_string_viewIcSt11char_traitsIcEE
libnixstore.so:_ZN3nix20renderContentAddressB5cxx11ESt8optionalINS_14ContentAddressEE
libnixstore.so:_ZN3nix21DownstreamPlaceholder15unknownCaOutputERKNS_9StorePathESt17basic_string_viewIcSt11char_traitsIcEERKNS_27ExperimentalFeatureSettingsE
libnixstore.so:_ZN3nix21DownstreamPlaceholder17unknownDerivationERKS0_St17basic_string_viewIcSt11char_traitsIcEERKNS_27ExperimentalFeatureSettingsE
libnixstore.so:_ZN3nix21DownstreamPlaceholder26fromSingleDerivedPathBuiltERKNS_22SingleDerivedPathBuiltERKNS_27ExperimentalFeatureSettingsE
libnixstore.so:_ZN3nix21LocalBinaryCacheStore10fileExistsERKNSt7__cxx1112basic_stringIcSt11char_traitsIcESaIcEEE
libnixstore.so:_ZN3nix21LocalBinaryCacheStore4initEv
libnixstore.so:_ZN3nix21MountedSSHStoreConfig3docB5cxx11Ev
libnixstore.so:_ZN3nix21MountedSSHStoreConfigC1ESt17basic_string_viewIcSt11char_traitsIcEES4_St3mapINSt7__cxx1112basic_stringIcS3_SaIcEEES9_St4lessIS9_ESaISt4pairIKS9_S9_EEE
libnixstore.so:_ZN3nix21MountedSSHStoreConfigC1ESt3mapINSt7__cxx1112basic_stringIcSt11char_traitsIcESaIcEEES7_St4lessIS7_ESaISt4pairIKS7_S7_EEE
libnixstore.so:_ZN3nix21MountedSSHStoreConfigC2ESt17basic_string_viewIcSt11char_traitsIcEES4_St3mapINSt7__cxx1112basic_stringIcS3_SaIcEEES9_St4lessIS9_ESaISt4pairIKS9_S9_EEE
libnixstore.so:_ZN3nix21MountedSSHStoreConfigC2ESt3mapINSt7__cxx1112basic_stringIcSt11char_traitsIcESaIcEEES7_St4lessIS7_ESaISt4pairIKS7_S7_EEE
libnixstore.so:_ZN3nix21optimisticLockProfileERKNSt7__cxx1112basic_stringIcSt11char_traitsIcESaIcEEE
libnixstore.so:_ZN3nix22SingleDerivedPathBuilt5parseERKNS_14StoreDirConfigENS_3refINS_17SingleDerivedPathEEESt17basic_string_viewIcSt11char_traitsIcEERKNS_27ExperimentalFeatureSettingsE
libnixstore.so:_ZN3nix22getDefaultSubstitutersB5cxx11Ev
libnixstore.so:_ZN3nix22parseOlderThanTimeSpecESt17basic_string_viewIcSt11char_traitsIcEE
libnixstore.so:_ZN3nix23LocalOverlayStoreConfig11toUpperPathB5cxx11ERKNS_9StorePathE
libnixstore.so:_ZN3nix23LocalOverlayStoreConfig3docB5cxx11Ev
libnixstore.so:_ZN3nix23getTestNarInfoDiskCacheENSt7__cxx1112basic_stringIcSt11char_traitsIcESaIcEEE
libnixstore.so:_ZN3nix23makeFileIngestionPrefixENS_19FileIngestionMethodE
libnixstore.so:_ZN3nix24canonicalisePathMetaDataERKNSt7__cxx1112basic_stringIcSt11char_traitsIcESaIcEEESt8optionalISt4pairIjjEE
libnixstore.so:_ZN3nix24canonicalisePathMetaDataERKNSt7__cxx1112basic_stringIcSt11char_traitsIcESaIcEEESt8optionalISt4pairIjjEERSt3setIS9_ImmESt4lessISD_ESaISD_EE
libnixstore.so:_ZN3nix25DrvOutputSubstitutionGoal18realisationFetchedESt10shared_ptrIKNS_11RealisationEENS_3refINS_5StoreEEE
libnixstore.so:_ZN3nix25DrvOutputSubstitutionGoal3keyB5cxx11Ev
libnixstore.so:_ZN3nix25DrvOutputSubstitutionGoal4initEv
libnixstore.so:_ZN3nix25DrvOutputSubstitutionGoal9handleEOFEi
libnixstore.so:_ZN3nix25DrvOutputSubstitutionGoalC1ERKNS_9DrvOutputERNS_6WorkerENS_10RepairFlagESt8optionalINS_14ContentAddressEE
libnixstore.so:_ZN3nix25DrvOutputSubstitutionGoalC2ERKNS_9DrvOutputERNS_6WorkerENS_10RepairFlagESt8optionalINS_14ContentAddressEE
libnixstore.so:_ZN3nix25assertLibStoreInitializedEv
libnixstore.so:_ZN3nix25writeStructuredAttrsShellERKN8nlohmann16json_abi_v3_11_210basic_jsonISt3mapSt6vectorNSt7__cxx1112basic_stringIcSt11char_traitsIcESaIcEEEblmdSaNS1_14adl_serializerES4_IhSaIhEEEE
libnixstore.so:_ZN3nix26HttpBinaryCacheStoreConfig3docB5cxx11Ev
libnixstore.so:_ZN3nix26HttpBinaryCacheStoreConfigC1ESt17basic_string_viewIcSt11char_traitsIcEES4_RKSt3mapINSt7__cxx1112basic_stringIcS3_SaIcEEES9_St4lessIS9_ESaISt4pairIKS9_S9_EEE
libnixstore.so:_ZN3nix26HttpBinaryCacheStoreConfigC2ESt17basic_string_viewIcSt11char_traitsIcEES4_RKSt3mapINSt7__cxx1112basic_stringIcS3_SaIcEEES9_St4lessIS9_ESaISt4pairIKS9_S9_EEE
libnixstore.so:_ZN3nix26deleteGenerationsOlderThanERKNSt7__cxx1112basic_stringIcSt11char_traitsIcESaIcEEElb
libnixstore.so:_ZN3nix27LocalBinaryCacheStoreConfig10uriSchemesB5cxx11Ev
libnixstore.so:_ZN3nix27LocalBinaryCacheStoreConfig3docB5cxx11Ev
libnixstore.so:_ZN3nix27LocalBinaryCacheStoreConfigC1ESt17basic_string_viewIcSt11char_traitsIcEES4_RKSt3mapINSt7__cxx1112basic_stringIcS3_SaIcEEES9_St4lessIS9_ESaISt4pairIKS9_S9_EEE
libnixstore.so:_ZN3nix27LocalBinaryCacheStoreConfigC2ESt17basic_string_viewIcSt11char_traitsIcEES4_RKSt3mapINSt7__cxx1112basic_stringIcS3_SaIcEEES9_St4lessIS9_ESaISt4pairIKS9_S9_EEE
libnixstore.so:_ZN3nix28ContentAddressWithReferences11withoutRefsERKNS_14ContentAddressE
libnixstore.so:_ZN3nix28ContentAddressWithReferences9fromPartsENS_20ContentAddressMethodENS_4HashENS_15StoreReferencesE
libnixstore.so:_ZN3nix28deleteGenerationsGreaterThanERKNSt7__cxx1112basic_stringIcSt11char_traitsIcESaIcEEEmb
libnixstore.so:_ZN3nix33followLinksToStorePathWithOutputsERKNS_5StoreESt17basic_string_viewIcSt11char_traitsIcEE
libnixstore.so:_ZN3nix35canonicaliseTimestampAndPermissionsERKNSt7__cxx1112basic_stringIcSt11char_traitsIcESaIcEEE
libnixstore.so:_ZN3nix4Goal10waiteeDoneESt10shared_ptrIS0_ENS0_8ExitCodeE
libnixstore.so:_ZN3nix4Goal12promise_type12return_valueEONS0_2CoE
libnixstore.so:_ZN3nix4Goal12promise_type13final_awaiter13await_suspendENSt7__n486116coroutine_handleIS1_EE
libnixstore.so:_ZN3nix4Goal12promise_type17get_return_objectEv
libnixstore.so:_ZN3nix4Goal2Co13await_suspendENSt7__n486116coroutine_handleINS0_12promise_typeEEE
libnixstore.so:_ZN3nix4Goal2CoC1EOS1_
libnixstore.so:_ZN3nix4Goal2CoC2EOS1_
libnixstore.so:_ZN3nix4Goal2CoD1Ev
libnixstore.so:_ZN3nix4Goal2CoD2Ev
libnixstore.so:_ZN3nix4Goal2CoaSEOS1_
libnixstore.so:_ZN3nix4Goal4workEv
libnixstore.so:_ZN3nix4Goal5traceESt17basic_string_viewIcSt11char_traitsIcEE
libnixstore.so:_ZN3nix4Goal6amDoneENS0_8ExitCodeESt8optionalINS_5ErrorEE
libnixstore.so:_ZN3nix4Goal9addWaiteeESt10shared_ptrIS0_E
libnixstore.so:_ZN3nix5Store10addToStoreESt17basic_string_viewIcSt11char_traitsIcEERKNS_10SourcePathENS_20ContentAddressMethodENS_13HashAlgorithmERKSt3setINS_9StorePathESt4lessISB_ESaISB_EERSt8functionIFbRKNSt7__cxx1112basic_stringIcS3_SaIcEEEEENS_10RepairFlagE
libnixstore.so:_ZN3nix5Store10buildPathsERKSt6vectorINS_11DerivedPathESaIS2_EENS_9BuildModeESt10shared_ptrIS0_E
libnixstore.so:_ZN3nix5Store10ensurePathERKNS_9StorePathE
libnixstore.so:_ZN3nix5Store10exportPathERKNS_9StorePathERNS_4SinkE
libnixstore.so:_ZN3nix5Store10repairPathERKNS_9StorePathE
libnixstore.so:_ZN3nix5Store11exportPathsERKSt3setINS_9StorePathESt4lessIS2_ESaIS2_EERNS_4SinkE
libnixstore.so:_ZN3nix5Store11importPathsERNS_6SourceENS_13CheckSigsFlagE
libnixstore.so:_ZN3nix5Store11isValidPathERKNS_9StorePathE
libnixstore.so:_ZN3nix5Store12queryMissingERKSt6vectorINS_11DerivedPathESaIS2_EERSt3setINS_9StorePathESt4lessIS8_ESaIS8_EESD_SD_RmSE_
libnixstore.so:_ZN3nix5Store13queryPathInfoERKNS_9StorePathE
libnixstore.so:_ZN3nix5Store13queryPathInfoERKNS_9StorePathENS_8CallbackINS_3refIKNS_13ValidPathInfoEEEEE
libnixstore.so:_ZN3nix5Store13topoSortPathsERKSt3setINS_9StorePathESt4lessIS2_ESaIS2_EE
libnixstore.so:_ZN3nix5Store14addToStoreSlowESt17basic_string_viewIcSt11char_traitsIcEERKNS_10SourcePathENS_20ContentAddressMethodENS_13HashAlgorithmERKSt3setINS_9StorePathESt4lessISB_ESaISB_EESt8optionalINS_4HashEE
libnixstore.so:_ZN3nix5Store14readDerivationERKNS_9StorePathE
libnixstore.so:_ZN3nix5Store15buildDerivationERKNS_9StorePathERKNS_15BasicDerivationENS_9BuildModeE
libnixstore.so:_ZN3nix5Store15queryValidPathsERKSt3setINS_9StorePathESt4lessIS2_ESaIS2_EENS_14SubstituteFlagE
libnixstore.so:_ZN3nix5Store15substitutePathsERKSt3setINS_9StorePathESt4lessIS2_ESaIS2_EE
libnixstore.so:_ZN3nix5Store16computeFSClosureERKNS_9StorePathERSt3setIS1_St4lessIS1_ESaIS1_EEbbb
libnixstore.so:_ZN3nix5Store16computeFSClosureERKSt3setINS_9StorePathESt4lessIS2_ESaIS2_EERS6_bbb
libnixstore.so:_ZN3nix5Store16exportReferencesERKSt3setINS_9StorePathESt4lessIS2_ESaIS2_EES8_
libnixstore.so:_ZN3nix5Store16queryRealisationERKNS_9DrvOutputE
libnixstore.so:_ZN3nix5Store16queryRealisationERKNS_9DrvOutputENS_8CallbackISt10shared_ptrIKNS_11RealisationEEEE
libnixstore.so:_ZN3nix5Store18PathInfoCacheValue10isKnownNowEv
libnixstore.so:_ZN3nix5Store18addMultipleToStoreEOSt6vectorISt4pairINS_13ValidPathInfoESt10unique_ptrINS_6SourceESt14default_deleteIS5_EEESaIS9_EERNS_8ActivityENS_10RepairFlagENS_13CheckSigsFlagE
libnixstore.so:_ZN3nix5Store18addMultipleToStoreERNS_6SourceENS_10RepairFlagENS_13CheckSigsFlagE
libnixstore.so:_ZN3nix5Store18derivationFromPathERKNS_9StorePathE
libnixstore.so:_ZN3nix5Store19isValidPathUncachedERKNS_9StorePathE
libnixstore.so:_ZN3nix5Store21buildPathsWithResultsERKSt6vectorINS_11DerivedPathESaIS2_EENS_9BuildModeESt10shared_ptrIS0_E
libnixstore.so:_ZN3nix5Store21readInvalidDerivationERKNS_9StorePathE
libnixstore.so:_ZN3nix5Store22getBuildDerivationPathERKNS_9StorePathE
libnixstore.so:_ZN3nix5Store22queryDerivationOutputsERKNS_9StorePathE
libnixstore.so:_ZN3nix5Store24makeValidityRegistrationB5cxx11ERKSt3setINS_9StorePathESt4lessIS2_ESaIS2_EEbb
libnixstore.so:_ZN3nix5Store24queryDerivationOutputMapB5cxx11ERKNS_9StorePathEPS0_
libnixstore.so:_ZN3nix5Store27querySubstitutablePathInfosERKSt3mapINS_9StorePathESt8optionalINS_14ContentAddressEESt4lessIS2_ESaISt4pairIKS2_S5_EEERS1_IS2_NS_21SubstitutablePathInfoES7_SaIS8_IS9_SF_EEE
libnixstore.so:_ZN3nix5Store28queryPathInfoFromClientCacheERKNS_9StorePathE
libnixstore.so:_ZN3nix5Store31queryPartialDerivationOutputMapB5cxx11ERKNS_9StorePathEPS0_
libnixstore.so:_ZN3nix5Store37queryStaticPartialDerivationOutputMapB5cxx11ERKNS_9StorePathE
libnixstore.so:_ZN3nix5Store6getUriB5cxx11Ev
libnixstore.so:_ZN3nix5Store8getStatsEv
libnixstore.so:_ZN3nix5StoreC2ERKSt3mapINSt7__cxx1112basic_stringIcSt11char_traitsIcESaIcEEES7_St4lessIS7_ESaISt4pairIKS7_S7_EEE
libnixstore.so:_ZN3nix5linux14setPersonalityESt17basic_string_viewIcSt11char_traitsIcEE
libnixstore.so:_ZN3nix6FdLockC1EiNS_8LockTypeEbSt17basic_string_viewIcSt11char_traitsIcEE
libnixstore.so:_ZN3nix6FdLockC2EiNS_8LockTypeEbSt17basic_string_viewIcSt11char_traitsIcEE
libnixstore.so:_ZN3nix6SQLite20getLastInsertedRowIdEv
libnixstore.so:_ZN3nix6SQLite4execERKNSt7__cxx1112basic_stringIcSt11char_traitsIcESaIcEEE
libnixstore.so:_ZN3nix6SQLite7isCacheEv
libnixstore.so:_ZN3nix6SQLiteC1ERKNSt7__cxx1112basic_stringIcSt11char_traitsIcESaIcEEENS_14SQLiteOpenModeE
libnixstore.so:_ZN3nix6SQLiteC2ERKNSt7__cxx1112basic_stringIcSt11char_traitsIcESaIcEEENS_14SQLiteOpenModeE
libnixstore.so:_ZN3nix6SQLiteD1Ev
libnixstore.so:_ZN3nix6SQLiteD2Ev
libnixstore.so:_ZN3nix6Worker10removeGoalESt10shared_ptrINS_4GoalEE
libnixstore.so:_ZN3nix6Worker12childStartedESt10shared_ptrINS_4GoalEERKSt3setIiSt4lessIiESaIiEEbb
libnixstore.so:_ZN3nix6Worker12waitForInputEv
libnixstore.so:_ZN3nix6Worker13waitForAWhileESt10shared_ptrINS_4GoalEE
libnixstore.so:_ZN3nix6Worker14waitForAnyGoalESt10shared_ptrINS_4GoalEE
libnixstore.so:_ZN3nix6Worker15childTerminatedEPNS_4GoalEb
libnixstore.so:_ZN3nix6Worker16getNrLocalBuildsEv
libnixstore.so:_ZN3nix6Worker16markContentsGoodERKNS_9StorePathE
libnixstore.so:_ZN3nix6Worker16pathContentsGoodERKNS_9StorePathE
libnixstore.so:_ZN3nix6Worker16waitForBuildSlotESt10shared_ptrINS_4GoalEE
libnixstore.so:_ZN3nix6Worker17failingExitStatusEv
libnixstore.so:_ZN3nix6Worker18getNrSubstitutionsEv
libnixstore.so:_ZN3nix6Worker18makeDerivationGoalERKNS_9StorePathERKNS_11OutputsSpecENS_9BuildModeE
libnixstore.so:_ZN3nix6Worker23makeBasicDerivationGoalERKNS_9StorePathERKNS_15BasicDerivationERKNS_11OutputsSpecENS_9BuildModeE
libnixstore.so:_ZN3nix6Worker24makeDerivationGoalCommonERKNS_9StorePathERKNS_11OutputsSpecESt8functionIFSt10shared_ptrINS_14DerivationGoalEEvEE
libnixstore.so:_ZN3nix6Worker24makePathSubstitutionGoalERKNS_9StorePathENS_10RepairFlagESt8optionalINS_14ContentAddressEE
libnixstore.so:_ZN3nix6Worker29makeDrvOutputSubstitutionGoalERKNS_9DrvOutputENS_10RepairFlagESt8optionalINS_14ContentAddressEE
libnixstore.so:_ZN3nix6Worker3runERKSt3setISt10shared_ptrINS_4GoalEENS_15CompareGoalPtrsESaIS4_EE
libnixstore.so:_ZN3nix6Worker6wakeUpESt10shared_ptrINS_4GoalEE
libnixstore.so:_ZN3nix6Worker8makeGoalERKNS_11DerivedPathENS_9BuildModeE
libnixstore.so:_ZN3nix6WorkerC1ERNS_5StoreES2_
libnixstore.so:_ZN3nix6WorkerC2ERNS_5StoreES2_
libnixstore.so:_ZN3nix6WorkerD1Ev
libnixstore.so:_ZN3nix6WorkerD2Ev
libnixstore.so:_ZN3nix6daemon17processConnectionENS_3refINS_5StoreEEEONS_8FdSourceEONS_6FdSinkENS_11TrustedFlagENS0_13RecursiveFlagE
libnixstore.so:_ZN3nix6daemonlsERNS_4SinkERKSt6vectorINS_6Logger5FieldESaIS5_EE
libnixstore.so:_ZN3nix7DrvName7matchesERKS0_
libnixstore.so:_ZN3nix7DrvNameC1ESt17basic_string_viewIcSt11char_traitsIcEE
libnixstore.so:_ZN3nix7DrvNameC1Ev
libnixstore.so:_ZN3nix7DrvNameC2ESt17basic_string_viewIcSt11char_traitsIcEE
libnixstore.so:_ZN3nix7DrvNameC2Ev
libnixstore.so:_ZN3nix7DrvNameD1Ev
libnixstore.so:_ZN3nix7DrvNameD2Ev
libnixstore.so:_ZN3nix7Machine11parseConfigERKSt3setINSt7__cxx1112basic_stringIcSt11char_traitsIcESaIcEEESt4lessIS7_ESaIS7_EERKS7_
libnixstore.so:_ZN3nix7MachineC1ERKNSt7__cxx1112basic_stringIcSt11char_traitsIcESaIcEEESt3setIS6_St4lessIS6_ESaIS6_EES6_jfSD_SD_S6_
libnixstore.so:_ZN3nix7MachineC2ERKNSt7__cxx1112basic_stringIcSt11char_traitsIcESaIcEEESt3setIS6_St4lessIS6_ESaIS6_EES6_jfSD_SD_S6_
libnixstore.so:_ZN3nix7NarInfo8fromJSONERKNS_5StoreERKNS_9StorePathERKN8nlohmann16json_abi_v3_11_210basic_jsonISt3mapSt6vectorNSt7__cxx1112basic_stringIcSt11char_traitsIcESaIcEEEblmdSaNS8_14adl_serializerESB_IhSaIhEEEE
libnixstore.so:_ZN3nix7NarInfoC1ERKNS_5StoreERKNSt7__cxx1112basic_stringIcSt11char_traitsIcESaIcEEESB_
libnixstore.so:_ZN3nix7NarInfoC2ERKNS_5StoreERKNSt7__cxx1112basic_stringIcSt11char_traitsIcESaIcEEESB_
libnixstore.so:_ZN3nix7listNarB5cxx11ENS_3refINS_14SourceAccessorEEERKNS_9CanonPathEb
libnixstore.so:_ZN3nix8LogStore11getBuildLogB5cxx11ERKNS_9StorePathE
libnixstore.so:_ZN3nix8SSHStore14openConnectionEv
libnixstore.so:_ZN3nix8Settings15getDefaultCoresEv
libnixstore.so:_ZN3nix8Settings21getDefaultSSLCertFileB5cxx11Ev
libnixstore.so:_ZN3nix8Settings24getDefaultExtraPlatformsB5cxx11Ev
libnixstore.so:_ZN3nix8Settings24getDefaultSystemFeaturesB5cxx11Ev
libnixstore.so:_ZN3nix8Settings6isWSL1Ev
libnixstore.so:_ZN3nix8SettingsC1Ev
libnixstore.so:_ZN3nix8SettingsC2Ev
libnixstore.so:_ZN3nix8lockFileEiNS_8LockTypeEb
libnixstore.so:_ZN3nix8settingsE
libnixstore.so:_ZN3nix9DrvOutput5parseERKNSt7__cxx1112basic_stringIcSt11char_traitsIcESaIcEEE
libnixstore.so:_ZN3nix9PathLocks11setDeletionEb
libnixstore.so:_ZN3nix9PathLocks6unlockEv
libnixstore.so:_ZN3nix9PathLocks9lockPathsERKSt3setINSt7__cxx1112basic_stringIcSt11char_traitsIcESaIcEEESt4lessIS7_ESaIS7_EERKS7_b
libnixstore.so:_ZN3nix9PathLocksC1ERKSt3setINSt7__cxx1112basic_stringIcSt11char_traitsIcESaIcEEESt4lessIS7_ESaIS7_EERKS7_
libnixstore.so:_ZN3nix9PathLocksC1Ev
libnixstore.so:_ZN3nix9PathLocksC2ERKSt3setINSt7__cxx1112basic_stringIcSt11char_traitsIcESaIcEEESt4lessIS7_ESaIS7_EERKS7_
libnixstore.so:_ZN3nix9PathLocksC2Ev
libnixstore.so:_ZN3nix9PathLocksD1Ev
libnixstore.so:_ZN3nix9PathLocksD2Ev
libnixstore.so:_ZN3nix9SQLiteTxn6commitEv
libnixstore.so:_ZN3nix9SQLiteTxnC1EP7sqlite3
libnixstore.so:_ZN3nix9SQLiteTxnC2EP7sqlite3
libnixstore.so:_ZN3nix9SQLiteTxnD1Ev
libnixstore.so:_ZN3nix9SQLiteTxnD2Ev
libnixstore.so:_ZN3nix9SSHMaster10Connection16trySetBufferSizeEm
libnixstore.so:_ZN3nix9SSHMaster11startMasterB5cxx11Ev
libnixstore.so:_ZN3nix9SSHMaster12startCommandEONSt7__cxx114listINS1_12basic_stringIcSt11char_traitsIcESaIcEEESaIS7_EEESA_
libnixstore.so:_ZN3nix9SSHMaster15isMasterRunningEv
libnixstore.so:_ZN3nix9SSHMaster16addCommonSSHOptsERNSt7__cxx114listINS1_12basic_stringIcSt11char_traitsIcESaIcEEESaIS7_EEE
libnixstore.so:_ZN3nix9SSHMasterC1ESt17basic_string_viewIcSt11char_traitsIcEES4_S4_bbi
libnixstore.so:_ZN3nix9SSHMasterC2ESt17basic_string_viewIcSt11char_traitsIcEES4_S4_bbi
libnixstore.so:_ZN3nix9StorePath5dummyE
libnixstore.so:_ZN3nix9StorePath6randomESt17basic_string_viewIcSt11char_traitsIcEE
libnixstore.so:_ZN3nix9StorePathC1ERKNS_4HashESt17basic_string_viewIcSt11char_traitsIcEE
libnixstore.so:_ZN3nix9StorePathC1ESt17basic_string_viewIcSt11char_traitsIcEE
libnixstore.so:_ZN3nix9StorePathC2ERKNS_4HashESt17basic_string_viewIcSt11char_traitsIcEE
libnixstore.so:_ZN3nix9StorePathC2ESt17basic_string_viewIcSt11char_traitsIcEE
libnixstore.so:_ZN3nix9checkNameESt17basic_string_viewIcSt11char_traitsIcEE
libnixstore.so:_ZN3nix9copyPathsERNS_5StoreES1_RKSt3setINS_12RealisedPathESt4lessIS3_ESaIS3_EENS_10RepairFlagENS_13CheckSigsFlagENS_14SubstituteFlagE
libnixstore.so:_ZN3nix9copyPathsERNS_5StoreES1_RKSt3setINS_9StorePathESt4lessIS3_ESaIS3_EENS_10RepairFlagENS_13CheckSigsFlagENS_14SubstituteFlagE
libnixstore.so:_ZN3nix9drvHashesE
libnixstore.so:_ZN3nix9openStoreEONS_14StoreReferenceE
libnixstore.so:_ZN3nix9openStoreERKNSt7__cxx1112basic_stringIcSt11char_traitsIcESaIcEEERKSt3mapIS5_S5_St4lessIS5_ESaISt4pairIS6_S5_EEE
libnixstore.so:_ZN3nix9showPathsERKSt3setINSt7__cxx1112basic_stringIcSt11char_traitsIcESaIcEEESt4lessIS6_ESaIS6_EE
libnixstore.so:_ZN8nlohmann16json_abi_v3_11_214adl_serializerIN3nix11OutputsSpecEvE7to_jsonERNS0_10basic_jsonISt3mapSt6vectorNSt7__cxx1112basic_stringIcSt11char_traitsIcESaIcEEEblmdSaS1_S7_IhSaIhEEEES3_
libnixstore.so:_ZN8nlohmann16json_abi_v3_11_214adl_serializerIN3nix11OutputsSpecEvE9from_jsonERKNS0_10basic_jsonISt3mapSt6vectorNSt7__cxx1112basic_stringIcSt11char_traitsIcESaIcEEEblmdSaS1_S7_IhSaIhEEEE
libnixstore.so:_ZN8nlohmann16json_abi_v3_11_214adl_serializerIN3nix17DerivationOptions12OutputChecksEvE7to_jsonERNS0_10basic_jsonISt3mapSt6vectorNSt7__cxx1112basic_stringIcSt11char_traitsIcESaIcEEEblmdSaS1_S8_IhSaIhEEEES4_
libnixstore.so:_ZN8nlohmann16json_abi_v3_11_214adl_serializerIN3nix17DerivationOptions12OutputChecksEvE9from_jsonERKNS0_10basic_jsonISt3mapSt6vectorNSt7__cxx1112basic_stringIcSt11char_traitsIcESaIcEEEblmdSaS1_S8_IhSaIhEEEE
libnixstore.so:_ZN8nlohmann16json_abi_v3_11_214adl_serializerIN3nix17DerivationOptionsEvE7to_jsonERNS0_10basic_jsonISt3mapSt6vectorNSt7__cxx1112basic_stringIcSt11char_traitsIcESaIcEEEblmdSaS1_S7_IhSaIhEEEES3_
libnixstore.so:_ZN8nlohmann16json_abi_v3_11_214adl_serializerIN3nix17DerivationOptionsEvE9from_jsonERKNS0_10basic_jsonISt3mapSt6vectorNSt7__cxx1112basic_stringIcSt11char_traitsIcESaIcEEEblmdSaS1_S7_IhSaIhEEEE
libnixstore.so:_ZN8nlohmann16json_abi_v3_11_214adl_serializerIN3nix19ExtendedOutputsSpecEvE7to_jsonERNS0_10basic_jsonISt3mapSt6vectorNSt7__cxx1112basic_stringIcSt11char_traitsIcESaIcEEEblmdSaS1_S7_IhSaIhEEEES3_
libnixstore.so:_ZN8nlohmann16json_abi_v3_11_214adl_serializerIN3nix19ExtendedOutputsSpecEvE9from_jsonERKNS0_10basic_jsonISt3mapSt6vectorNSt7__cxx1112basic_stringIcSt11char_traitsIcESaIcEEEblmdSaS1_S7_IhSaIhEEEE
libnixstore.so:_ZNK3nix10Derivation10tryResolveERNS_5StoreEPS1_
libnixstore.so:_ZNK3nix10Derivation10tryResolveERNS_5StoreERKSt3mapISt4pairINS_9StorePathENSt7__cxx1112basic_stringIcSt11char_traitsIcESaIcEEEES5_St4lessISC_ESaIS4_IKSC_S5_EEE
libnixstore.so:_ZNK3nix10Derivation15checkInvariantsERNS_5StoreERKNS_9StorePathE
libnixstore.so:_ZNK3nix10Derivation6toJSONB5cxx11ERKNS_14StoreDirConfigE
libnixstore.so:_ZNK3nix10Derivation7unparseERKNS_14StoreDirConfigEbPSt3mapINSt7__cxx1112basic_stringIcSt11char_traitsIcESaIcEEENS_14DerivedPathMapISt3setISA_St4lessISA_ESaISA_EEE9ChildNodeESE_SaISt4pairIKSA_SI_EEE
libnixstore.so:_ZNK3nix11BaseSettingINS_11SandboxModeEE5parseERKNSt7__cxx1112basic_stringIcSt11char_traitsIcESaIcEEE
libnixstore.so:_ZNK3nix11BaseSettingINS_11SandboxModeEE9to_stringB5cxx11Ev
libnixstore.so:_ZNK3nix11BuildResulteqERKS0_
libnixstore.so:_ZNK3nix11BuildResultssERKS0_
libnixstore.so:_ZNK3nix11DerivedPath16getBaseStorePathEv
libnixstore.so:_ZNK3nix11DerivedPath16to_string_legacyB5cxx11ERKNS_14StoreDirConfigE
libnixstore.so:_ZNK3nix11DerivedPath6toJSONB5cxx11ERNS_5StoreE
libnixstore.so:_ZNK3nix11DerivedPath9to_stringB5cxx11ERKNS_14StoreDirConfigE
libnixstore.so:_ZNK3nix11OutputsSpec10isSubsetOfERKS0_
libnixstore.so:_ZNK3nix11OutputsSpec6union_ERKS0_
libnixstore.so:_ZNK3nix11OutputsSpec8containsERKNSt7__cxx1112basic_stringIcSt11char_traitsIcESaIcEEE
libnixstore.so:_ZNK3nix11OutputsSpec9to_stringB5cxx11Ev
libnixstore.so:_ZNK3nix11Realisation11fingerprintB5cxx11Ev
libnixstore.so:_ZNK3nix11Realisation14checkSignatureERKSt3mapINSt7__cxx1112basic_stringIcSt11char_traitsIcESaIcEEENS_9PublicKeyESt4lessIS7_ESaISt4pairIKS7_S8_EEERSC_
libnixstore.so:_ZNK3nix11Realisation15checkSignaturesERKSt3mapINSt7__cxx1112basic_stringIcSt11char_traitsIcESaIcEEENS_9PublicKeyESt4lessIS7_ESaISt4pairIKS7_S8_EEE
libnixstore.so:_ZNK3nix11Realisation16isCompatibleWithERKS0_
libnixstore.so:_ZNK3nix11Realisation6toJSONB5cxx11Ev
libnixstore.so:_ZNK3nix12RealisedPath4pathEv
libnixstore.so:_ZNK3nix12RealisedPath7closureERNS_5StoreE
libnixstore.so:_ZNK3nix12RealisedPath7closureERNS_5StoreERSt3setIS0_St4lessIS0_ESaIS0_EE
libnixstore.so:_ZNK3nix13ValidPathInfo11fingerprintB5cxx11ERKNS_5StoreE
libnixstore.so:_ZNK3nix13ValidPathInfo14checkSignatureERKNS_5StoreERKSt3mapINSt7__cxx1112basic_stringIcSt11char_traitsIcESaIcEEENS_9PublicKeyESt4lessISA_ESaISt4pairIKSA_SB_EEERSF_
libnixstore.so:_ZNK3nix13ValidPathInfo15checkSignaturesERKNS_5StoreERKSt3mapINSt7__cxx1112basic_stringIcSt11char_traitsIcESaIcEEENS_9PublicKeyESt4lessISA_ESaISt4pairIKSA_SB_EEE
libnixstore.so:_ZNK3nix13ValidPathInfo18isContentAddressedERKNS_5StoreE
libnixstore.so:_ZNK3nix13ValidPathInfo28contentAddressWithReferencesEv
libnixstore.so:_ZNK3nix13ValidPathInfo9shortRefsB5cxx11Ev
libnixstore.so:_ZNK3nix14ContentAddress15printMethodAlgoB5cxx11Ev
libnixstore.so:_ZNK3nix14ContentAddress6renderB5cxx11Ev
libnixstore.so:_ZNK3nix14DerivationType11isSandboxedEv
libnixstore.so:_ZNK3nix14DerivationType19hasKnownOutputPathsEv
libnixstore.so:_ZNK3nix14DerivationType4isCAEv
libnixstore.so:_ZNK3nix14DerivationType7isFixedEv
libnixstore.so:_ZNK3nix14DerivationType8isImpureEv
libnixstore.so:_ZNK3nix14DerivedPathMapISt3setINSt7__cxx1112basic_stringIcSt11char_traitsIcESaIcEEESt4lessIS7_ESaIS7_EEE9ChildNodeeqERKSD_
libnixstore.so:_ZNK3nix14StoreDirConfig11isStorePathESt17basic_string_viewIcSt11char_traitsIcEE
libnixstore.so:_ZNK3nix14StoreDirConfig11toStorePathB5cxx11ESt17basic_string_viewIcSt11char_traitsIcEE
libnixstore.so:_ZNK3nix14StoreDirConfig13makeStorePathESt17basic_string_viewIcSt11char_traitsIcEERKNS_4HashES4_
libnixstore.so:_ZNK3nix14StoreDirConfig13makeStorePathESt17basic_string_viewIcSt11char_traitsIcEES4_S4_
libnixstore.so:_ZNK3nix14StoreDirConfig14makeOutputPathESt17basic_string_viewIcSt11char_traitsIcEERKNS_4HashES4_
libnixstore.so:_ZNK3nix14StoreDirConfig14parseStorePathESt17basic_string_viewIcSt11char_traitsIcEE
libnixstore.so:_ZNK3nix14StoreDirConfig14printStorePathB5cxx11ERKNS_9StorePathE
libnixstore.so:_ZNK3nix14StoreDirConfig16computeStorePathESt17basic_string_viewIcSt11char_traitsIcEERKNS_10SourcePathENS_20ContentAddressMethodENS_13HashAlgorithmERKSt3setINS_9StorePathESt4lessISB_ESaISB_EERSt8functionIFbRKNSt7__cxx1112basic_stringIcS3_SaIcEEEEE
libnixstore.so:_ZNK3nix14StoreDirConfig17parseStorePathSetERKSt3setINSt7__cxx1112basic_stringIcSt11char_traitsIcESaIcEEESt4lessIS7_ESaIS7_EE
libnixstore.so:_ZNK3nix14StoreDirConfig17printStorePathSetB5cxx11ERKSt3setINS_9StorePathESt4lessIS2_ESaIS2_EE
libnixstore.so:_ZNK3nix14StoreDirConfig19makeFixedOutputPathESt17basic_string_viewIcSt11char_traitsIcEERKNS_15FixedOutputInfoE
libnixstore.so:_ZNK3nix14StoreDirConfig19maybeParseStorePathESt17basic_string_viewIcSt11char_traitsIcEE
libnixstore.so:_ZNK3nix14StoreDirConfig25makeFixedOutputPathFromCAESt17basic_string_viewIcSt11char_traitsIcEERKNS_28ContentAddressWithReferencesE
libnixstore.so:_ZNK3nix14StoreDirConfig9isInStoreESt17basic_string_viewIcSt11char_traitsIcEE
libnixstore.so:_ZNK3nix14StoreReference6renderB5cxx11Ev
libnixstore.so:_ZNK3nix15BasicDerivation11outputNamesB5cxx11Ev
libnixstore.so:_ZNK3nix15BasicDerivation18outputsAndOptPathsB5cxx11ERKNS_14StoreDirConfigE
libnixstore.so:_ZNK3nix15BasicDerivation4typeEv
libnixstore.so:_ZNK3nix15BasicDerivation9isBuiltinEv
libnixstore.so:_ZNK3nix15CompareGoalPtrsclERKSt10shared_ptrINS_4GoalEES5_
libnixstore.so:_ZNK3nix15StoreReferences4sizeEv
libnixstore.so:_ZNK3nix15StoreReferences5emptyEv
libnixstore.so:_ZNK3nix16DerivationOutput4pathERKNS_14StoreDirConfigESt17basic_string_viewIcSt11char_traitsIcEES7_
libnixstore.so:_ZNK3nix16DerivationOutput6toJSONB5cxx11ERKNS_14StoreDirConfigESt17basic_string_viewIcSt11char_traitsIcEES7_
libnixstore.so:_ZNK3nix16DerivationOutput7CAFixed4pathERKNS_14StoreDirConfigESt17basic_string_viewIcSt11char_traitsIcEES8_
libnixstore.so:_ZNK3nix16DerivedPathBuilt16getBaseStorePathEv
libnixstore.so:_ZNK3nix16DerivedPathBuilt16to_string_legacyB5cxx11ERKNS_14StoreDirConfigE
libnixstore.so:_ZNK3nix16DerivedPathBuilt6toJSONB5cxx11ERNS_5StoreE
libnixstore.so:_ZNK3nix16DerivedPathBuilt9to_stringB5cxx11ERKNS_14StoreDirConfigE
libnixstore.so:_ZNK3nix16DerivedPathBuilteqERKS0_
libnixstore.so:_ZNK3nix16DerivedPathBuiltltERKS0_
libnixstore.so:_ZNK3nix16ParsedDerivation11getBoolAttrERKNSt7__cxx1112basic_stringIcSt11char_traitsIcESaIcEEEb
libnixstore.so:_ZNK3nix16ParsedDerivation13getStringAttrERKNSt7__cxx1112basic_stringIcSt11char_traitsIcESaIcEEE
libnixstore.so:_ZNK3nix16ParsedDerivation14getStringsAttrERKNSt7__cxx1112basic_stringIcSt11char_traitsIcESaIcEEE
libnixstore.so:_ZNK3nix16ParsedDerivation16getStringSetAttrERKNSt7__cxx1112basic_stringIcSt11char_traitsIcESaIcEEE
libnixstore.so:_ZNK3nix17DerivationOptions11useUidRangeERKNS_15BasicDerivationE
libnixstore.so:_ZNK3nix17DerivationOptions15canBuildLocallyERNS_5StoreERKNS_15BasicDerivationE
libnixstore.so:_ZNK3nix17DerivationOptions16willBuildLocallyERNS_5StoreERKNS_15BasicDerivationE
libnixstore.so:_ZNK3nix17DerivationOptions18substitutesAllowedEv
libnixstore.so:_ZNK3nix17DerivationOptions25getRequiredSystemFeaturesB5cxx11ERKNS_15BasicDerivationE
libnixstore.so:_ZNK3nix17DerivedPathOpaque6toJSONB5cxx11ERKNS_14StoreDirConfigE
libnixstore.so:_ZNK3nix17DerivedPathOpaque9to_stringB5cxx11ERKNS_14StoreDirConfigE
libnixstore.so:_ZNK3nix17SingleDerivedPath16getBaseStorePathEv
libnixstore.so:_ZNK3nix17SingleDerivedPath16to_string_legacyB5cxx11ERKNS_14StoreDirConfigE
libnixstore.so:_ZNK3nix17SingleDerivedPath6toJSONB5cxx11ERNS_5StoreE
libnixstore.so:_ZNK3nix17SingleDerivedPath9to_stringB5cxx11ERKNS_14StoreDirConfigE
libnixstore.so:_ZNK3nix19ExtendedOutputsSpec9to_stringB5cxx11Ev
libnixstore.so:_ZNK3nix19MaxBuildJobsSetting5parseERKNSt7__cxx1112basic_stringIcSt11char_traitsIcESaIcEEE
libnixstore.so:_ZNK3nix20ContentAddressMethod12renderPrefixEv
libnixstore.so:_ZNK3nix20ContentAddressMethod14renderWithAlgoB5cxx11ENS_13HashAlgorithmE
libnixstore.so:_ZNK3nix20ContentAddressMethod22getFileIngestionMethodEv
libnixstore.so:_ZNK3nix20ContentAddressMethod6renderEv
libnixstore.so:_ZNK3nix20StorePathWithOutputs13toDerivedPathEv
libnixstore.so:_ZNK3nix20StorePathWithOutputs9to_stringB5cxx11ERKNS_14StoreDirConfigE
libnixstore.so:_ZNK3nix20UnkeyedValidPathInfo6toJSONB5cxx11ERKNS_5StoreEbNS_10HashFormatE
libnixstore.so:_ZNK3nix20UnkeyedValidPathInfoeqERKS0_
libnixstore.so:_ZNK3nix20UnkeyedValidPathInfossERKS0_
libnixstore.so:_ZNK3nix21DownstreamPlaceholder6renderB5cxx11Ev
libnixstore.so:_ZNK3nix22SingleDerivedPathBuilt16getBaseStorePathEv
libnixstore.so:_ZNK3nix22SingleDerivedPathBuilt16to_string_legacyB5cxx11ERKNS_14StoreDirConfigE
libnixstore.so:_ZNK3nix22SingleDerivedPathBuilt6toJSONB5cxx11ERNS_5StoreE
libnixstore.so:_ZNK3nix22SingleDerivedPathBuilt9to_stringB5cxx11ERKNS_14StoreDirConfigE
libnixstore.so:_ZNK3nix22SingleDerivedPathBuilteqERKS0_
libnixstore.so:_ZNK3nix22SingleDerivedPathBuiltssERKS0_
libnixstore.so:_ZNK3nix28ContentAddressWithReferences7getHashEv
libnixstore.so:_ZNK3nix28ContentAddressWithReferences9getMethodEv
libnixstore.so:_ZNK3nix4Goal14getBuildResultERKNS_11DerivedPathE
libnixstore.so:_ZNK3nix5Store18followLinksToStoreB5cxx11ESt17basic_string_viewIcSt11char_traitsIcEE
libnixstore.so:_ZNK3nix5Store22followLinksToStorePathESt17basic_string_viewIcSt11char_traitsIcEE
libnixstore.so:_ZNK3nix7Machine12allSupportedERKSt3setINSt7__cxx1112basic_stringIcSt11char_traitsIcESaIcEEESt4lessIS7_ESaIS7_EE
libnixstore.so:_ZNK3nix7Machine12mandatoryMetERKSt3setINSt7__cxx1112basic_stringIcSt11char_traitsIcESaIcEEESt4lessIS7_ESaIS7_EE
libnixstore.so:_ZNK3nix7Machine15systemSupportedERKNSt7__cxx1112basic_stringIcSt11char_traitsIcESaIcEEE
libnixstore.so:_ZNK3nix7Machine22completeStoreReferenceEv
libnixstore.so:_ZNK3nix7Machine9openStoreEv
libnixstore.so:_ZNK3nix7NarInfo6toJSONB5cxx11ERKNS_5StoreEbNS_10HashFormatE
libnixstore.so:_ZNK3nix7NarInfo9to_stringB5cxx11ERKNS_5StoreE
libnixstore.so:_ZNK3nix9DrvOutput9to_stringB5cxx11Ev
libnixstore.so:_ZNK3nix9StorePath12isDerivationEv
libnixstore.so:_ZNK3nix9StorePath17requireDerivationEv
libnixstore.so:_ZTCN3nix10LocalStoreE0_NS_12LocalFSStoreE
libnixstore.so:_ZTCN3nix10LocalStoreE0_NS_17IndirectRootStoreE
libnixstore.so:_ZTCN3nix10LocalStoreE0_NS_7GcStoreE
libnixstore.so:_ZTCN3nix10LocalStoreE2832_NS_5StoreE
libnixstore.so:_ZTCN3nix10LocalStoreE3112_NS_8LogStoreE
libnixstore.so:_ZTCN3nix10LocalStoreE504_NS_16LocalStoreConfigE
libnixstore.so:_ZTCN3nix10LocalStoreE800_NS_18LocalFSStoreConfigE
libnixstore.so:_ZTCN3nix11RemoteStoreE0_NS_7GcStoreE
libnixstore.so:_ZTCN3nix11RemoteStoreE1520_NS_5StoreE
libnixstore.so:_ZTCN3nix11RemoteStoreE1800_NS_8LogStoreE
libnixstore.so:_ZTCN3nix11RemoteStoreE32_NS_17RemoteStoreConfigE
libnixstore.so:_ZTCN3nix12LocalFSStoreE0_NS_7GcStoreE
libnixstore.so:_ZTCN3nix12LocalFSStoreE2040_NS_5StoreE
libnixstore.so:_ZTCN3nix12LocalFSStoreE2320_NS_8LogStoreE
libnixstore.so:_ZTCN3nix12LocalFSStoreE8_NS_18LocalFSStoreConfigE
libnixstore.so:_ZTCN3nix14LegacySSHStoreE2760_NS_5StoreE
libnixstore.so:_ZTCN3nix14LegacySSHStoreE384_NS_20LegacySSHStoreConfigE
libnixstore.so:_ZTCN3nix14LegacySSHStoreE776_NS_20CommonSSHStoreConfigE
libnixstore.so:_ZTCN3nix14SSHStoreConfigE1688_NS_20CommonSSHStoreConfigE
libnixstore.so:_ZTCN3nix14SSHStoreConfigE200_NS_17RemoteStoreConfigE
libnixstore.so:_ZTCN3nix14UDSRemoteStoreE0_NS_12LocalFSStoreE
libnixstore.so:_ZTCN3nix14UDSRemoteStoreE0_NS_17IndirectRootStoreE
libnixstore.so:_ZTCN3nix14UDSRemoteStoreE0_NS_7GcStoreE
libnixstore.so:_ZTCN3nix14UDSRemoteStoreE2080_NS_17RemoteStoreConfigE
libnixstore.so:_ZTCN3nix14UDSRemoteStoreE2392_NS_5StoreE
libnixstore.so:_ZTCN3nix14UDSRemoteStoreE2672_NS_8LogStoreE
libnixstore.so:_ZTCN3nix14UDSRemoteStoreE2680_NS_11RemoteStoreE
libnixstore.so:_ZTCN3nix14UDSRemoteStoreE48_NS_18LocalFSStoreConfigE
libnixstore.so:_ZTCN3nix14UDSRemoteStoreE8_NS_20UDSRemoteStoreConfigE
libnixstore.so:_ZTCN3nix16BinaryCacheStoreE0_NS_8LogStoreE
libnixstore.so:_ZTCN3nix16BinaryCacheStoreE112_NS_22BinaryCacheStoreConfigE
libnixstore.so:_ZTCN3nix16BinaryCacheStoreE2504_NS_5StoreE
libnixstore.so:_ZTCN3nix16LocalStoreConfigE296_NS_18LocalFSStoreConfigE
libnixstore.so:_ZTCN3nix17IndirectRootStoreE0_NS_12LocalFSStoreE
libnixstore.so:_ZTCN3nix17IndirectRootStoreE0_NS_7GcStoreE
libnixstore.so:_ZTCN3nix17IndirectRootStoreE2040_NS_5StoreE
libnixstore.so:_ZTCN3nix17IndirectRootStoreE2320_NS_8LogStoreE
libnixstore.so:_ZTCN3nix17IndirectRootStoreE8_NS_18LocalFSStoreConfigE
libnixstore.so:_ZTCN3nix17LocalOverlayStoreE0_NS_8LogStoreE
libnixstore.so:_ZTCN3nix17LocalOverlayStoreE1104_NS_18LocalFSStoreConfigE
libnixstore.so:_ZTCN3nix17LocalOverlayStoreE3136_NS_10LocalStoreE
libnixstore.so:_ZTCN3nix17LocalOverlayStoreE3136_NS_12LocalFSStoreE
libnixstore.so:_ZTCN3nix17LocalOverlayStoreE3136_NS_17IndirectRootStoreE
libnixstore.so:_ZTCN3nix17LocalOverlayStoreE3136_NS_7GcStoreE
libnixstore.so:_ZTCN3nix17LocalOverlayStoreE32_NS_23LocalOverlayStoreConfigE
libnixstore.so:_ZTCN3nix17LocalOverlayStoreE3640_NS_5StoreE
libnixstore.so:_ZTCN3nix17LocalOverlayStoreE808_NS_16LocalStoreConfigE
libnixstore.so:_ZTCN3nix20LegacySSHStoreConfigE392_NS_20CommonSSHStoreConfigE
libnixstore.so:_ZTCN3nix20UDSRemoteStoreConfigE2072_NS_17RemoteStoreConfigE
libnixstore.so:_ZTCN3nix20UDSRemoteStoreConfigE40_NS_18LocalFSStoreConfigE
libnixstore.so:_ZTCN3nix21LocalBinaryCacheStoreE0_NS_8LogStoreE
libnixstore.so:_ZTCN3nix21LocalBinaryCacheStoreE2440_NS_16BinaryCacheStoreE
libnixstore.so:_ZTCN3nix21LocalBinaryCacheStoreE2552_NS_5StoreE
libnixstore.so:_ZTCN3nix21LocalBinaryCacheStoreE48_NS_22BinaryCacheStoreConfigE
libnixstore.so:_ZTCN3nix21LocalBinaryCacheStoreE8_NS_27LocalBinaryCacheStoreConfigE
libnixstore.so:_ZTCN3nix21MountedSSHStoreConfigE1696_NS_20CommonSSHStoreConfigE
libnixstore.so:_ZTCN3nix21MountedSSHStoreConfigE208_NS_17RemoteStoreConfigE
libnixstore.so:_ZTCN3nix21MountedSSHStoreConfigE2504_NS_18LocalFSStoreConfigE
libnixstore.so:_ZTCN3nix21MountedSSHStoreConfigE8_NS_14SSHStoreConfigE
libnixstore.so:_ZTCN3nix23LocalOverlayStoreConfigE1072_NS_18LocalFSStoreConfigE
libnixstore.so:_ZTCN3nix23LocalOverlayStoreConfigE776_NS_16LocalStoreConfigE
libnixstore.so:_ZTCN3nix26HttpBinaryCacheStoreConfigE40_NS_22BinaryCacheStoreConfigE
libnixstore.so:_ZTCN3nix27LocalBinaryCacheStoreConfigE40_NS_22BinaryCacheStoreConfigE
libnixstore.so:_ZTCN3nix8SSHStoreE0_NS_8LogStoreE
libnixstore.so:_ZTCN3nix8SSHStoreE1960_NS_20CommonSSHStoreConfigE
libnixstore.so:_ZTCN3nix8SSHStoreE272_NS_14SSHStoreConfigE
libnixstore.so:_ZTCN3nix8SSHStoreE2768_NS_11RemoteStoreE
libnixstore.so:_ZTCN3nix8SSHStoreE2768_NS_7GcStoreE
libnixstore.so:_ZTCN3nix8SSHStoreE2800_NS_5StoreE
libnixstore.so:_ZTCN3nix8SSHStoreE472_NS_17RemoteStoreConfigE
libnixstore.so:_ZTIN3nix10LocalStoreE
libnixstore.so:_ZTIN3nix11RemoteStoreE
libnixstore.so:_ZTIN3nix11WorkerProto21BasicClientConnectionE
libnixstore.so:_ZTIN3nix12LocalFSStoreE
libnixstore.so:_ZTIN3nix14DerivationGoalE
libnixstore.so:_ZTIN3nix14LegacySSHStoreE
libnixstore.so:_ZTIN3nix14SSHStoreConfigE
libnixstore.so:_ZTIN3nix14UDSRemoteStore10ConnectionE
libnixstore.so:_ZTIN3nix14UDSRemoteStoreE
libnixstore.so:_ZTIN3nix16BinaryCacheStoreE
libnixstore.so:_ZTIN3nix16LocalStoreConfigE
libnixstore.so:_ZTIN3nix16RemoteFSAccessorE
libnixstore.so:_ZTIN3nix17IndirectRootStoreE
libnixstore.so:_ZTIN3nix17LocalOverlayStoreE
libnixstore.so:_ZTIN3nix19LocalDerivationGoalE
libnixstore.so:_ZTIN3nix19MaxBuildJobsSettingE
libnixstore.so:_ZTIN3nix20LegacySSHStoreConfigE
libnixstore.so:_ZTIN3nix20PathSubstitutionGoalE
libnixstore.so:_ZTIN3nix20UDSRemoteStoreConfigE
libnixstore.so:_ZTIN3nix20UnkeyedValidPathInfoE
libnixstore.so:_ZTIN3nix21LocalBinaryCacheStoreE
libnixstore.so:_ZTIN3nix21MountedSSHStoreConfigE
libnixstore.so:_ZTIN3nix23LocalOverlayStoreConfigE
libnixstore.so:_ZTIN3nix25DrvOutputSubstitutionGoalE
libnixstore.so:_ZTIN3nix26HttpBinaryCacheStoreConfigE
libnixstore.so:_ZTIN3nix27LocalBinaryCacheStoreConfigE
libnixstore.so:_ZTIN3nix4GoalE
libnixstore.so:_ZTIN3nix5StoreE
libnixstore.so:_ZTIN3nix7NarInfoE
libnixstore.so:_ZTIN3nix8SSHStoreE
libnixstore.so:_ZTSN3nix10LocalStoreE
libnixstore.so:_ZTSN3nix11RemoteStoreE
libnixstore.so:_ZTSN3nix11WorkerProto21BasicClientConnectionE
libnixstore.so:_ZTSN3nix12LocalFSStoreE
libnixstore.so:_ZTSN3nix14DerivationGoalE
libnixstore.so:_ZTSN3nix14LegacySSHStoreE
libnixstore.so:_ZTSN3nix14SSHStoreConfigE
libnixstore.so:_ZTSN3nix14UDSRemoteStore10ConnectionE
libnixstore.so:_ZTSN3nix14UDSRemoteStoreE
libnixstore.so:_ZTSN3nix16BinaryCacheStoreE
libnixstore.so:_ZTSN3nix16LocalStoreConfigE
libnixstore.so:_ZTSN3nix16RemoteFSAccessorE
libnixstore.so:_ZTSN3nix17IndirectRootStoreE
libnixstore.so:_ZTSN3nix17LocalOverlayStoreE
libnixstore.so:_ZTSN3nix19LocalDerivationGoalE
libnixstore.so:_ZTSN3nix19MaxBuildJobsSettingE
libnixstore.so:_ZTSN3nix20LegacySSHStoreConfigE
libnixstore.so:_ZTSN3nix20PathSubstitutionGoalE
libnixstore.so:_ZTSN3nix20UDSRemoteStoreConfigE
libnixstore.so:_ZTSN3nix20UnkeyedValidPathInfoE
libnixstore.so:_ZTSN3nix21LocalBinaryCacheStoreE
libnixstore.so:_ZTSN3nix21MountedSSHStoreConfigE
libnixstore.so:_ZTSN3nix23LocalOverlayStoreConfigE
libnixstore.so:_ZTSN3nix25DrvOutputSubstitutionGoalE
libnixstore.so:_ZTSN3nix26HttpBinaryCacheStoreConfigE
libnixstore.so:_ZTSN3nix27LocalBinaryCacheStoreConfigE
libnixstore.so:_ZTSN3nix4GoalE
libnixstore.so:_ZTSN3nix5StoreE
libnixstore.so:_ZTSN3nix7NarInfoE
libnixstore.so:_ZTSN3nix8SSHStoreE
libnixstore.so:_ZTTN3nix10LocalStoreE
libnixstore.so:_ZTTN3nix11RemoteStoreE
libnixstore.so:_ZTTN3nix12LocalFSStoreE
libnixstore.so:_ZTTN3nix14LegacySSHStoreE
libnixstore.so:_ZTTN3nix14SSHStoreConfigE
libnixstore.so:_ZTTN3nix14UDSRemoteStoreE
libnixstore.so:_ZTTN3nix16BinaryCacheStoreE
libnixstore.so:_ZTTN3nix16LocalStoreConfigE
libnixstore.so:_ZTTN3nix17IndirectRootStoreE
libnixstore.so:_ZTTN3nix17LocalOverlayStoreE
libnixstore.so:_ZTTN3nix20LegacySSHStoreConfigE
libnixstore.so:_ZTTN3nix20UDSRemoteStoreConfigE
libnixstore.so:_ZTTN3nix21LocalBinaryCacheStoreE
libnixstore.so:_ZTTN3nix21MountedSSHStoreConfigE
libnixstore.so:_ZTTN3nix23LocalOverlayStoreConfigE
libnixstore.so:_ZTTN3nix26HttpBinaryCacheStoreConfigE
libnixstore.so:_ZTTN3nix27LocalBinaryCacheStoreConfigE
libnixstore.so:_ZTTN3nix5StoreE
libnixstore.so:_ZTTN3nix8SSHStoreE
libnixstore.so:_ZTVN3nix10LocalStoreE
libnixstore.so:_ZTVN3nix11RemoteStoreE
libnixstore.so:_ZTVN3nix11WorkerProto21BasicClientConnectionE
libnixstore.so:_ZTVN3nix12LocalFSStoreE
libnixstore.so:_ZTVN3nix14DerivationGoalE
libnixstore.so:_ZTVN3nix14LegacySSHStoreE
libnixstore.so:_ZTVN3nix14SSHStoreConfigE
libnixstore.so:_ZTVN3nix14UDSRemoteStore10ConnectionE
libnixstore.so:_ZTVN3nix14UDSRemoteStoreE
libnixstore.so:_ZTVN3nix16BinaryCacheStoreE
libnixstore.so:_ZTVN3nix16LocalStoreConfigE
libnixstore.so:_ZTVN3nix16RemoteFSAccessorE
libnixstore.so:_ZTVN3nix17IndirectRootStoreE
libnixstore.so:_ZTVN3nix17LocalOverlayStoreE
libnixstore.so:_ZTVN3nix19LocalDerivationGoalE
libnixstore.so:_ZTVN3nix19MaxBuildJobsSettingE
libnixstore.so:_ZTVN3nix20LegacySSHStoreConfigE
libnixstore.so:_ZTVN3nix20PathSubstitutionGoalE
libnixstore.so:_ZTVN3nix20UDSRemoteStoreConfigE
libnixstore.so:_ZTVN3nix20UnkeyedValidPathInfoE
libnixstore.so:_ZTVN3nix21LocalBinaryCacheStoreE
libnixstore.so:_ZTVN3nix21MountedSSHStoreConfigE
libnixstore.so:_ZTVN3nix23LocalOverlayStoreConfigE
libnixstore.so:_ZTVN3nix25DrvOutputSubstitutionGoalE
libnixstore.so:_ZTVN3nix26HttpBinaryCacheStoreConfigE
libnixstore.so:_ZTVN3nix27LocalBinaryCacheStoreConfigE
libnixstore.so:_ZTVN3nix4GoalE
libnixstore.so:_ZTVN3nix5StoreE
libnixstore.so:_ZTVN3nix7NarInfoE
libnixstore.so:_ZTVN3nix8SSHStoreE
libnixstore.so:_ZTv0_n104_N3nix10LocalStore24queryRealisationUncachedERKNS_9DrvOutputENS_8CallbackISt10shared_ptrIKNS_11RealisationEEEE
libnixstore.so:_ZTv0_n104_N3nix11RemoteStore24queryRealisationUncachedERKNS_9DrvOutputENS_8CallbackISt10shared_ptrIKNS_11RealisationEEEE
libnixstore.so:_ZTv0_n104_N3nix16BinaryCacheStore24queryRealisationUncachedERKNS_9DrvOutputENS_8CallbackISt10shared_ptrIKNS_11RealisationEEEE
libnixstore.so:_ZTv0_n104_N3nix17IndirectRootStore11addPermRootERKNS_9StorePathERKNSt7__cxx1112basic_stringIcSt11char_traitsIcESaIcEEE
libnixstore.so:_ZTv0_n104_N3nix17LocalOverlayStore24queryRealisationUncachedERKNS_9DrvOutputENS_8CallbackISt10shared_ptrIKNS_11RealisationEEEE
libnixstore.so:_ZTv0_n112_N3nix10LocalStore14queryReferrersERKNS_9StorePathERSt3setIS1_St4lessIS1_ESaIS1_EE
libnixstore.so:_ZTv0_n112_N3nix11RemoteStore14queryReferrersERKNS_9StorePathERSt3setIS1_St4lessIS1_ESaIS1_EE
libnixstore.so:_ZTv0_n112_N3nix17LocalOverlayStore14queryReferrersERKNS_9StorePathERSt3setIS1_St4lessIS1_ESaIS1_EE
libnixstore.so:_ZTv0_n120_N3nix10LocalStore18queryValidDeriversERKNS_9StorePathE
libnixstore.so:_ZTv0_n120_N3nix11RemoteStore18queryValidDeriversERKNS_9StorePathE
libnixstore.so:_ZTv0_n120_N3nix17LocalOverlayStore18queryValidDeriversERKNS_9StorePathE
libnixstore.so:_ZTv0_n120_N3nix21LocalBinaryCacheStore4initEv
libnixstore.so:_ZTv0_n128_N3nix11RemoteStore22queryDerivationOutputsERKNS_9StorePathE
libnixstore.so:_ZTv0_n136_N3nix11RemoteStore31queryPartialDerivationOutputMapB5cxx11ERKNS_9StorePathEPNS_5StoreE
libnixstore.so:_ZTv0_n144_N3nix10LocalStore15addIndirectRootERKNSt7__cxx1112basic_stringIcSt11char_traitsIcESaIcEEE
libnixstore.so:_ZTv0_n144_N3nix10LocalStore37queryStaticPartialDerivationOutputMapB5cxx11ERKNS_9StorePathE
libnixstore.so:_ZTv0_n144_N3nix14UDSRemoteStore15addIndirectRootERKNSt7__cxx1112basic_stringIcSt11char_traitsIcESaIcEEE
libnixstore.so:_ZTv0_n152_N3nix10LocalStore21queryPathFromHashPartERKNSt7__cxx1112basic_stringIcSt11char_traitsIcESaIcEEE
libnixstore.so:_ZTv0_n152_N3nix11RemoteStore21queryPathFromHashPartERKNSt7__cxx1112basic_stringIcSt11char_traitsIcESaIcEEE
libnixstore.so:_ZTv0_n152_N3nix16BinaryCacheStore21queryPathFromHashPartERKNSt7__cxx1112basic_stringIcSt11char_traitsIcESaIcEEE
libnixstore.so:_ZTv0_n152_N3nix17LocalOverlayStore21queryPathFromHashPartERKNSt7__cxx1112basic_stringIcSt11char_traitsIcESaIcEEE
libnixstore.so:_ZTv0_n160_N3nix10LocalStore23querySubstitutablePathsERKSt3setINS_9StorePathESt4lessIS2_ESaIS2_EE
libnixstore.so:_ZTv0_n160_N3nix11RemoteStore23querySubstitutablePathsERKSt3setINS_9StorePathESt4lessIS2_ESaIS2_EE
libnixstore.so:_ZTv0_n168_N3nix11RemoteStore27querySubstitutablePathInfosERKSt3mapINS_9StorePathESt8optionalINS_14ContentAddressEESt4lessIS2_ESaISt4pairIKS2_S5_EEERS1_IS2_NS_21SubstitutablePathInfoES7_SaIS8_IS9_SF_EEE
libnixstore.so:_ZTv0_n176_N3nix10LocalStore10addToStoreERKNS_13ValidPathInfoERNS_6SourceENS_10RepairFlagENS_13CheckSigsFlagE
libnixstore.so:_ZTv0_n176_N3nix11RemoteStore10addToStoreERKNS_13ValidPathInfoERNS_6SourceENS_10RepairFlagENS_13CheckSigsFlagE
libnixstore.so:_ZTv0_n176_N3nix14LegacySSHStore10addToStoreERKNS_13ValidPathInfoERNS_6SourceENS_10RepairFlagENS_13CheckSigsFlagE
libnixstore.so:_ZTv0_n176_N3nix16BinaryCacheStore10addToStoreERKNS_13ValidPathInfoERNS_6SourceENS_10RepairFlagENS_13CheckSigsFlagE
libnixstore.so:_ZTv0_n176_N3nix17LocalOverlayStore19isValidPathUncachedERKNS_9StorePathE
libnixstore.so:_ZTv0_n184_N3nix11RemoteStore18addMultipleToStoreERNS_6SourceENS_10RepairFlagENS_13CheckSigsFlagE
libnixstore.so:_ZTv0_n192_N3nix11RemoteStore18addMultipleToStoreEOSt6vectorISt4pairINS_13ValidPathInfoESt10unique_ptrINS_6SourceESt14default_deleteIS5_EEESaIS9_EERNS_8ActivityENS_10RepairFlagENS_13CheckSigsFlagE
libnixstore.so:_ZTv0_n200_N3nix16BinaryCacheStore10addToStoreESt17basic_string_viewIcSt11char_traitsIcEERKNS_10SourcePathENS_20ContentAddressMethodENS_13HashAlgorithmERKSt3setINS_9StorePathESt4lessISB_ESaISB_EERSt8functionIFbRKNSt7__cxx1112basic_stringIcS3_SaIcEEEEENS_10RepairFlagE
libnixstore.so:_ZTv0_n200_N3nix17LocalOverlayStore21queryPathInfoUncachedERKNS_9StorePathENS_8CallbackISt10shared_ptrIKNS_13ValidPathInfoEEEE
libnixstore.so:_ZTv0_n208_N3nix10LocalStore18addToStoreFromDumpERNS_6SourceESt17basic_string_viewIcSt11char_traitsIcEENS_23FileSerialisationMethodENS_20ContentAddressMethodENS_13HashAlgorithmERKSt3setINS_9StorePathESt4lessISB_ESaISB_EENS_10RepairFlagE
libnixstore.so:_ZTv0_n208_N3nix11RemoteStore18addToStoreFromDumpERNS_6SourceESt17basic_string_viewIcSt11char_traitsIcEENS_23FileSerialisationMethodENS_20ContentAddressMethodENS_13HashAlgorithmERKSt3setINS_9StorePathESt4lessISB_ESaISB_EENS_10RepairFlagE
libnixstore.so:_ZTv0_n208_N3nix16BinaryCacheStore18addToStoreFromDumpERNS_6SourceESt17basic_string_viewIcSt11char_traitsIcEENS_23FileSerialisationMethodENS_20ContentAddressMethodENS_13HashAlgorithmERKSt3setINS_9StorePathESt4lessISB_ESaISB_EENS_10RepairFlagE
libnixstore.so:_ZTv0_n208_N3nix17LocalOverlayStore14queryReferrersERKNS_9StorePathERSt3setIS1_St4lessIS1_ESaIS1_EE
libnixstore.so:_ZTv0_n216_N3nix10LocalStore17registerDrvOutputERKNS_11RealisationE
libnixstore.so:_ZTv0_n216_N3nix11RemoteStore17registerDrvOutputERKNS_11RealisationE
libnixstore.so:_ZTv0_n216_N3nix16BinaryCacheStore17registerDrvOutputERKNS_11RealisationE
libnixstore.so:_ZTv0_n216_N3nix17LocalOverlayStore17registerDrvOutputERKNS_11RealisationE
libnixstore.so:_ZTv0_n216_N3nix17LocalOverlayStore18queryValidDeriversERKNS_9StorePathE
libnixstore.so:_ZTv0_n224_N3nix10LocalStore17registerDrvOutputERKNS_11RealisationENS_13CheckSigsFlagE
libnixstore.so:_ZTv0_n232_N3nix11RemoteStore11narFromPathERKNS_9StorePathERNS_4SinkE
libnixstore.so:_ZTv0_n232_N3nix12LocalFSStore11narFromPathERKNS_9StorePathERNS_4SinkE
libnixstore.so:_ZTv0_n232_N3nix14LegacySSHStore11narFromPathERKNS_9StorePathERNS_4SinkE
libnixstore.so:_ZTv0_n232_N3nix16BinaryCacheStore11narFromPathERKNS_9StorePathERNS_4SinkE
libnixstore.so:_ZTv0_n232_N3nix17LocalOverlayStore21queryPathFromHashPartERKNSt7__cxx1112basic_stringIcSt11char_traitsIcESaIcEEE
libnixstore.so:_ZTv0_n240_N3nix11RemoteStore10buildPathsERKSt6vectorINS_11DerivedPathESaIS2_EENS_9BuildModeESt10shared_ptrINS_5StoreEE
libnixstore.so:_ZTv0_n240_N3nix14LegacySSHStore10buildPathsERKSt6vectorINS_11DerivedPathESaIS2_EENS_9BuildModeESt10shared_ptrINS_5StoreEE
libnixstore.so:_ZTv0_n248_N3nix11RemoteStore21buildPathsWithResultsERKSt6vectorINS_11DerivedPathESaIS2_EENS_9BuildModeESt10shared_ptrINS_5StoreEE
libnixstore.so:_ZTv0_n256_N3nix11RemoteStore15buildDerivationERKNS_9StorePathERKNS_15BasicDerivationENS_9BuildModeE
libnixstore.so:_ZTv0_n256_N3nix14LegacySSHStore15buildDerivationERKNS_9StorePathERKNS_15BasicDerivationENS_9BuildModeE
libnixstore.so:_ZTv0_n264_N3nix11RemoteStore10ensurePathERKNS_9StorePathE
libnixstore.so:_ZTv0_n272_N3nix10LocalStore11addTempRootERKNS_9StorePathE
libnixstore.so:_ZTv0_n272_N3nix11RemoteStore11addTempRootERKNS_9StorePathE
libnixstore.so:_ZTv0_n280_N3nix10LocalStore13optimiseStoreEv
libnixstore.so:_ZTv0_n280_N3nix11RemoteStore13optimiseStoreEv
libnixstore.so:_ZTv0_n280_N3nix17LocalOverlayStore13optimiseStoreEv
libnixstore.so:_ZTv0_n288_N3nix10LocalStore11verifyStoreEbNS_10RepairFlagE
libnixstore.so:_ZTv0_n288_N3nix11RemoteStore11verifyStoreEbNS_10RepairFlagE
libnixstore.so:_ZTv0_n288_N3nix17LocalOverlayStore16queryGCReferrersERKNS_9StorePathERSt3setIS1_St4lessIS1_ESaIS1_EE
libnixstore.so:_ZTv0_n296_N3nix11RemoteStore13getFSAccessorEb
libnixstore.so:_ZTv0_n296_N3nix12LocalFSStore13getFSAccessorEb
libnixstore.so:_ZTv0_n296_N3nix16BinaryCacheStore13getFSAccessorEb
libnixstore.so:_ZTv0_n296_N3nix17LocalOverlayStore15deleteStorePathERKNSt7__cxx1112basic_stringIcSt11char_traitsIcESaIcEEERm
libnixstore.so:_ZTv0_n304_N3nix17LocalOverlayStore13optimiseStoreEv
libnixstore.so:_ZTv0_n312_N3nix10LocalStore13addSignaturesERKNS_9StorePathERKSt3setINSt7__cxx1112basic_stringIcSt11char_traitsIcESaIcEEESt4lessISA_ESaISA_EE
libnixstore.so:_ZTv0_n312_N3nix11RemoteStore13addSignaturesERKNS_9StorePathERKSt3setINSt7__cxx1112basic_stringIcSt11char_traitsIcESaIcEEESt4lessISA_ESaISA_EE
libnixstore.so:_ZTv0_n312_N3nix16BinaryCacheStore13addSignaturesERKNS_9StorePathERKSt3setINSt7__cxx1112basic_stringIcSt11char_traitsIcESaIcEEESt4lessISA_ESaISA_EE
libnixstore.so:_ZTv0_n320_N3nix14LegacySSHStore16computeFSClosureERKSt3setINS_9StorePathESt4lessIS2_ESaIS2_EERS6_bbb
libnixstore.so:_ZTv0_n320_N3nix17LocalOverlayStore19verifyAllValidPathsENS_10RepairFlagE
libnixstore.so:_ZTv0_n328_N3nix11RemoteStore12queryMissingERKSt6vectorINS_11DerivedPathESaIS2_EERSt3setINS_9StorePathESt4lessIS8_ESaIS8_EESD_SD_RmSE_
libnixstore.so:_ZTv0_n328_N3nix17LocalOverlayStore18registerValidPathsERKSt3mapINS_9StorePathENS_13ValidPathInfoESt4lessIS2_ESaISt4pairIKS2_S3_EEE
libnixstore.so:_ZTv0_n32_N3nix10LocalStoreD0Ev
libnixstore.so:_ZTv0_n32_N3nix10LocalStoreD1Ev
libnixstore.so:_ZTv0_n32_N3nix16BinaryCacheStore4initEv
libnixstore.so:_ZTv0_n32_N3nix21LocalBinaryCacheStore4initEv
libnixstore.so:_ZTv0_n336_N3nix11RemoteStore7connectEv
libnixstore.so:_ZTv0_n336_N3nix14LegacySSHStore7connectEv
libnixstore.so:_ZTv0_n344_N3nix10LocalStore11getProtocolEv
libnixstore.so:_ZTv0_n344_N3nix11RemoteStore11getProtocolEv
libnixstore.so:_ZTv0_n344_N3nix14LegacySSHStore11getProtocolEv
libnixstore.so:_ZTv0_n344_N3nix14UDSRemoteStore14openConnectionEv
libnixstore.so:_ZTv0_n344_N3nix8SSHStore14openConnectionEv
libnixstore.so:_ZTv0_n352_N3nix10LocalStore15isTrustedClientEv
libnixstore.so:_ZTv0_n352_N3nix11RemoteStore15isTrustedClientEv
libnixstore.so:_ZTv0_n360_N3nix17LocalOverlayStore17registerDrvOutputERKNS_11RealisationE
libnixstore.so:_ZTv0_n368_N3nix11RemoteStore10setOptionsEv
libnixstore.so:_ZTv0_n376_N3nix10LocalStore10getVersionB5cxx11Ev
libnixstore.so:_ZTv0_n376_N3nix11RemoteStore10getVersionB5cxx11Ev
libnixstore.so:_ZTv0_n376_N3nix17LocalOverlayStore24queryRealisationUncachedERKNS_9DrvOutputENS_8CallbackISt10shared_ptrIKNS_11RealisationEEEE
libnixstore.so:_ZTv0_n40_N3nix10LocalStore9findRootsB5cxx11Eb
libnixstore.so:_ZTv0_n40_N3nix10LocalStoreD0Ev
libnixstore.so:_ZTv0_n40_N3nix10LocalStoreD1Ev
libnixstore.so:_ZTv0_n40_N3nix11RemoteStore9findRootsB5cxx11Eb
libnixstore.so:_ZTv0_n40_N3nix12LocalFSStore16getBuildLogExactB5cxx11ERKNS_9StorePathE
libnixstore.so:_ZTv0_n40_N3nix16BinaryCacheStore16getBuildLogExactB5cxx11ERKNS_9StorePathE
libnixstore.so:_ZTv0_n48_N3nix10LocalStore11addBuildLogERKNS_9StorePathESt17basic_string_viewIcSt11char_traitsIcEE
libnixstore.so:_ZTv0_n48_N3nix10LocalStore14collectGarbageERKNS_9GCOptionsERNS_9GCResultsE
libnixstore.so:_ZTv0_n48_N3nix10LocalStore6getUriB5cxx11Ev
libnixstore.so:_ZTv0_n48_N3nix11RemoteStore11addBuildLogERKNS_9StorePathESt17basic_string_viewIcSt11char_traitsIcEE
libnixstore.so:_ZTv0_n48_N3nix11RemoteStore14collectGarbageERKNS_9GCOptionsERNS_9GCResultsE
libnixstore.so:_ZTv0_n48_N3nix14LegacySSHStore6getUriB5cxx11Ev
libnixstore.so:_ZTv0_n48_N3nix14UDSRemoteStore6getUriB5cxx11Ev
libnixstore.so:_ZTv0_n48_N3nix16BinaryCacheStore11addBuildLogERKNS_9StorePathESt17basic_string_viewIcSt11char_traitsIcEE
libnixstore.so:_ZTv0_n48_N3nix17LocalOverlayStore14collectGarbageERKNS_9GCOptionsERNS_9GCResultsE
libnixstore.so:_ZTv0_n48_N3nix23LocalOverlayStoreConfig3docB5cxx11Ev
libnixstore.so:_ZTv0_n56_N3nix10LocalStore19isValidPathUncachedERKNS_9StorePathE
libnixstore.so:_ZTv0_n56_N3nix10LocalStoreD0Ev
libnixstore.so:_ZTv0_n56_N3nix10LocalStoreD1Ev
libnixstore.so:_ZTv0_n56_N3nix11RemoteStore19isValidPathUncachedERKNS_9StorePathE
libnixstore.so:_ZTv0_n56_N3nix16BinaryCacheStore19isValidPathUncachedERKNS_9StorePathE
libnixstore.so:_ZTv0_n56_N3nix17LocalOverlayStore19isValidPathUncachedERKNS_9StorePathE
libnixstore.so:_ZTv0_n56_N3nix21MountedSSHStoreConfig3docB5cxx11Ev
libnixstore.so:_ZTv0_n64_N3nix10LocalStore15queryValidPathsERKSt3setINS_9StorePathESt4lessIS2_ESaIS2_EENS_14SubstituteFlagE
libnixstore.so:_ZTv0_n64_N3nix11RemoteStore15queryValidPathsERKSt3setINS_9StorePathESt4lessIS2_ESaIS2_EENS_14SubstituteFlagE
libnixstore.so:_ZTv0_n64_N3nix14LegacySSHStore15queryValidPathsERKSt3setINS_9StorePathESt4lessIS2_ESaIS2_EENS_14SubstituteFlagE
libnixstore.so:_ZTv0_n72_N3nix10LocalStore18queryAllValidPathsEv
libnixstore.so:_ZTv0_n72_N3nix10LocalStoreD0Ev
libnixstore.so:_ZTv0_n72_N3nix10LocalStoreD1Ev
libnixstore.so:_ZTv0_n72_N3nix11RemoteStore18queryAllValidPathsEv
libnixstore.so:_ZTv0_n80_N3nix10LocalStore19pathInfoIsUntrustedERKNS_13ValidPathInfoE
libnixstore.so:_ZTv0_n80_N3nix21LocalBinaryCacheStore10fileExistsERKNSt7__cxx1112basic_stringIcSt11char_traitsIcESaIcEEE
libnixstore.so:_ZTv0_n88_N3nix10LocalStore22realisationIsUntrustedERKNS_11RealisationE
libnixstore.so:_ZTv0_n88_N3nix14SSHStoreConfig3docB5cxx11Ev
libnixstore.so:_ZTv0_n88_N3nix16LocalStoreConfig3docB5cxx11Ev
libnixstore.so:_ZTv0_n88_N3nix20LegacySSHStoreConfig3docB5cxx11Ev
libnixstore.so:_ZTv0_n88_N3nix20UDSRemoteStoreConfig3docB5cxx11Ev
libnixstore.so:_ZTv0_n88_N3nix21MountedSSHStoreConfig3docB5cxx11Ev
libnixstore.so:_ZTv0_n88_N3nix23LocalOverlayStoreConfig3docB5cxx11Ev
libnixstore.so:_ZTv0_n88_N3nix26HttpBinaryCacheStoreConfig3docB5cxx11Ev
libnixstore.so:_ZTv0_n88_N3nix27LocalBinaryCacheStoreConfig3docB5cxx11Ev
libnixstore.so:_ZTv0_n96_N3nix10LocalStore21queryPathInfoUncachedERKNS_9StorePathENS_8CallbackISt10shared_ptrIKNS_13ValidPathInfoEEEE
libnixstore.so:_ZTv0_n96_N3nix11RemoteStore21queryPathInfoUncachedERKNS_9StorePathENS_8CallbackISt10shared_ptrIKNS_13ValidPathInfoEEEE
libnixstore.so:_ZTv0_n96_N3nix14LegacySSHStore21queryPathInfoUncachedERKNS_9StorePathENS_8CallbackISt10shared_ptrIKNS_13ValidPathInfoEEEE
libnixstore.so:_ZTv0_n96_N3nix16BinaryCacheStore21queryPathInfoUncachedERKNS_9StorePathENS_8CallbackISt10shared_ptrIKNS_13ValidPathInfoEEEE
libnixstore.so:_ZTv0_n96_N3nix17LocalOverlayStore21queryPathInfoUncachedERKNS_9StorePathENS_8CallbackISt10shared_ptrIKNS_13ValidPathInfoEEEE
libnixstorec.so:nix_libstore_init
libnixstorec.so:nix_libstore_init_no_load_config
libnixstorec.so:nix_store_copy_closure
libnixstorec.so:nix_store_free
libnixstorec.so:nix_store_get_storedir
libnixstorec.so:nix_store_get_uri
libnixstorec.so:nix_store_get_version
libnixstorec.so:nix_store_is_valid_path
libnixstorec.so:nix_store_open
libnixstorec.so:nix_store_parse_path
libnixstorec.so:nix_store_path_clone
libnixstorec.so:nix_store_path_free
libnixstorec.so:nix_store_path_name
libnixstorec.so:nix_store_real_path
libnixstorec.so:nix_store_realise
libnixutil.so:_ZN3nix10AutoDelete5resetERKNSt10filesystem7__cxx114pathEb
libnixutil.so:_ZN3nix10AutoDelete6cancelEv
libnixutil.so:_ZN3nix10AutoDeleteC1ERKNSt10filesystem7__cxx114pathEb
libnixutil.so:_ZN3nix10AutoDeleteC1Ev
libnixutil.so:_ZN3nix10AutoDeleteC2ERKNSt10filesystem7__cxx114pathEb
libnixutil.so:_ZN3nix10AutoDeleteC2Ev
libnixutil.so:_ZN3nix10AutoDeleteD1Ev
libnixutil.so:_ZN3nix10AutoDeleteD2Ev
libnixutil.so:_ZN3nix10MemorySink13createSymlinkERKNS_9CanonPathERKNSt7__cxx1112basic_stringIcSt11char_traitsIcESaIcEEE
libnixutil.so:_ZN3nix10MemorySink15createDirectoryERKNS_9CanonPathE
libnixutil.so:_ZN3nix10MemorySink17createRegularFileERKNS_9CanonPathESt8functionIFvRNS_21CreateRegularFileSinkEEE
libnixutil.so:_ZN3nix10StringSinkclESt17basic_string_viewIcSt11char_traitsIcEE
libnixutil.so:_ZN3nix10TarArchive5checkEiRKNSt7__cxx1112basic_stringIcSt11char_traitsIcESaIcEEE
libnixutil.so:_ZN3nix10TarArchive5closeEv
libnixutil.so:_ZN3nix10TarArchiveC1ERKNSt10filesystem7__cxx114pathE
libnixutil.so:_ZN3nix10TarArchiveC1ERNS_6SourceEbSt8optionalINSt7__cxx1112basic_stringIcSt11char_traitsIcESaIcEEEE
libnixutil.so:_ZN3nix10TarArchiveC2ERKNSt10filesystem7__cxx114pathE
libnixutil.so:_ZN3nix10TarArchiveC2ERNS_6SourceEbSt8optionalINSt7__cxx1112basic_stringIcSt11char_traitsIcESaIcEEEE
libnixutil.so:_ZN3nix10TarArchiveD1Ev
libnixutil.so:_ZN3nix10TarArchiveD2Ev
libnixutil.so:_ZN3nix10ThreadPool6doWorkEb
libnixutil.so:_ZN3nix10ThreadPool7enqueueERKSt8functionIFvvEE
libnixutil.so:_ZN3nix10ThreadPool7processEv
libnixutil.so:_ZN3nix10ThreadPool8shutdownEv
libnixutil.so:_ZN3nix10ThreadPoolC1Em
libnixutil.so:_ZN3nix10ThreadPoolC2Em
libnixutil.so:_ZN3nix10ThreadPoolD1Ev
libnixutil.so:_ZN3nix10ThreadPoolD2Ev
libnixutil.so:_ZN3nix10baseNameOfESt17basic_string_viewIcSt11char_traitsIcEE
libnixutil.so:_ZN3nix10createDirsERKNSt7__cxx1112basic_stringIcSt11char_traitsIcESaIcEEE
libnixutil.so:_ZN3nix10decompressERKNSt7__cxx1112basic_stringIcSt11char_traitsIcESaIcEEESt17basic_string_viewIcS3_E
libnixutil.so:_ZN3nix10deletePathERKNSt10filesystem7__cxx114pathE
libnixutil.so:_ZN3nix10deletePathERKNSt10filesystem7__cxx114pathERm
libnixutil.so:_ZN3nix10dumpStringESt17basic_string_viewIcSt11char_traitsIcEERNS_4SinkE
libnixutil.so:_ZN3nix10getBooleanERKN8nlohmann16json_abi_v3_11_210basic_jsonISt3mapSt6vectorNSt7__cxx1112basic_stringIcSt11char_traitsIcESaIcEEEblmdSaNS1_14adl_serializerES4_IhSaIhEEEE
libnixutil.so:_ZN3nix10getCgroupsERKNSt7__cxx1112basic_stringIcSt11char_traitsIcESaIcEEE
libnixutil.so:_ZN3nix10getDataDirB5cxx11Ev
libnixutil.so:_ZN3nix10getIntegerERKN8nlohmann16json_abi_v3_11_210basic_jsonISt3mapSt6vectorNSt7__cxx1112basic_stringIcSt11char_traitsIcESaIcEEEblmdSaNS1_14adl_serializerES4_IhSaIhEEEE
libnixutil.so:_ZN3nix10getSelfExeB5cxx11Ev
libnixutil.so:_ZN3nix10hashStringENS_13HashAlgorithmESt17basic_string_viewIcSt11char_traitsIcEERKNS_27ExperimentalFeatureSettingsE
libnixutil.so:_ZN3nix10isAbsoluteESt17basic_string_viewIcSt11char_traitsIcEE
libnixutil.so:_ZN3nix10isRootUserEv
libnixutil.so:_ZN3nix10maybeLstatERKNSt7__cxx1112basic_stringIcSt11char_traitsIcESaIcEEE
libnixutil.so:_ZN3nix10nix32CharsB5cxx11E
libnixutil.so:_ZN3nix10pathExistsERKNSt7__cxx1112basic_stringIcSt11char_traitsIcESaIcEEE
libnixutil.so:_ZN3nix10readStringB5cxx11ERNS_6SourceEm
libnixutil.so:_ZN3nix10readStringEPcmRNS_6SourceE
libnixutil.so:_ZN3nix10renderSizeB5cxx11Emb
libnixutil.so:_ZN3nix10replaceEnvERKSt3mapINSt7__cxx1112basic_stringIcSt11char_traitsIcESaIcEEES6_St4lessIS6_ESaISt4pairIKS6_S6_EEE
libnixutil.so:_ZN3nix10runProgramB5cxx11EONS_10RunOptionsE
libnixutil.so:_ZN3nix10runProgramENSt7__cxx1112basic_stringIcSt11char_traitsIcESaIcEEEbRKNS0_4listIS5_SaIS5_EEERKSt8optionalIS5_Eb
libnixutil.so:_ZN3nix10syncParentERKNSt7__cxx1112basic_stringIcSt11char_traitsIcESaIcEEE
libnixutil.so:_ZN3nix11AutoCloseFD5closeEv
libnixutil.so:_ZN3nix11AutoCloseFD7releaseEv
libnixutil.so:_ZN3nix11AutoCloseFDC1EOS0_
libnixutil.so:_ZN3nix11AutoCloseFDC1Ei
libnixutil.so:_ZN3nix11AutoCloseFDC1Ev
libnixutil.so:_ZN3nix11AutoCloseFDC2EOS0_
libnixutil.so:_ZN3nix11AutoCloseFDC2Ei
libnixutil.so:_ZN3nix11AutoCloseFDC2Ev
libnixutil.so:_ZN3nix11AutoCloseFDD1Ev
libnixutil.so:_ZN3nix11AutoCloseFDD2Ev
libnixutil.so:_ZN3nix11AutoCloseFDaSEOS0_
libnixutil.so:_ZN3nix11BaseSettingINSt7__cxx114listINS1_12basic_stringIcSt11char_traitsIcESaIcEEESaIS7_EEEE11appendOrSetES9_b
libnixutil.so:_ZN3nix11BaseSettingISt3mapINSt7__cxx1112basic_stringIcSt11char_traitsIcESaIcEEES7_St4lessIS7_ESaISt4pairIKS7_S7_EEEE11appendOrSetESE_b
libnixutil.so:_ZN3nix11BaseSettingISt3setINS_19ExperimentalFeatureESt4lessIS2_ESaIS2_EEE11appendOrSetES6_b
libnixutil.so:_ZN3nix11BaseSettingISt3setINSt7__cxx1112basic_stringIcSt11char_traitsIcESaIcEEESt4lessIS7_ESaIS7_EEE11appendOrSetESB_b
libnixutil.so:_ZN3nix11BaseSettingIbE12convertToArgERNS_4ArgsERKNSt7__cxx1112basic_stringIcSt11char_traitsIcESaIcEEE
libnixutil.so:_ZN3nix11ChainSource4readEPcm
libnixutil.so:_ZN3nix11Completions3addENSt7__cxx1112basic_stringIcSt11char_traitsIcESaIcEEES6_
libnixutil.so:_ZN3nix11Completions7setTypeENS_14AddCompletions4TypeE
libnixutil.so:_ZN3nix11LocalSigner12getPublicKeyEv
libnixutil.so:_ZN3nix11LocalSignerC1EONS_9SecretKeyE
libnixutil.so:_ZN3nix11LocalSignerC2EONS_9SecretKeyE
libnixutil.so:_ZN3nix11ParseQuotedclERSt10shared_ptrINS_6ParserEERNSt7__cxx114listINS5_12basic_stringIcSt11char_traitsIcESaIcEEESaISB_EEE
libnixutil.so:_ZN3nix11PathSettingC1EPNS_6ConfigERKNSt7__cxx1112basic_stringIcSt11char_traitsIcESaIcEEESA_SA_RKSt3setIS8_St4lessIS8_ESaIS8_EE
libnixutil.so:_ZN3nix11PathSettingC2EPNS_6ConfigERKNSt7__cxx1112basic_stringIcSt11char_traitsIcESaIcEEESA_SA_RKSt3setIS8_St4lessIS8_ESaIS8_EE
libnixutil.so:_ZN3nix11RefScanSinkclESt17basic_string_viewIcSt11char_traitsIcEE
libnixutil.so:_ZN3nix11RestoreSink13createSymlinkERKNS_9CanonPathERKNSt7__cxx1112basic_stringIcSt11char_traitsIcESaIcEEE
libnixutil.so:_ZN3nix11RestoreSink15createDirectoryERKNS_9CanonPathE
libnixutil.so:_ZN3nix11RestoreSink17createRegularFileERKNS_9CanonPathESt8functionIFvRNS_21CreateRegularFileSinkEEE
libnixutil.so:_ZN3nix11Suggestions11bestMatchesERKSt3setINSt7__cxx1112basic_stringIcSt11char_traitsIcESaIcEEESt4lessIS7_ESaIS7_EESt17basic_string_viewIcS5_E
libnixutil.so:_ZN3nix11SuggestionspLERKS0_
libnixutil.so:_ZN3nix11decodeQueryERKNSt7__cxx1112basic_stringIcSt11char_traitsIcESaIcEEE
libnixutil.so:_ZN3nix11encodeQueryERKSt3mapINSt7__cxx1112basic_stringIcSt11char_traitsIcESaIcEEES6_St4lessIS6_ESaISt4pairIKS6_S6_EEE
libnixutil.so:_ZN3nix11expandTildeB5cxx11ESt17basic_string_viewIcSt11char_traitsIcEE
libnixutil.so:_ZN3nix11getCacheDirB5cxx11Ev
libnixutil.so:_ZN3nix11getCgroupFSB5cxx11Ev
libnixutil.so:_ZN3nix11getNullableERKN8nlohmann16json_abi_v3_11_210basic_jsonISt3mapSt6vectorNSt7__cxx1112basic_stringIcSt11char_traitsIcESaIcEEEblmdSaNS1_14adl_serializerES4_IhSaIhEEEE
libnixutil.so:_ZN3nix11getStateDirB5cxx11Ev
libnixutil.so:_ZN3nix11getUserNameB5cxx11Ev
libnixutil.so:_ZN3nix11hashFormatsB5cxx11E
libnixutil.so:_ZN3nix11initLibUtilEv
libnixutil.so:_ZN3nix11readPaddingEmRNS_6SourceE
libnixutil.so:_ZN3nix11restorePathERKNSt10filesystem7__cxx114pathERNS_6SourceEb
libnixutil.so:_ZN3nix11restorePathERKNSt7__cxx1112basic_stringIcSt11char_traitsIcESaIcEEERNS_6SourceENS_23FileSerialisationMethodEb
libnixutil.so:_ZN3nix11runProgram2ERKNS_10RunOptionsE
libnixutil.so:_ZN3nix11shellEscapeB5cxx11ESt17basic_string_viewIcSt11char_traitsIcEE
libnixutil.so:_ZN3nix11writeStringESt17basic_string_viewIcSt11char_traitsIcEERNS_4SinkE
libnixutil.so:_ZN3nix12BufferedSink5flushEv
libnixutil.so:_ZN3nix12BufferedSinkclESt17basic_string_viewIcSt11char_traitsIcEE
libnixutil.so:_ZN3nix12GlobalConfig10toKeyValueB5cxx11Ev
libnixutil.so:_ZN3nix12GlobalConfig11getSettingsERSt3mapINSt7__cxx1112basic_stringIcSt11char_traitsIcESaIcEEENS_14AbstractConfig11SettingInfoESt4lessIS7_ESaISt4pairIKS7_S9_EEEb
libnixutil.so:_ZN3nix12GlobalConfig13convertToArgsERNS_4ArgsERKNSt7__cxx1112basic_stringIcSt11char_traitsIcESaIcEEE
libnixutil.so:_ZN3nix12GlobalConfig15resetOverriddenEv
libnixutil.so:_ZN3nix12GlobalConfig19configRegistrationsE
libnixutil.so:_ZN3nix12GlobalConfig3setERKNSt7__cxx1112basic_stringIcSt11char_traitsIcESaIcEEES8_
libnixutil.so:_ZN3nix12GlobalConfig6toJSONB5cxx11Ev
libnixutil.so:_ZN3nix12GlobalConfig8RegisterC1EPNS_6ConfigE
libnixutil.so:_ZN3nix12GlobalConfig8RegisterC2EPNS_6ConfigE
libnixutil.so:_ZN3nix12MultiCommand11processArgsERKNSt7__cxx114listINS1_12basic_stringIcSt11char_traitsIcESaIcEEESaIS7_EEEb
libnixutil.so:_ZN3nix12MultiCommand11processFlagERSt14_List_iteratorINSt7__cxx1112basic_stringIcSt11char_traitsIcESaIcEEEES8_
libnixutil.so:_ZN3nix12MultiCommand6toJSONB5cxx11Ev
libnixutil.so:_ZN3nix12MultiCommandC1ESt17basic_string_viewIcSt11char_traitsIcEERKSt3mapINSt7__cxx1112basic_stringIcS3_SaIcEEESt8functionIFNS_3refINS_7CommandEEEvEESt4lessIS9_ESaISt4pairIKS9_SF_EEE
libnixutil.so:_ZN3nix12MultiCommandC2ESt17basic_string_viewIcSt11char_traitsIcEERKSt3mapINSt7__cxx1112basic_stringIcS3_SaIcEEESt8functionIFNS_3refINS_7CommandEEEvEESt4lessIS9_ESaISt4pairIKS9_SF_EEE
libnixutil.so:_ZN3nix12StringSource4readEPcm
libnixutil.so:_ZN3nix12base64DecodeB5cxx11ESt17basic_string_viewIcSt11char_traitsIcEE
libnixutil.so:_ZN3nix12base64EncodeB5cxx11ESt17basic_string_viewIcSt11char_traitsIcEE
libnixutil.so:_ZN3nix12compressHashERKNS_4HashEj
libnixutil.so:_ZN3nix12getConfigDirB5cxx11Ev
libnixutil.so:_ZN3nix12getStringMapERKN8nlohmann16json_abi_v3_11_210basic_jsonISt3mapSt6vectorNSt7__cxx1112basic_stringIcSt11char_traitsIcESaIcEEEblmdSaNS1_14adl_serializerES4_IhSaIhEEEE
libnixutil.so:_ZN3nix12getStringSetERKN8nlohmann16json_abi_v3_11_210basic_jsonISt3mapSt6vectorNSt7__cxx1112basic_stringIcSt11char_traitsIcESaIcEEEblmdSaNS1_14adl_serializerES4_IhSaIhEEEE
libnixutil.so:_ZN3nix12globalConfigE
libnixutil.so:_ZN3nix12isDirOrInDirESt17basic_string_viewIcSt11char_traitsIcEES3_
libnixutil.so:_ZN3nix12setStackSizeEm
libnixutil.so:_ZN3nix12setWriteTimeERKNSt10filesystem7__cxx114pathERK4stat
libnixutil.so:_ZN3nix12setWriteTimeERKNSt10filesystem7__cxx114pathEllSt8optionalIbE
libnixutil.so:_ZN3nix12sinkToSourceESt8functionIFvRNS_4SinkEEES0_IFvvEE
libnixutil.so:_ZN3nix12sourceToSinkESt8functionIFvRNS_6SourceEEE
libnixutil.so:_ZN3nix12startProcessESt8functionIFvvEERKNS_14ProcessOptionsE
libnixutil.so:_ZN3nix12writePaddingEmRNS_4SinkE
libnixutil.so:_ZN3nix13RewritingSink5flushEv
libnixutil.so:_ZN3nix13RewritingSinkC1ERKNSt7__cxx1112basic_stringIcSt11char_traitsIcESaIcEEES8_RNS_4SinkE
libnixutil.so:_ZN3nix13RewritingSinkC1ERKSt3mapINSt7__cxx1112basic_stringIcSt11char_traitsIcESaIcEEES7_St4lessIS7_ESaISt4pairIKS7_S7_EEERNS_4SinkE
libnixutil.so:_ZN3nix13RewritingSinkC2ERKNSt7__cxx1112basic_stringIcSt11char_traitsIcESaIcEEES8_RNS_4SinkE
libnixutil.so:_ZN3nix13RewritingSinkC2ERKSt3mapINSt7__cxx1112basic_stringIcSt11char_traitsIcESaIcEEES7_St4lessIS7_ESaISt4pairIKS7_S7_EEERNS_4SinkE
libnixutil.so:_ZN3nix13RewritingSinkclESt17basic_string_viewIcSt11char_traitsIcEE
libnixutil.so:_ZN3nix13argvToStringsB5cxx11EiPPc
libnixutil.so:_ZN3nix13computeLevelsB5cxx11Ev
libnixutil.so:_ZN3nix13copyRecursiveERNS_14SourceAccessorERKNS_9CanonPathERNS_20FileSystemObjectSinkES4_
libnixutil.so:_ZN3nix13createSymlinkERKNSt7__cxx1112basic_stringIcSt11char_traitsIcESaIcEEES7_
libnixutil.so:_ZN3nix13createTempDirERKNSt7__cxx1112basic_stringIcSt11char_traitsIcESaIcEEES7_bbj
libnixutil.so:_ZN3nix13destroyCgroupERKNSt7__cxx1112basic_stringIcSt11char_traitsIcESaIcEEE
libnixutil.so:_ZN3nix13getConfigDirsB5cxx11Ev
libnixutil.so:_ZN3nix13getRootCgroupB5cxx11Ev
libnixutil.so:_ZN3nix13getStringListERKN8nlohmann16json_abi_v3_11_210basic_jsonISt3mapSt6vectorNSt7__cxx1112basic_stringIcSt11char_traitsIcESaIcEEEblmdSaNS1_14adl_serializerES4_IhSaIhEEEE
libnixutil.so:_ZN3nix13getWindowSizeEv
libnixutil.so:_ZN3nix13hiliteMatchesESt17basic_string_viewIcSt11char_traitsIcEESt6vectorINSt7__cxx1113match_resultsIN9__gnu_cxx17__normal_iteratorIPKcNS5_12basic_stringIcS2_SaIcEEEEESaINS5_9sub_matchISE_EEEEESaISI_EES3_S3_
libnixutil.so:_ZN3nix13openDirectoryERKNSt10filesystem7__cxx114pathE
libnixutil.so:_ZN3nix13parseFeaturesERKSt3setINSt7__cxx1112basic_stringIcSt11char_traitsIcESaIcEEESt4lessIS6_ESaIS6_EE
libnixutil.so:_ZN3nix13parseHashAlgoESt17basic_string_viewIcSt11char_traitsIcEE
libnixutil.so:_ZN3nix13percentDecodeB5cxx11ESt17basic_string_viewIcSt11char_traitsIcEE
libnixutil.so:_ZN3nix13percentEncodeB5cxx11ESt17basic_string_viewIcSt11char_traitsIcEES3_
libnixutil.so:_ZN3nix13printHashAlgoENS_13HashAlgorithmE
libnixutil.so:_ZN3nix13recursiveSyncERKNSt7__cxx1112basic_stringIcSt11char_traitsIcESaIcEEE
libnixutil.so:_ZN3nix13showErrorInfoERSoRKNS_9ErrorInfoEb
libnixutil.so:_ZN3nix13unpackTarfileERKNSt10filesystem7__cxx114pathES4_
libnixutil.so:_ZN3nix13unpackTarfileERNS_6SourceERKNSt10filesystem7__cxx114pathE
libnixutil.so:_ZN3nix13writeToStderrESt17basic_string_viewIcSt11char_traitsIcEE
libnixutil.so:_ZN3nix14AbstractConfig11applyConfigERKNSt7__cxx1112basic_stringIcSt11char_traitsIcESaIcEEES8_
libnixutil.so:_ZN3nix14AbstractConfig19warnUnknownSettingsEv
libnixutil.so:_ZN3nix14AbstractConfig22reapplyUnknownSettingsEv
libnixutil.so:_ZN3nix14AbstractConfigC2ESt3mapINSt7__cxx1112basic_stringIcSt11char_traitsIcESaIcEEES7_St4lessIS7_ESaISt4pairIKS7_S7_EEE
libnixutil.so:_ZN3nix14BufferedSource4readEPcm
libnixutil.so:_ZN3nix14BufferedSource7hasDataEv
libnixutil.so:_ZN3nix14ExecutablePath4loadEv
libnixutil.so:_ZN3nix14ExecutablePath5parseERKNSt7__cxx1112basic_stringIcSt11char_traitsIcESaIcEEE
libnixutil.so:_ZN3nix14HashModuloSink6finishEv
libnixutil.so:_ZN3nix14HashModuloSinkC1ENS_13HashAlgorithmERKNSt7__cxx1112basic_stringIcSt11char_traitsIcESaIcEEE
libnixutil.so:_ZN3nix14HashModuloSinkC2ENS_13HashAlgorithmERKNSt7__cxx1112basic_stringIcSt11char_traitsIcESaIcEEE
libnixutil.so:_ZN3nix14HashModuloSinkclESt17basic_string_viewIcSt11char_traitsIcEE
libnixutil.so:_ZN3nix14SourceAccessor10pathExistsERKNS_9CanonPathE
libnixutil.so:_ZN3nix14SourceAccessor14setPathDisplayENSt7__cxx1112basic_stringIcSt11char_traitsIcESaIcEEES6_
libnixutil.so:_ZN3nix14SourceAccessor15resolveSymlinksERKNS_9CanonPathENS_17SymlinkResolutionE
libnixutil.so:_ZN3nix14SourceAccessor4Stat10typeStringB5cxx11Ev
libnixutil.so:_ZN3nix14SourceAccessor4Stat20isNotNARSerialisableEv
libnixutil.so:_ZN3nix14SourceAccessor5lstatERKNS_9CanonPathE
libnixutil.so:_ZN3nix14SourceAccessor8dumpPathERKNS_9CanonPathERNS_4SinkERSt8functionIFbRKNSt7__cxx1112basic_stringIcSt11char_traitsIcESaIcEEEEE
libnixutil.so:_ZN3nix14SourceAccessor8hashPathERKNS_9CanonPathERSt8functionIFbRKNSt7__cxx1112basic_stringIcSt11char_traitsIcESaIcEEEEENS_13HashAlgorithmE
libnixutil.so:_ZN3nix14SourceAccessor8readFileB5cxx11ERKNS_9CanonPathE
libnixutil.so:_ZN3nix14SourceAccessor8readFileERKNS_9CanonPathERNS_4SinkESt8functionIFvmEE
libnixutil.so:_ZN3nix14SourceAccessor8showPathB5cxx11ERKNS_9CanonPathE
libnixutil.so:_ZN3nix14SourceAccessorC2Ev
libnixutil.so:_ZN3nix14badGitRefRegexB5cxx11E
libnixutil.so:_ZN3nix14createTempFileERKNSt7__cxx1112basic_stringIcSt11char_traitsIcESaIcEEE
libnixutil.so:_ZN3nix14defaultTempDirB5cxx11Ev
libnixutil.so:_ZN3nix14getCurActivityEv
libnixutil.so:_ZN3nix14getEnvNonEmptyERKNSt7__cxx1112basic_stringIcSt11char_traitsIcESaIcEEE
libnixutil.so:_ZN3nix14hashAlgorithmsB5cxx11E
libnixutil.so:_ZN3nix14loggerSettingsE
libnixutil.so:_ZN3nix14makeJSONLoggerEi
libnixutil.so:_ZN3nix14parseUrlSchemeESt17basic_string_viewIcSt11char_traitsIcEE
libnixutil.so:_ZN3nix14pathAccessibleERKNSt10filesystem7__cxx114pathE
libnixutil.so:_ZN3nix14printCodeLinesERSoRKNSt7__cxx1112basic_stringIcSt11char_traitsIcESaIcEEERKNS_3PosERKNS_11LinesOfCodeE
libnixutil.so:_ZN3nix14replaceStringsENSt7__cxx1112basic_stringIcSt11char_traitsIcESaIcEEESt17basic_string_viewIcS3_ES7_
libnixutil.so:_ZN3nix14replaceSymlinkERKNSt10filesystem7__cxx114pathES4_
libnixutil.so:_ZN3nix14rewriteStringsENSt7__cxx1112basic_stringIcSt11char_traitsIcESaIcEEERKSt3mapIS5_S5_St4lessIS5_ESaISt4pairIKS5_S5_EEE
libnixutil.so:_ZN3nix14savedStackSizeE
libnixutil.so:_ZN3nix14setCurActivityEm
libnixutil.so:_ZN3nix14statusToStringB5cxx11Ei
libnixutil.so:_ZN3nix14verifyDetachedESt17basic_string_viewIcSt11char_traitsIcEES3_RKSt3mapINSt7__cxx1112basic_stringIcS2_SaIcEEENS_9PublicKeyESt4lessIS8_ESaISt4pairIKS8_S9_EEE
libnixutil.so:_ZN3nix15AbstractSetting12convertToArgERNS_4ArgsERKNSt7__cxx1112basic_stringIcSt11char_traitsIcESaIcEEE
libnixutil.so:_ZN3nix15AbstractSetting6toJSONB5cxx11Ev
libnixutil.so:_ZN3nix15AbstractSettingC2ERKNSt7__cxx1112basic_stringIcSt11char_traitsIcESaIcEEES8_RKSt3setIS6_St4lessIS6_ESaIS6_EESt8optionalINS_19ExperimentalFeatureEE
libnixutil.so:_ZN3nix15AbstractSettingD0Ev
libnixutil.so:_ZN3nix15AbstractSettingD1Ev
libnixutil.so:_ZN3nix15AbstractSettingD2Ev
libnixutil.so:_ZN3nix15RegularFileSink17createRegularFileERKNS_9CanonPathESt8functionIFvRNS_21CreateRegularFileSinkEEE
libnixutil.so:_ZN3nix15nullableValueAtERKSt3mapINSt7__cxx1112basic_stringIcSt11char_traitsIcESaIcEEEN8nlohmann16json_abi_v3_11_210basic_jsonIS0_St6vectorS6_blmdSaNS8_14adl_serializerESA_IhSaIhEEEESt4lessIvESaISt4pairIKS6_SE_EEERSI_
libnixutil.so:_ZN3nix15optionalValueAtERKSt3mapINSt7__cxx1112basic_stringIcSt11char_traitsIcESaIcEEEN8nlohmann16json_abi_v3_11_210basic_jsonIS0_St6vectorS6_blmdSaNS8_14adl_serializerESA_IhSaIhEEEESt4lessIvESaISt4pairIKS6_SE_EEERSI_
libnixutil.so:_ZN3nix15parseHashFormatESt17basic_string_viewIcSt11char_traitsIcEE
libnixutil.so:_ZN3nix15printHash16or32B5cxx11ERKNS_4HashE
libnixutil.so:_ZN3nix15printHashFormatENS_10HashFormatE
libnixutil.so:_ZN3nix16completionMarkerB5cxx11E
libnixutil.so:_ZN3nix16getCurrentCgroupB5cxx11Ev
libnixutil.so:_ZN3nix16makeSimpleLoggerEb
libnixutil.so:_ZN3nix16parseHashAlgoOptESt17basic_string_viewIcSt11char_traitsIcEE
libnixutil.so:_ZN3nix16parseJSONMessageERKNSt7__cxx1112basic_stringIcSt11char_traitsIcESaIcEEESt17basic_string_viewIcS3_E
libnixutil.so:_ZN3nix16shellSplitStringB5cxx11ESt17basic_string_viewIcSt11char_traitsIcEE
libnixutil.so:_ZN3nix16stripIndentationB5cxx11ESt17basic_string_viewIcSt11char_traitsIcEE
libnixutil.so:_ZN3nix16updateWindowSizeEv
libnixutil.so:_ZN3nix17createNixStateDirB5cxx11Ev
libnixutil.so:_ZN3nix17defaultPathFilterB5cxx11E
libnixutil.so:_ZN3nix17filterANSIEscapesB5cxx11ESt17basic_string_viewIcSt11char_traitsIcEEbj
libnixutil.so:_ZN3nix17isValidSchemeNameESt17basic_string_viewIcSt11char_traitsIcEE
libnixutil.so:_ZN3nix17newHashAllowEmptyESt17basic_string_viewIcSt11char_traitsIcEESt8optionalINS_13HashAlgorithmEE
libnixutil.so:_ZN3nix17stringsToCharPtrsERKNSt7__cxx114listINS0_12basic_stringIcSt11char_traitsIcESaIcEEESaIS6_EEE
libnixutil.so:_ZN3nix18RestoreRegularFile12isExecutableEv
libnixutil.so:_ZN3nix18RestoreRegularFile19preallocateContentsEm
libnixutil.so:_ZN3nix18RestoreRegularFileclESt17basic_string_viewIcSt11char_traitsIcEE
libnixutil.so:_ZN3nix18parseHashFormatOptESt17basic_string_viewIcSt11char_traitsIcEE
libnixutil.so:_ZN3nix18saveMountNamespaceEv
libnixutil.so:_ZN3nix18setInterruptThrownEv
libnixutil.so:_ZN3nix19BorrowedCryptoValue5parseESt17basic_string_viewIcSt11char_traitsIcEE
libnixutil.so:_ZN3nix19OptionalPathSettingC1EPNS_6ConfigERKSt8optionalINSt7__cxx1112basic_stringIcSt11char_traitsIcESaIcEEEERKS9_SE_RKSt3setIS9_St4lessIS9_ESaIS9_EE
libnixutil.so:_ZN3nix19OptionalPathSettingC2EPNS_6ConfigERKSt8optionalINSt7__cxx1112basic_stringIcSt11char_traitsIcESaIcEEEERKS9_SE_RKSt3setIS9_St4lessIS9_ESaIS9_EE
libnixutil.so:_ZN3nix19OptionalPathSettingaSERKSt8optionalINSt7__cxx1112basic_stringIcSt11char_traitsIcESaIcEEEE
libnixutil.so:_ZN3nix19PosixSourceAccessor10maybeLstatERKNS_9CanonPathE
libnixutil.so:_ZN3nix19PosixSourceAccessor10pathExistsERKNS_9CanonPathE
libnixutil.so:_ZN3nix19PosixSourceAccessor11cachedLstatERKNS_9CanonPathE
libnixutil.so:_ZN3nix19PosixSourceAccessor11makeAbsPathB5cxx11ERKNS_9CanonPathE
libnixutil.so:_ZN3nix19PosixSourceAccessor12createAtRootERKNSt10filesystem7__cxx114pathE
libnixutil.so:_ZN3nix19PosixSourceAccessor13readDirectoryB5cxx11ERKNS_9CanonPathE
libnixutil.so:_ZN3nix19PosixSourceAccessor15getPhysicalPathB5cxx11ERKNS_9CanonPathE
libnixutil.so:_ZN3nix19PosixSourceAccessor16assertNoSymlinksENS_9CanonPathE
libnixutil.so:_ZN3nix19PosixSourceAccessor8readFileERKNS_9CanonPathERNS_4SinkESt8functionIFvmEE
libnixutil.so:_ZN3nix19PosixSourceAccessor8readLinkB5cxx11ERKNS_9CanonPathE
libnixutil.so:_ZN3nix19PosixSourceAccessorC1EONSt10filesystem7__cxx114pathE
libnixutil.so:_ZN3nix19PosixSourceAccessorC1Ev
libnixutil.so:_ZN3nix19PosixSourceAccessorC2EONSt10filesystem7__cxx114pathE
libnixutil.so:_ZN3nix19PosixSourceAccessorC2Ev
libnixutil.so:_ZN3nix19dumpPathAndGetMtimeERKNSt7__cxx1112basic_stringIcSt11char_traitsIcESaIcEEERNS_4SinkERSt8functionIFbS7_EE
libnixutil.so:_ZN3nix19getFSSourceAccessorEv
libnixutil.so:_ZN3nix19levenshteinDistanceESt17basic_string_viewIcSt11char_traitsIcEES3_
libnixutil.so:_ZN3nix19makeCompressionSinkERKNSt7__cxx1112basic_stringIcSt11char_traitsIcESaIcEEERNS_4SinkEbi
libnixutil.so:_ZN3nix19makeParentCanonicalERKNSt10filesystem7__cxx114pathE
libnixutil.so:_ZN3nix19os_string_to_stringB5cxx11ESt17basic_string_viewIcSt11char_traitsIcEE
libnixutil.so:_ZN3nix19parseShebangContentB5cxx11ESt17basic_string_viewIcSt11char_traitsIcEE
libnixutil.so:_ZN3nix19string_to_os_stringB5cxx11ESt17basic_string_viewIcSt11char_traitsIcEE
libnixutil.so:_ZN3nix19unpackTarfileToSinkERNS_10TarArchiveERNS_28ExtendedFileSystemObjectSinkE
libnixutil.so:_ZN3nix20MemorySourceAccessor10maybeLstatERKNS_9CanonPathE
libnixutil.so:_ZN3nix20MemorySourceAccessor10pathExistsERKNS_9CanonPathE
libnixutil.so:_ZN3nix20MemorySourceAccessor13readDirectoryB5cxx11ERKNS_9CanonPathE
libnixutil.so:_ZN3nix20MemorySourceAccessor4openERKNS_9CanonPathESt8optionalINS0_4FileEE
libnixutil.so:_ZN3nix20MemorySourceAccessor7addFileENS_9CanonPathEONSt7__cxx1112basic_stringIcSt11char_traitsIcESaIcEEE
libnixutil.so:_ZN3nix20MemorySourceAccessor8readFileB5cxx11ERKNS_9CanonPathE
libnixutil.so:_ZN3nix20MemorySourceAccessor8readLinkB5cxx11ERKNS_9CanonPathE
libnixutil.so:_ZN3nix20MuxablePipePollState4pollESt8optionalIjE
libnixutil.so:_ZN3nix20MuxablePipePollState7iterateERSt3setIiSt4lessIiESaIiEESt8functionIFviSt17basic_string_viewIcSt11char_traitsIcEEEES7_IFviEE
libnixutil.so:_ZN3nix20handleJSONLogMessageERKNSt7__cxx1112basic_stringIcSt11char_traitsIcESaIcEEERKNS_8ActivityERSt3mapImS8_St4lessImESaISt4pairIKmS8_EEESt17basic_string_viewIcS3_Eb
libnixutil.so:_ZN3nix20handleJSONLogMessageERN8nlohmann16json_abi_v3_11_210basic_jsonISt3mapSt6vectorNSt7__cxx1112basic_stringIcSt11char_traitsIcESaIcEEEblmdSaNS1_14adl_serializerES4_IhSaIhEEEERKNS_8ActivityERS3_ImSG_St4lessImESaISt4pairIKmSG_EEESt17basic_string_viewIcS8_Eb
libnixutil.so:_ZN3nix20makeFSSourceAccessorENSt10filesystem7__cxx114pathE
libnixutil.so:_ZN3nix20tryUnshareFilesystemEv
libnixutil.so:_ZN3nix21makeDecompressionSinkERKNSt7__cxx1112basic_stringIcSt11char_traitsIcESaIcEEERNS_4SinkE
libnixutil.so:_ZN3nix21restoreMountNamespaceEv
libnixutil.so:_ZN3nix21restoreProcessContextEb
libnixutil.so:_ZN3nix22createUnixDomainSocketERKNSt7__cxx1112basic_stringIcSt11char_traitsIcESaIcEEEj
libnixutil.so:_ZN3nix22createUnixDomainSocketEv
libnixutil.so:_ZN3nix23CreateMemoryRegularFile12isExecutableEv
libnixutil.so:_ZN3nix23CreateMemoryRegularFile19preallocateContentsEm
libnixutil.so:_ZN3nix23CreateMemoryRegularFileclESt17basic_string_viewIcSt11char_traitsIcEE
libnixutil.so:_ZN3nix23createInterruptCallbackESt8functionIFvvEE
libnixutil.so:_ZN3nix23isExecutableFileAmbientERKNSt10filesystem7__cxx114pathE
libnixutil.so:_ZN3nix23makeEmptySourceAccessorEv
libnixutil.so:_ZN3nix23makeUnionSourceAccessorEOSt6vectorINS_3refINS_14SourceAccessorEEESaIS3_EE
libnixutil.so:_ZN3nix23printSkippedTracesMaybeERSoRKSt17basic_string_viewIcSt11char_traitsIcEERmRSt6vectorINS_5TraceESaIS9_EESt3setIS9_St4lessIS9_ESA_E
libnixutil.so:_ZN3nix23showExperimentalFeatureENS_19ExperimentalFeatureE
libnixutil.so:_ZN3nix23throwExceptionSelfCheckEv
libnixutil.so:_ZN3nix23userNamespacesSupportedEv
libnixutil.so:_ZN3nix24NullFileSystemObjectSink17createRegularFileERKNS_9CanonPathESt8functionIFvRNS_21CreateRegularFileSinkEEE
libnixutil.so:_ZN3nix24parseExperimentalFeatureERKSt17basic_string_viewIcSt11char_traitsIcEE
libnixutil.so:_ZN3nix24parseFileIngestionMethodESt17basic_string_viewIcSt11char_traitsIcEE
libnixutil.so:_ZN3nix25makeMountedSourceAccessorESt3mapINS_9CanonPathENS_3refINS_14SourceAccessorEEESt4lessIS1_ESaISt4pairIKS1_S4_EEE
libnixutil.so:_ZN3nix25renderFileIngestionMethodENS_19FileIngestionMethodE
libnixutil.so:_ZN3nix26MissingExperimentalFeatureC1ENS_19ExperimentalFeatureE
libnixutil.so:_ZN3nix26MissingExperimentalFeatureC2ENS_19ExperimentalFeatureE
libnixutil.so:_ZN3nix26getArchiveFilterCodeByNameERKNSt7__cxx1112basic_stringIcSt11char_traitsIcESaIcEEE
libnixutil.so:_ZN3nix27experimentalFeatureSettingsE
libnixutil.so:_ZN3nix27ignoreExceptionInDestructorENS_9VerbosityE
libnixutil.so:_ZN3nix28documentExperimentalFeaturesB5cxx11Ev
libnixutil.so:_ZN3nix28parseFileSerialisationMethodESt17basic_string_viewIcSt11char_traitsIcEE
libnixutil.so:_ZN3nix29renderFileSerialisationMethodENS_23FileSerialisationMethodE
libnixutil.so:_ZN3nix30ignoreExceptionExceptInterruptENS_9VerbosityE
libnixutil.so:_ZN3nix30mountAndPidNamespacesSupportedEv
libnixutil.so:_ZN3nix3KeyC1ESt17basic_string_viewIcSt11char_traitsIcEEb
libnixutil.so:_ZN3nix3KeyC2ESt17basic_string_viewIcSt11char_traitsIcEEb
libnixutil.so:_ZN3nix3Pid13setKillSignalEi
libnixutil.so:_ZN3nix3Pid13setSeparatePGEb
libnixutil.so:_ZN3nix3Pid4killEv
libnixutil.so:_ZN3nix3Pid4waitEv
libnixutil.so:_ZN3nix3Pid7releaseEv
libnixutil.so:_ZN3nix3PidC1Ei
libnixutil.so:_ZN3nix3PidC1Ev
libnixutil.so:_ZN3nix3PidC2Ei
libnixutil.so:_ZN3nix3PidC2Ev
libnixutil.so:_ZN3nix3PidD1Ev
libnixutil.so:_ZN3nix3PidD2Ev
libnixutil.so:_ZN3nix3PidaSEi
libnixutil.so:_ZN3nix3PidcviEv
libnixutil.so:_ZN3nix3Pos13LinesIterator4bumpEb
libnixutil.so:_ZN3nix3PosC1EPKS0_
libnixutil.so:_ZN3nix3PosC2EPKS0_
libnixutil.so:_ZN3nix3getERKN8nlohmann16json_abi_v3_11_210basic_jsonISt3mapSt6vectorNSt7__cxx1112basic_stringIcSt11char_traitsIcESaIcEEEblmdSaNS1_14adl_serializerES4_IhSaIhEEEERKSA_
libnixutil.so:_ZN3nix3getERN8nlohmann16json_abi_v3_11_210basic_jsonISt3mapSt6vectorNSt7__cxx1112basic_stringIcSt11char_traitsIcESaIcEEEblmdSaNS1_14adl_serializerES4_IhSaIhEEEERKSA_
libnixutil.so:_ZN3nix3git10decodeModeEj
libnixutil.so:_ZN3nix3git11convertModeENS_14SourceAccessor4TypeE
libnixutil.so:_ZN3nix3git14dumpBlobPrefixEmRNS_4SinkERKNS_27ExperimentalFeatureSettingsE
libnixutil.so:_ZN3nix3git15parseObjectTypeERNS_6SourceERKNS_27ExperimentalFeatureSettingsE
libnixutil.so:_ZN3nix3git17parseLsRemoteLineESt17basic_string_viewIcSt11char_traitsIcEE
libnixutil.so:_ZN3nix3git4dumpERKNS_10SourcePathERNS_4SinkESt8functionIFNS0_9TreeEntryES3_EERS6_IFbRKNSt7__cxx1112basic_stringIcSt11char_traitsIcESaIcEEEEERKNS_27ExperimentalFeatureSettingsE
libnixutil.so:_ZN3nix3git5parseERNS_20FileSystemObjectSinkERKNS_9CanonPathERNS_6SourceENS0_8BlobModeESt8functionIFvS5_NS0_9TreeEntryEEERKNS_27ExperimentalFeatureSettingsE
libnixutil.so:_ZN3nix3git7restoreERNS_20FileSystemObjectSinkERNS_6SourceESt8functionIFNS_10SourcePathENS_4HashEEE
libnixutil.so:_ZN3nix3git8dumpHashENS_13HashAlgorithmERKNS_10SourcePathERSt8functionIFbRKNSt7__cxx1112basic_stringIcSt11char_traitsIcESaIcEEEEE
libnixutil.so:_ZN3nix3git8dumpTreeERKSt3mapINSt7__cxx1112basic_stringIcSt11char_traitsIcESaIcEEENS0_9TreeEntryESt4lessIS7_ESaISt4pairIKS7_S8_EEERNS_4SinkERKNS_27ExperimentalFeatureSettingsE
libnixutil.so:_ZN3nix3git9parseBlobERNS_20FileSystemObjectSinkERKNS_9CanonPathERNS_6SourceENS0_8BlobModeERKNS_27ExperimentalFeatureSettingsE
libnixutil.so:_ZN3nix3git9parseTreeERNS_20FileSystemObjectSinkERKNS_9CanonPathERNS_6SourceESt8functionIFvS5_NS0_9TreeEntryEEERKNS_27ExperimentalFeatureSettingsE
libnixutil.so:_ZN3nix4Args10removeFlagERKNSt7__cxx1112basic_stringIcSt11char_traitsIcESaIcEEE
libnixutil.so:_ZN3nix4Args11completeDirERNS_14AddCompletionsEmSt17basic_string_viewIcSt11char_traitsIcEE
libnixutil.so:_ZN3nix4Args11processArgsERKNSt7__cxx114listINS1_12basic_stringIcSt11char_traitsIcESaIcEEESaIS7_EEEb
libnixutil.so:_ZN3nix4Args11processFlagERSt14_List_iteratorINSt7__cxx1112basic_stringIcSt11char_traitsIcESaIcEEEES8_
libnixutil.so:_ZN3nix4Args12completePathERNS_14AddCompletionsEmSt17basic_string_viewIcSt11char_traitsIcEE
libnixutil.so:_ZN3nix4Args6toJSONB5cxx11Ev
libnixutil.so:_ZN3nix4Args7addFlagEONS0_4FlagE
libnixutil.so:_ZN3nix4Args7getRootEv
libnixutil.so:_ZN3nix4ExitD0Ev
libnixutil.so:_ZN3nix4ExitD1Ev
libnixutil.so:_ZN3nix4ExitD2Ev
libnixutil.so:_ZN3nix4Hash16parseAnyPrefixedESt17basic_string_viewIcSt11char_traitsIcEE
libnixutil.so:_ZN3nix4Hash21parseNonSRIUnprefixedESt17basic_string_viewIcSt11char_traitsIcEENS_13HashAlgorithmE
libnixutil.so:_ZN3nix4Hash5dummyE
libnixutil.so:_ZN3nix4Hash6randomENS_13HashAlgorithmE
libnixutil.so:_ZN3nix4Hash8parseAnyESt17basic_string_viewIcSt11char_traitsIcEESt8optionalINS_13HashAlgorithmEE
libnixutil.so:_ZN3nix4Hash8parseSRIESt17basic_string_viewIcSt11char_traitsIcEE
libnixutil.so:_ZN3nix4HashC1ENS_13HashAlgorithmERKNS_27ExperimentalFeatureSettingsE
libnixutil.so:_ZN3nix4HashC1ESt17basic_string_viewIcSt11char_traitsIcEENS_13HashAlgorithmEb
libnixutil.so:_ZN3nix4HashC2ENS_13HashAlgorithmERKNS_27ExperimentalFeatureSettingsE
libnixutil.so:_ZN3nix4HashC2ESt17basic_string_viewIcSt11char_traitsIcEENS_13HashAlgorithmEb
libnixutil.so:_ZN3nix4Pipe5closeEv
libnixutil.so:_ZN3nix4Pipe6createEv
libnixutil.so:_ZN3nix4bindEiRKNSt7__cxx1112basic_stringIcSt11char_traitsIcESaIcEEE
libnixutil.so:_ZN3nix4statERKNSt7__cxx1112basic_stringIcSt11char_traitsIcESaIcEEE
libnixutil.so:_ZN3nix4trimB5cxx11ESt17basic_string_viewIcSt11char_traitsIcEES3_
libnixutil.so:_ZN3nix4unix11closeOnExecEi
libnixutil.so:_ZN3nix4unix12_interruptedEv
libnixutil.so:_ZN3nix4unix13closeExtraFDsEv
libnixutil.so:_ZN3nix4unix14_isInterruptedE
libnixutil.so:_ZN3nix4unix14interruptCheckE
libnixutil.so:_ZN3nix4unix14restoreSignalsEv
libnixutil.so:_ZN3nix4unix14saveSignalMaskEv
libnixutil.so:_ZN3nix4unix16triggerInterruptEv
libnixutil.so:_ZN3nix4unix18setChildSignalMaskEP10__sigset_t
libnixutil.so:_ZN3nix4unix24startSignalHandlerThreadEv
libnixutil.so:_ZN3nix5chompB5cxx11ESt17basic_string_viewIcSt11char_traitsIcEE
libnixutil.so:_ZN3nix5dirOfB5cxx11ESt17basic_string_viewIcSt11char_traitsIcEE
libnixutil.so:_ZN3nix5isTTYEv
libnixutil.so:_ZN3nix5lstatERKNSt7__cxx1112basic_stringIcSt11char_traitsIcESaIcEEE
libnixutil.so:_ZN3nix5panicEPKciS1_
libnixutil.so:_ZN3nix5panicESt17basic_string_viewIcSt11char_traitsIcEE
libnixutil.so:_ZN3nix6Config10addSettingEPNS_15AbstractSettingE
libnixutil.so:_ZN3nix6Config10toKeyValueB5cxx11Ev
libnixutil.so:_ZN3nix6Config11getSettingsERSt3mapINSt7__cxx1112basic_stringIcSt11char_traitsIcESaIcEEENS_14AbstractConfig11SettingInfoESt4lessIS7_ESaISt4pairIKS7_S9_EEEb
libnixutil.so:_ZN3nix6Config13convertToArgsERNS_4ArgsERKNSt7__cxx1112basic_stringIcSt11char_traitsIcESaIcEEE
libnixutil.so:_ZN3nix6Config15resetOverriddenEv
libnixutil.so:_ZN3nix6Config3setERKNSt7__cxx1112basic_stringIcSt11char_traitsIcESaIcEEES8_
libnixutil.so:_ZN3nix6Config6toJSONB5cxx11Ev
libnixutil.so:_ZN3nix6ConfigC1ESt3mapINSt7__cxx1112basic_stringIcSt11char_traitsIcESaIcEEES7_St4lessIS7_ESaISt4pairIKS7_S7_EEE
libnixutil.so:_ZN3nix6ConfigC2ESt3mapINSt7__cxx1112basic_stringIcSt11char_traitsIcESaIcEEES7_St4lessIS7_ESaISt4pairIKS7_S7_EEE
libnixutil.so:_ZN3nix6FdSink15writeUnbufferedESt17basic_string_viewIcSt11char_traitsIcEE
libnixutil.so:_ZN3nix6FdSink4goodEv
libnixutil.so:_ZN3nix6FdSinkD0Ev
libnixutil.so:_ZN3nix6FdSinkD1Ev
libnixutil.so:_ZN3nix6FdSinkD2Ev
libnixutil.so:_ZN3nix6Logger13writeToStdoutESt17basic_string_viewIcSt11char_traitsIcEE
libnixutil.so:_ZN3nix6Logger4warnERKNSt7__cxx1112basic_stringIcSt11char_traitsIcESaIcEEE
libnixutil.so:_ZN3nix6Logger7suspendEv
libnixutil.so:_ZN3nix6Logger9suspendIfEb
libnixutil.so:_ZN3nix6Source5drainB5cxx11Ev
libnixutil.so:_ZN3nix6Source9drainIntoERNS_4SinkE
libnixutil.so:_ZN3nix6SourceclEPcm
libnixutil.so:_ZN3nix6SourceclESt17basic_string_viewIcSt11char_traitsIcEE
libnixutil.so:_ZN3nix6getEnvB5cxx11Ev
libnixutil.so:_ZN3nix6getEnvERKNSt7__cxx1112basic_stringIcSt11char_traitsIcESaIcEEE
libnixutil.so:_ZN3nix6loggerE
libnixutil.so:_ZN3nix6nextIdE
libnixutil.so:_ZN3nix6pathNGB5cxx11ESt17basic_string_viewIcSt11char_traitsIcEE
libnixutil.so:_ZN3nix6setEnvEPKcS1_
libnixutil.so:_ZN3nix6toViewERKNSt7__cxx1119basic_ostringstreamIcSt11char_traitsIcESaIcEEE
libnixutil.so:_ZN3nix7Command19experimentalFeatureEv
libnixutil.so:_ZN3nix7absPathB5cxx11ESt17basic_string_viewIcSt11char_traitsIcEESt8optionalIS3_Eb
libnixutil.so:_ZN3nix7absPathERKNSt10filesystem7__cxx114pathEb
libnixutil.so:_ZN3nix7connectEiRKNSt7__cxx1112basic_stringIcSt11char_traitsIcESaIcEEE
libnixutil.so:_ZN3nix7copyNARERNS_6SourceERNS_4SinkE
libnixutil.so:_ZN3nix7drainFDB5cxx11Eibm
libnixutil.so:_ZN3nix7drainFDEiRNS_4SinkEb
libnixutil.so:_ZN3nix7execvpeEPKcPKS1_S3_
libnixutil.so:_ZN3nix7getHomeB5cxx11Ev
libnixutil.so:_ZN3nix7getLineESt17basic_string_viewIcSt11char_traitsIcEE
libnixutil.so:_ZN3nix7isInDirESt17basic_string_viewIcSt11char_traitsIcEES3_
libnixutil.so:_ZN3nix7toLowerENSt7__cxx1112basic_stringIcSt11char_traitsIcESaIcEEE
libnixutil.so:_ZN3nix7to_jsonERN8nlohmann16json_abi_v3_11_210basic_jsonISt3mapSt6vectorNSt7__cxx1112basic_stringIcSt11char_traitsIcESaIcEEEblmdSaNS1_14adl_serializerES4_IhSaIhEEEERKNS_19ExperimentalFeatureE
libnixutil.so:_ZN3nix7to_jsonERN8nlohmann16json_abi_v3_11_210basic_jsonISt3mapSt6vectorNSt7__cxx1112basic_stringIcSt11char_traitsIcESaIcEEEblmdSaNS1_14adl_serializerES4_IhSaIhEEEESt10shared_ptrINS_3PosEE
libnixutil.so:_ZN3nix7valueAtERKSt3mapINSt7__cxx1112basic_stringIcSt11char_traitsIcESaIcEEEN8nlohmann16json_abi_v3_11_210basic_jsonIS0_St6vectorS6_blmdSaNS8_14adl_serializerESA_IhSaIhEEEESt4lessIvESaISt4pairIKS6_SE_EEERSI_
libnixutil.so:_ZN3nix8ActivityC1ERNS_6LoggerENS_9VerbosityENS_12ActivityTypeERKNSt7__cxx1112basic_stringIcSt11char_traitsIcESaIcEEERKSt6vectorINS1_5FieldESaISE_EEm
libnixutil.so:_ZN3nix8ActivityC2ERNS_6LoggerENS_9VerbosityENS_12ActivityTypeERKNSt7__cxx1112basic_stringIcSt11char_traitsIcESaIcEEERKSt6vectorINS1_5FieldESaISE_EEm
libnixutil.so:_ZN3nix8ActivityD1Ev
libnixutil.so:_ZN3nix8ActivityD2Ev
libnixutil.so:_ZN3nix8FdSource14readUnbufferedEPcm
libnixutil.so:_ZN3nix8FdSource4goodEv
libnixutil.so:_ZN3nix8FdSource7hasDataEv
libnixutil.so:_ZN3nix8HashSink11currentHashEv
libnixutil.so:_ZN3nix8HashSink15writeUnbufferedESt17basic_string_viewIcSt11char_traitsIcEE
libnixutil.so:_ZN3nix8HashSink6finishEv
libnixutil.so:_ZN3nix8HashSinkC1ENS_13HashAlgorithmE
libnixutil.so:_ZN3nix8HashSinkC2ENS_13HashAlgorithmE
libnixutil.so:_ZN3nix8HashSinkD0Ev
libnixutil.so:_ZN3nix8HashSinkD1Ev
libnixutil.so:_ZN3nix8HashSinkD2Ev
libnixutil.so:_ZN3nix8RootArgs12parseCmdlineERKNSt7__cxx114listINS1_12basic_stringIcSt11char_traitsIcESaIcEEESaIS7_EEEb
libnixutil.so:_ZN3nix8RootArgs15needsCompletionB5cxx11ESt17basic_string_viewIcSt11char_traitsIcEE
libnixutil.so:_ZN3nix8clearEnvEv
libnixutil.so:_ZN3nix8compressERKNSt7__cxx1112basic_stringIcSt11char_traitsIcESaIcEEESt17basic_string_viewIcS3_Ebi
libnixutil.so:_ZN3nix8copyFileERKNSt10filesystem7__cxx114pathES4_b
libnixutil.so:_ZN3nix8dumpPathERKNS_10SourcePathERNS_4SinkENS_23FileSerialisationMethodERSt8functionIFbRKNSt7__cxx1112basic_stringIcSt11char_traitsIcESaIcEEEEE
libnixutil.so:_ZN3nix8dumpPathERKNSt7__cxx1112basic_stringIcSt11char_traitsIcESaIcEEERNS_4SinkERSt8functionIFbS7_EE
libnixutil.so:_ZN3nix8getArrayERKN8nlohmann16json_abi_v3_11_210basic_jsonISt3mapSt6vectorNSt7__cxx1112basic_stringIcSt11char_traitsIcESaIcEEEblmdSaNS1_14adl_serializerES4_IhSaIhEEEE
libnixutil.so:_ZN3nix8getEnvOsERKNSt7__cxx1112basic_stringIcSt11char_traitsIcESaIcEEE
libnixutil.so:_ZN3nix8hashFileENS_13HashAlgorithmERKNSt7__cxx1112basic_stringIcSt11char_traitsIcESaIcEEE
libnixutil.so:_ZN3nix8hashPathERKNS_10SourcePathENS_19FileIngestionMethodENS_13HashAlgorithmERSt8functionIFbRKNSt7__cxx1112basic_stringIcSt11char_traitsIcESaIcEEEEE
libnixutil.so:_ZN3nix8hashPathERKNS_10SourcePathENS_23FileSerialisationMethodENS_13HashAlgorithmERSt8functionIFbRKNSt7__cxx1112basic_stringIcSt11char_traitsIcESaIcEEEEE
libnixutil.so:_ZN3nix8killUserEj
libnixutil.so:_ZN3nix8moveFileERKNSt7__cxx1112basic_stringIcSt11char_traitsIcESaIcEEES7_
libnixutil.so:_ZN3nix8parseURLERKNSt7__cxx1112basic_stringIcSt11char_traitsIcESaIcEEE
libnixutil.so:_ZN3nix8readFileB5cxx11Ei
libnixutil.so:_ZN3nix8readFileERKNSt10filesystem7__cxx114pathE
libnixutil.so:_ZN3nix8readFileERKNSt7__cxx1112basic_stringIcSt11char_traitsIcESaIcEEE
libnixutil.so:_ZN3nix8readFileERKNSt7__cxx1112basic_stringIcSt11char_traitsIcESaIcEEERNS_4SinkE
libnixutil.so:_ZN3nix8readFullEiPcm
libnixutil.so:_ZN3nix8readLineB5cxx11Eib
libnixutil.so:_ZN3nix8readLinkERKNSt7__cxx1112basic_stringIcSt11char_traitsIcESaIcEEE
libnixutil.so:_ZN3nix8refRegexB5cxx11E
libnixutil.so:_ZN3nix8revRegexB5cxx11E
libnixutil.so:_ZN3nix8setEnvOsERKNSt7__cxx1112basic_stringIcSt11char_traitsIcESaIcEEES7_
libnixutil.so:_ZN3nix8statusOkEi
libnixutil.so:_ZN3nix9BaseError8addTraceEOSt10shared_ptrINS_3PosEENS_7HintFmtENS_10TracePrintE
libnixutil.so:_ZN3nix9CanonPath3popEv
libnixutil.so:_ZN3nix9CanonPath4pushESt17basic_string_viewIcSt11char_traitsIcEE
libnixutil.so:_ZN3nix9CanonPath4rootE
libnixutil.so:_ZN3nix9CanonPath6extendERKS0_
libnixutil.so:_ZN3nix9CanonPathC1ERKSt6vectorINSt7__cxx1112basic_stringIcSt11char_traitsIcESaIcEEESaIS7_EE
libnixutil.so:_ZN3nix9CanonPathC1ESt17basic_string_viewIcSt11char_traitsIcEE
libnixutil.so:_ZN3nix9CanonPathC1ESt17basic_string_viewIcSt11char_traitsIcEERKS0_
libnixutil.so:_ZN3nix9CanonPathC2ERKSt6vectorINSt7__cxx1112basic_stringIcSt11char_traitsIcESaIcEEESaIS7_EE
libnixutil.so:_ZN3nix9CanonPathC2ESt17basic_string_viewIcSt11char_traitsIcEE
libnixutil.so:_ZN3nix9CanonPathC2ESt17basic_string_viewIcSt11char_traitsIcEERKS0_
libnixutil.so:_ZN3nix9ErrorInfo11programNameB5cxx11E
libnixutil.so:_ZN3nix9ParsedURL12canonicaliseEv
libnixutil.so:_ZN3nix9PublicKeyC1ESt17basic_string_viewIcSt11char_traitsIcEE
libnixutil.so:_ZN3nix9PublicKeyC2ESt17basic_string_viewIcSt11char_traitsIcEE
libnixutil.so:_ZN3nix9SecretKey8generateESt17basic_string_viewIcSt11char_traitsIcEE
libnixutil.so:_ZN3nix9SecretKeyC1ESt17basic_string_viewIcSt11char_traitsIcEE
libnixutil.so:_ZN3nix9SecretKeyC2ESt17basic_string_viewIcSt11char_traitsIcEE
libnixutil.so:_ZN3nix9XMLWriter10writeAttrsERKSt3mapINSt7__cxx1112basic_stringIcSt11char_traitsIcESaIcEEES7_St4lessIS7_ESaISt4pairIKS7_S7_EEE
libnixutil.so:_ZN3nix9XMLWriter11openElementESt17basic_string_viewIcSt11char_traitsIcEERKSt3mapINSt7__cxx1112basic_stringIcS3_SaIcEEES9_St4lessIS9_ESaISt4pairIKS9_S9_EEE
libnixutil.so:_ZN3nix9XMLWriter12closeElementEv
libnixutil.so:_ZN3nix9XMLWriter17writeEmptyElementESt17basic_string_viewIcSt11char_traitsIcEERKSt3mapINSt7__cxx1112basic_stringIcS3_SaIcEEES9_St4lessIS9_ESaISt4pairIKS9_S9_EEE
libnixutil.so:_ZN3nix9XMLWriter5closeEv
libnixutil.so:_ZN3nix9XMLWriter7indent_Em
libnixutil.so:_ZN3nix9XMLWriterC1EbRSo
libnixutil.so:_ZN3nix9XMLWriterC2EbRSo
libnixutil.so:_ZN3nix9XMLWriterD1Ev
libnixutil.so:_ZN3nix9XMLWriterD2Ev
libnixutil.so:_ZN3nix9canonPathB5cxx11ESt17basic_string_viewIcSt11char_traitsIcEEb
libnixutil.so:_ZN3nix9createDirERKNSt7__cxx1112basic_stringIcSt11char_traitsIcESaIcEEEj
libnixutil.so:_ZN3nix9fixGitURLERKNSt7__cxx1112basic_stringIcSt11char_traitsIcESaIcEEE
libnixutil.so:_ZN3nix9from_jsonERKN8nlohmann16json_abi_v3_11_210basic_jsonISt3mapSt6vectorNSt7__cxx1112basic_stringIcSt11char_traitsIcESaIcEEEblmdSaNS1_14adl_serializerES4_IhSaIhEEEERNS_19ExperimentalFeatureE
libnixutil.so:_ZN3nix9getHomeOfB5cxx11Ej
libnixutil.so:_ZN3nix9getMaxCPUEv
libnixutil.so:_ZN3nix9getObjectERKN8nlohmann16json_abi_v3_11_210basic_jsonISt3mapSt6vectorNSt7__cxx1112basic_stringIcSt11char_traitsIcESaIcEEEblmdSaNS1_14adl_serializerES4_IhSaIhEEEE
libnixutil.so:_ZN3nix9getStringERKN8nlohmann16json_abi_v3_11_210basic_jsonISt3mapSt6vectorNSt7__cxx1112basic_stringIcSt11char_traitsIcESaIcEEEblmdSaNS1_14adl_serializerES4_IhSaIhEEEE
libnixutil.so:_ZN3nix9hasPrefixESt17basic_string_viewIcSt11char_traitsIcEES3_
libnixutil.so:_ZN3nix9hasSuffixESt17basic_string_viewIcSt11char_traitsIcEES3_
libnixutil.so:_ZN3nix9maybePathB5cxx11ESt17basic_string_viewIcSt11char_traitsIcEE
libnixutil.so:_ZN3nix9parseDumpERNS_20FileSystemObjectSinkERNS_6SourceE
libnixutil.so:_ZN3nix9pluralizeERSojSt17basic_string_viewIcSt11char_traitsIcEES4_
libnixutil.so:_ZN3nix9readErrorERNS_6SourceE
libnixutil.so:_ZN3nix9showBytesB5cxx11Em
libnixutil.so:_ZN3nix9verbosityE
libnixutil.so:_ZN3nix9writeFileERKNSt7__cxx1112basic_stringIcSt11char_traitsIcESaIcEEERNS_6SourceEjb
libnixutil.so:_ZN3nix9writeFileERKNSt7__cxx1112basic_stringIcSt11char_traitsIcESaIcEEESt17basic_string_viewIcS3_Ejb
libnixutil.so:_ZN3nix9writeFullEiSt17basic_string_viewIcSt11char_traitsIcEEb
libnixutil.so:_ZN3nix9writeLineEiNSt7__cxx1112basic_stringIcSt11char_traitsIcESaIcEEE
libnixutil.so:_ZN3nixlsERNS_4SinkERKNS_5ErrorE
libnixutil.so:_ZN3nixlsERNS_4SinkERKNSt7__cxx114listINS2_12basic_stringIcSt11char_traitsIcESaIcEEESaIS8_EEE
libnixutil.so:_ZN3nixlsERNS_4SinkERKSt3setINSt7__cxx1112basic_stringIcSt11char_traitsIcESaIcEEESt4lessIS8_ESaIS8_EE
libnixutil.so:_ZN3nixlsERNS_4SinkESt17basic_string_viewIcSt11char_traitsIcEE
libnixutil.so:_ZN3nixlsERSoRKNS_10SourcePathE
libnixutil.so:_ZN3nixlsERSoRKNS_10SuggestionE
libnixutil.so:_ZN3nixlsERSoRKNS_11SuggestionsE
libnixutil.so:_ZN3nixlsERSoRKNS_19ExperimentalFeatureE
libnixutil.so:_ZN3nixlsERSoRKNS_3PosE
libnixutil.so:_ZN3nixlsERSoRKNS_7HintFmtE
libnixutil.so:_ZN3nixlsERSoRKNS_9CanonPathE
libnixutil.so:_ZN3nixlsERSoRKNS_9ParsedURLE
libnixutil.so:_ZN3nixrsERNS_6SourceERNSt7__cxx1112basic_stringIcSt11char_traitsIcESaIcEEE
libnixutil.so:_ZNK3nix10CompletionssERKS0_
libnixutil.so:_ZNK3nix10SourcePath10maybeLstatEv
libnixutil.so:_ZNK3nix10SourcePath10pathExistsEv
libnixutil.so:_ZNK3nix10SourcePath13readDirectoryB5cxx11Ev
libnixutil.so:_ZNK3nix10SourcePath15getPhysicalPathB5cxx11Ev
libnixutil.so:_ZNK3nix10SourcePath5lstatEv
libnixutil.so:_ZNK3nix10SourcePath6parentEv
libnixutil.so:_ZNK3nix10SourcePath8baseNameEv
libnixutil.so:_ZNK3nix10SourcePath8dumpPathERNS_4SinkERSt8functionIFbRKNSt7__cxx1112basic_stringIcSt11char_traitsIcESaIcEEEEE
libnixutil.so:_ZNK3nix10SourcePath8readFileB5cxx11Ev
libnixutil.so:_ZNK3nix10SourcePath8readLinkB5cxx11Ev
libnixutil.so:_ZNK3nix10SourcePath9to_stringB5cxx11Ev
libnixutil.so:_ZNK3nix10SourcePathdvERKNS_9CanonPathE
libnixutil.so:_ZNK3nix10SourcePathdvESt17basic_string_viewIcSt11char_traitsIcEE
libnixutil.so:_ZNK3nix10SourcePatheqERKS0_
libnixutil.so:_ZNK3nix10SourcePathssERKS0_
libnixutil.so:_ZNK3nix10Suggestion9to_stringB5cxx11Ev
libnixutil.so:_ZNK3nix11AutoCloseFD10startFsyncEv
libnixutil.so:_ZNK3nix11AutoCloseFD3getEv
libnixutil.so:_ZNK3nix11AutoCloseFD5fsyncEv
libnixutil.so:_ZNK3nix11AutoCloseFDcvbEv
libnixutil.so:_ZNK3nix11BaseSettingINSt7__cxx1112basic_stringIcSt11char_traitsIcESaIcEEEE5parseERKS6_
libnixutil.so:_ZNK3nix11BaseSettingINSt7__cxx1112basic_stringIcSt11char_traitsIcESaIcEEEE9to_stringEv
libnixutil.so:_ZNK3nix11BaseSettingINSt7__cxx114listINS1_12basic_stringIcSt11char_traitsIcESaIcEEESaIS7_EEEE5parseERKS7_
libnixutil.so:_ZNK3nix11BaseSettingINSt7__cxx114listINS1_12basic_stringIcSt11char_traitsIcESaIcEEESaIS7_EEEE9to_stringEv
libnixutil.so:_ZNK3nix11BaseSettingISt3mapINSt7__cxx1112basic_stringIcSt11char_traitsIcESaIcEEES7_St4lessIS7_ESaISt4pairIKS7_S7_EEEE5parseERSB_
libnixutil.so:_ZNK3nix11BaseSettingISt3mapINSt7__cxx1112basic_stringIcSt11char_traitsIcESaIcEEES7_St4lessIS7_ESaISt4pairIKS7_S7_EEEE9to_stringEv
libnixutil.so:_ZNK3nix11BaseSettingISt3setINS_19ExperimentalFeatureESt4lessIS2_ESaIS2_EEE5parseERKNSt7__cxx1112basic_stringIcSt11char_traitsIcESaIcEEE
libnixutil.so:_ZNK3nix11BaseSettingISt3setINS_19ExperimentalFeatureESt4lessIS2_ESaIS2_EEE9to_stringB5cxx11Ev
libnixutil.so:_ZNK3nix11BaseSettingISt3setINSt7__cxx1112basic_stringIcSt11char_traitsIcESaIcEEESt4lessIS7_ESaIS7_EEE5parseERKS7_
libnixutil.so:_ZNK3nix11BaseSettingISt3setINSt7__cxx1112basic_stringIcSt11char_traitsIcESaIcEEESt4lessIS7_ESaIS7_EEE9to_stringEv
libnixutil.so:_ZNK3nix11BaseSettingISt8optionalINSt7__cxx1112basic_stringIcSt11char_traitsIcESaIcEEEEE5parseERKS7_
libnixutil.so:_ZNK3nix11BaseSettingISt8optionalINSt7__cxx1112basic_stringIcSt11char_traitsIcESaIcEEEEE9to_stringEv
libnixutil.so:_ZNK3nix11BaseSettingIbE5parseERKNSt7__cxx1112basic_stringIcSt11char_traitsIcESaIcEEE
libnixutil.so:_ZNK3nix11BaseSettingIbE9to_stringB5cxx11Ev
libnixutil.so:_ZNK3nix11LocalSigner12signDetachedB5cxx11ESt17basic_string_viewIcSt11char_traitsIcEE
libnixutil.so:_ZNK3nix11PathSetting5parseERKNSt7__cxx1112basic_stringIcSt11char_traitsIcESaIcEEE
libnixutil.so:_ZNK3nix11Suggestions4trimEii
libnixutil.so:_ZNK3nix11Suggestions9to_stringB5cxx11Ev
libnixutil.so:_ZNK3nix14ExecutablePath6renderB5cxx11Ev
libnixutil.so:_ZNK3nix14ExecutablePath8findNameERKNSt7__cxx1112basic_stringIcSt11char_traitsIcESaIcEEESt8functionIFbRKNSt10filesystem7__cxx114pathEEE
libnixutil.so:_ZNK3nix14ExecutablePath8findPathERKNSt10filesystem7__cxx114pathESt8functionIFbS5_EE
libnixutil.so:_ZNK3nix15AbstractSetting12isOverriddenEv
libnixutil.so:_ZNK3nix15AbstractSetting12toJSONObjectB5cxx11Ev
libnixutil.so:_ZNK3nix19OptionalPathSetting5parseERKNSt7__cxx1112basic_stringIcSt11char_traitsIcESaIcEEE
libnixutil.so:_ZNK3nix20MemorySourceAccessor4File5lstatEv
libnixutil.so:_ZNK3nix27ExperimentalFeatureSettings7requireERKNS_19ExperimentalFeatureE
libnixutil.so:_ZNK3nix27ExperimentalFeatureSettings7requireERKSt8optionalINS_19ExperimentalFeatureEE
libnixutil.so:_ZNK3nix27ExperimentalFeatureSettings9isEnabledERKNS_19ExperimentalFeatureE
libnixutil.so:_ZNK3nix27ExperimentalFeatureSettings9isEnabledERKSt8optionalINS_19ExperimentalFeatureEE
libnixutil.so:_ZNK3nix3Key9to_stringB5cxx11Ev
libnixutil.so:_ZNK3nix3Pos12getCodeLinesEv
libnixutil.so:_ZNK3nix3Pos13getSourcePathEv
libnixutil.so:_ZNK3nix3Pos14getSnippetUpToB5cxx11ERKS0_
libnixutil.so:_ZNK3nix3Pos5printERSob
libnixutil.so:_ZNK3nix3Pos9getSourceB5cxx11Ev
libnixutil.so:_ZNK3nix3PoscvSt10shared_ptrIS0_EEv
libnixutil.so:_ZNK3nix4Args17getCommandBaseDirB5cxx11Ev
libnixutil.so:_ZNK3nix4Hash9to_stringB5cxx11ENS_10HashFormatEb
libnixutil.so:_ZNK3nix4HasheqERKS0_
libnixutil.so:_ZNK3nix4HashssERKS0_
libnixutil.so:_ZNK3nix8PosTableixENS_6PosIdxE
libnixutil.so:_ZNK3nix8RootArgs17getCommandBaseDirB5cxx11Ev
libnixutil.so:_ZNK3nix9BaseError8calcWhatB5cxx11Ev
libnixutil.so:_ZNK3nix9CanonPath12makeRelativeB5cxx11ERKS0_
libnixutil.so:_ZNK3nix9CanonPath12removePrefixERKS0_
libnixutil.so:_ZNK3nix9CanonPath6parentEv
libnixutil.so:_ZNK3nix9CanonPath8isWithinERKS0_
libnixutil.so:_ZNK3nix9CanonPath9isAllowedERKSt3setIS0_St4lessIS0_ESaIS0_EE
libnixutil.so:_ZNK3nix9CanonPathdvERKS0_
libnixutil.so:_ZNK3nix9CanonPathdvESt17basic_string_viewIcSt11char_traitsIcEE
libnixutil.so:_ZNK3nix9ParsedURL9to_stringB5cxx11Ev
libnixutil.so:_ZNK3nix9ParsedURLeqERKS0_
libnixutil.so:_ZNK3nix9PublicKey14verifyDetachedESt17basic_string_viewIcSt11char_traitsIcEES4_
libnixutil.so:_ZNK3nix9PublicKey18verifyDetachedAnonESt17basic_string_viewIcSt11char_traitsIcEES4_
libnixutil.so:_ZNK3nix9SecretKey11toPublicKeyEv
libnixutil.so:_ZNK3nix9SecretKey12signDetachedB5cxx11ESt17basic_string_viewIcSt11char_traitsIcEE
libnixutil.so:_ZTCN3nix14HashModuloSinkE0_NS_16AbstractHashSinkE
libnixutil.so:_ZTCN3nix6FdSinkE0_NS_12BufferedSinkE
libnixutil.so:_ZTCN3nix8HashSinkE0_NS_12BufferedSinkE
libnixutil.so:_ZTCN3nix8HashSinkE32_NS_16AbstractHashSinkE
libnixutil.so:_ZTHN3nix4unix14interruptCheckE
libnixutil.so:_ZTIN3nix10MemorySinkE
libnixutil.so:_ZTIN3nix10StringSinkE
libnixutil.so:_ZTIN3nix11ChainSourceE
libnixutil.so:_ZTIN3nix11CompletionsE
libnixutil.so:_ZTIN3nix11LocalSignerE
libnixutil.so:_ZTIN3nix11ParseQuotedE
libnixutil.so:_ZTIN3nix11PathSettingE
libnixutil.so:_ZTIN3nix11RefScanSinkE
libnixutil.so:_ZTIN3nix11RestoreSinkE
libnixutil.so:_ZTIN3nix12BufferedSinkE
libnixutil.so:_ZTIN3nix12GlobalConfigE
libnixutil.so:_ZTIN3nix12MultiCommandE
libnixutil.so:_ZTIN3nix12StringSourceE
libnixutil.so:_ZTIN3nix13RewritingSinkE
libnixutil.so:_ZTIN3nix14BufferedSourceE
libnixutil.so:_ZTIN3nix14HashModuloSinkE
libnixutil.so:_ZTIN3nix14SourceAccessorE
libnixutil.so:_ZTIN3nix15AbstractSettingE
libnixutil.so:_ZTIN3nix15RegularFileSinkE
libnixutil.so:_ZTIN3nix18RestoreRegularFileE
libnixutil.so:_ZTIN3nix19OptionalPathSettingE
libnixutil.so:_ZTIN3nix19PosixSourceAccessorE
libnixutil.so:_ZTIN3nix20MemorySourceAccessorE
libnixutil.so:_ZTIN3nix23CreateMemoryRegularFileE
libnixutil.so:_ZTIN3nix24NullFileSystemObjectSinkE
libnixutil.so:_ZTIN3nix4ArgsE
libnixutil.so:_ZTIN3nix4ExitE
libnixutil.so:_ZTIN3nix6ConfigE
libnixutil.so:_ZTIN3nix6FdSinkE
libnixutil.so:_ZTIN3nix6LoggerE
libnixutil.so:_ZTIN3nix7CommandE
libnixutil.so:_ZTIN3nix8FdSourceE
libnixutil.so:_ZTIN3nix8HashSinkE
libnixutil.so:_ZTIN3nix8RootArgsE
libnixutil.so:_ZTSN3nix10MemorySinkE
libnixutil.so:_ZTSN3nix10StringSinkE
libnixutil.so:_ZTSN3nix11ChainSourceE
libnixutil.so:_ZTSN3nix11CompletionsE
libnixutil.so:_ZTSN3nix11LocalSignerE
libnixutil.so:_ZTSN3nix11ParseQuotedE
libnixutil.so:_ZTSN3nix11PathSettingE
libnixutil.so:_ZTSN3nix11RefScanSinkE
libnixutil.so:_ZTSN3nix11RestoreSinkE
libnixutil.so:_ZTSN3nix12BufferedSinkE
libnixutil.so:_ZTSN3nix12GlobalConfigE
libnixutil.so:_ZTSN3nix12MultiCommandE
libnixutil.so:_ZTSN3nix12StringSourceE
libnixutil.so:_ZTSN3nix13RewritingSinkE
libnixutil.so:_ZTSN3nix14BufferedSourceE
libnixutil.so:_ZTSN3nix14HashModuloSinkE
libnixutil.so:_ZTSN3nix14SourceAccessorE
libnixutil.so:_ZTSN3nix15AbstractSettingE
libnixutil.so:_ZTSN3nix15RegularFileSinkE
libnixutil.so:_ZTSN3nix18RestoreRegularFileE
libnixutil.so:_ZTSN3nix19OptionalPathSettingE
libnixutil.so:_ZTSN3nix19PosixSourceAccessorE
libnixutil.so:_ZTSN3nix20MemorySourceAccessorE
libnixutil.so:_ZTSN3nix23CreateMemoryRegularFileE
libnixutil.so:_ZTSN3nix24NullFileSystemObjectSinkE
libnixutil.so:_ZTSN3nix4ArgsE
libnixutil.so:_ZTSN3nix4ExitE
libnixutil.so:_ZTSN3nix6ConfigE
libnixutil.so:_ZTSN3nix6FdSinkE
libnixutil.so:_ZTSN3nix6LoggerE
libnixutil.so:_ZTSN3nix7CommandE
libnixutil.so:_ZTSN3nix8FdSourceE
libnixutil.so:_ZTSN3nix8HashSinkE
libnixutil.so:_ZTSN3nix8RootArgsE
libnixutil.so:_ZTTN3nix12BufferedSinkE
libnixutil.so:_ZTTN3nix12MultiCommandE
libnixutil.so:_ZTTN3nix14HashModuloSinkE
libnixutil.so:_ZTTN3nix19PosixSourceAccessorE
libnixutil.so:_ZTTN3nix20MemorySourceAccessorE
libnixutil.so:_ZTTN3nix6FdSinkE
libnixutil.so:_ZTTN3nix7CommandE
libnixutil.so:_ZTTN3nix8HashSinkE
libnixutil.so:_ZTTN3nix8RootArgsE
libnixutil.so:_ZTVN3nix10MemorySinkE
libnixutil.so:_ZTVN3nix10StringSinkE
libnixutil.so:_ZTVN3nix11ChainSourceE
libnixutil.so:_ZTVN3nix11CompletionsE
libnixutil.so:_ZTVN3nix11LocalSignerE
libnixutil.so:_ZTVN3nix11ParseQuotedE
libnixutil.so:_ZTVN3nix11PathSettingE
libnixutil.so:_ZTVN3nix11RefScanSinkE
libnixutil.so:_ZTVN3nix11RestoreSinkE
libnixutil.so:_ZTVN3nix12BufferedSinkE
libnixutil.so:_ZTVN3nix12GlobalConfigE
libnixutil.so:_ZTVN3nix12MultiCommandE
libnixutil.so:_ZTVN3nix12StringSourceE
libnixutil.so:_ZTVN3nix13RewritingSinkE
libnixutil.so:_ZTVN3nix14BufferedSourceE
libnixutil.so:_ZTVN3nix14HashModuloSinkE
libnixutil.so:_ZTVN3nix14SourceAccessorE
libnixutil.so:_ZTVN3nix15AbstractSettingE
libnixutil.so:_ZTVN3nix15RegularFileSinkE
libnixutil.so:_ZTVN3nix18RestoreRegularFileE
libnixutil.so:_ZTVN3nix19OptionalPathSettingE
libnixutil.so:_ZTVN3nix19PosixSourceAccessorE
libnixutil.so:_ZTVN3nix20MemorySourceAccessorE
libnixutil.so:_ZTVN3nix23CreateMemoryRegularFileE
libnixutil.so:_ZTVN3nix24NullFileSystemObjectSinkE
libnixutil.so:_ZTVN3nix4ArgsE
libnixutil.so:_ZTVN3nix4ExitE
libnixutil.so:_ZTVN3nix6ConfigE
libnixutil.so:_ZTVN3nix6FdSinkE
libnixutil.so:_ZTVN3nix6LoggerE
libnixutil.so:_ZTVN3nix7CommandE
libnixutil.so:_ZTVN3nix8FdSourceE
libnixutil.so:_ZTVN3nix8HashSinkE
libnixutil.so:_ZTVN3nix8RootArgsE
libnixutil.so:_ZThn32_N3nix8HashSink6finishEv
libnixutil.so:_ZThn32_N3nix8HashSinkD0Ev
libnixutil.so:_ZThn32_N3nix8HashSinkD1Ev
libnixutil.so:_ZTv0_n24_N3nix6FdSinkD0Ev
libnixutil.so:_ZTv0_n24_N3nix6FdSinkD1Ev
libnixutil.so:_ZTv0_n24_N3nix8HashSinkD0Ev
libnixutil.so:_ZTv0_n24_N3nix8HashSinkD1Ev
libnixutil.so:_ZTv0_n32_N3nix12BufferedSinkclESt17basic_string_viewIcSt11char_traitsIcEE
libnixutil.so:_ZTv0_n32_N3nix14HashModuloSinkclESt17basic_string_viewIcSt11char_traitsIcEE
libnixutil.so:_ZTv0_n32_N3nix20MemorySourceAccessor8readFileB5cxx11ERKNS_9CanonPathE
libnixutil.so:_ZTv0_n40_N3nix19PosixSourceAccessor8readFileERKNS_9CanonPathERNS_4SinkESt8functionIFvmEE
libnixutil.so:_ZTv0_n40_N3nix6FdSink4goodEv
libnixutil.so:_ZTv0_n48_N3nix19PosixSourceAccessor10pathExistsERKNS_9CanonPathE
libnixutil.so:_ZTv0_n48_N3nix20MemorySourceAccessor10pathExistsERKNS_9CanonPathE
libnixutil.so:_ZTv0_n48_NK3nix8RootArgs17getCommandBaseDirB5cxx11Ev
libnixutil.so:_ZTv0_n56_N3nix12MultiCommand11processFlagERSt14_List_iteratorINSt7__cxx1112basic_stringIcSt11char_traitsIcESaIcEEEES8_
libnixutil.so:_ZTv0_n56_N3nix19PosixSourceAccessor10maybeLstatERKNS_9CanonPathE
libnixutil.so:_ZTv0_n56_N3nix20MemorySourceAccessor10maybeLstatERKNS_9CanonPathE
libnixutil.so:_ZTv0_n64_N3nix12MultiCommand11processArgsERKNSt7__cxx114listINS1_12basic_stringIcSt11char_traitsIcESaIcEEESaIS7_EEEb
libnixutil.so:_ZTv0_n64_N3nix19PosixSourceAccessor13readDirectoryB5cxx11ERKNS_9CanonPathE
libnixutil.so:_ZTv0_n64_N3nix20MemorySourceAccessor13readDirectoryB5cxx11ERKNS_9CanonPathE
libnixutil.so:_ZTv0_n72_N3nix19PosixSourceAccessor8readLinkB5cxx11ERKNS_9CanonPathE
libnixutil.so:_ZTv0_n72_N3nix20MemorySourceAccessor8readLinkB5cxx11ERKNS_9CanonPathE
libnixutil.so:_ZTv0_n88_N3nix12MultiCommand6toJSONB5cxx11Ev
libnixutil.so:_ZTv0_n88_N3nix19PosixSourceAccessor15getPhysicalPathB5cxx11ERKNS_9CanonPathE
libnixutilc.so:_Z17nix_context_errorP13nix_c_context
libnixutilc.so:_Z28call_nix_get_string_callbackNSt7__cxx1112basic_stringIcSt11char_traitsIcESaIcEEEPFvPKcjPvES7_
libnixutilc.so:nix_c_context_create
libnixutilc.so:nix_c_context_free
libnixutilc.so:nix_clear_err
libnixutilc.so:nix_err_code
libnixutilc.so:nix_err_info_msg
libnixutilc.so:nix_err_msg
libnixutilc.so:nix_err_name
libnixutilc.so:nix_libutil_init
libnixutilc.so:nix_set_err_msg
libnixutilc.so:nix_setting_get
libnixutilc.so:nix_setting_set
libnixutilc.so:nix_version_get
nix:_end
