alita.node:_Z11zlog_getcidv
alita.node:_Z22CallThreadSafeFunctionRKN4Napi18ThreadSafeFunctionERKNSt7__cxx1112basic_stringIcSt11char_traitsIcESaIcEEE
alita.node:_Z36protobuf_AddDesc_zidl_5fbase_2eprotov
alita.node:_Z41protobuf_ShutdownFile_zidl_5fbase_2eprotov
alita.node:_ZN11ZidlVariant10SharedCtorEv
alita.node:_ZN11ZidlVariant10SharedDtorEv
alita.node:_ZN11ZidlVariant16default_instanceEv
alita.node:_ZN11ZidlVariant17default_instance_E
alita.node:_ZN11ZidlVariant21CheckTypeAndMergeFromERKN7tencent8protobuf11MessageLiteE
alita.node:_ZN11ZidlVariant21InitAsDefaultInstanceEv
alita.node:_ZN11ZidlVariant21kBoolValueFieldNumberE
alita.node:_ZN11ZidlVariant22kFloatValueFieldNumberE
alita.node:_ZN11ZidlVariant22kInt32ValueFieldNumberE
alita.node:_ZN11ZidlVariant22kInt64ValueFieldNumberE
alita.node:_ZN11ZidlVariant23kDoubleValueFieldNumberE
alita.node:_ZN11ZidlVariant23kUint32ValueFieldNumberE
alita.node:_ZN11ZidlVariant23kUint64ValueFieldNumberE
alita.node:_ZN11ZidlVariant27MergePartialFromCodedStreamEPN7tencent8protobuf2io16CodedInputStreamE
alita.node:_ZN11ZidlVariant4SwapEPS_
alita.node:_ZN11ZidlVariant5ClearEv
alita.node:_ZN11ZidlVariant8CopyFromERKS_
alita.node:_ZN11ZidlVariant9MergeFromERKS_
alita.node:_ZN11ZidlVariantC1ERKS_
alita.node:_ZN11ZidlVariantC1Ev
alita.node:_ZN11ZidlVariantC2ERKS_
alita.node:_ZN11ZidlVariantC2Ev
alita.node:_ZN11ZidlVariantD0Ev
alita.node:_ZN11ZidlVariantD1Ev
alita.node:_ZN11ZidlVariantD2Ev
alita.node:_ZN18CdnManagerCallback10AddTaskEnvEmP11TsfnContext
alita.node:_ZN18CdnManagerCallback21OnUploadImageCompleteEmiRKNSt7__cxx1112basic_stringIcSt11char_traitsIcESaIcEEES7_
alita.node:_ZN18CdnManagerCallback21OnUploadImageProgressEmmm
alita.node:_ZN18CdnManagerCallback22OnDownloadFileCompleteEmiRKNSt7__cxx1112basic_stringIcSt11char_traitsIcESaIcEEES7_
alita.node:_ZN18CdnManagerCallback22OnDownloadFileProgressEmmm
alita.node:_ZN18CdnManagerCallback23OnDownloadImageCompleteEmiRKNSt7__cxx1112basic_stringIcSt11char_traitsIcESaIcEEES7_
alita.node:_ZN18CdnManagerCallback23OnDownloadImageProgressEmmm
alita.node:_ZN18CommonUtilCallback10AddTaskEnvEmP11TsfnContext
alita.node:_ZN18CommonUtilCallback21OnVoiceTranceCompleteEmiRKNSt7__cxx1112basic_stringIcSt11char_traitsIcESaIcEEES7_
alita.node:_ZN19ApplicationCallback10AddTaskEnvEmP11TsfnContext
alita.node:_ZN19ApplicationCallback11SetOnNotifyERKN4Napi12CallbackInfoE
alita.node:_ZN19ApplicationCallback19OnUploadLogCompleteEmiRKNSt7__cxx1112basic_stringIcSt11char_traitsIcESaIcEEE
alita.node:_ZN19ApplicationCallback19OnUploadLogProgressEmmm
alita.node:_ZN19ApplicationCallback20EventExecuteCallbackERKN4Napi12CallbackInfoE
alita.node:_ZN19ApplicationCallback20OnCleanCacheCompleteEmiRKNSt7__cxx1112basic_stringIcSt11char_traitsIcESaIcEEEm
alita.node:_ZN19ApplicationCallback21OnGetExtSpamInfoEventB5cxx11Ei
alita.node:_ZN19ApplicationCallback22OnGetCacheSizeCompleteEmiRKNSt7__cxx1112basic_stringIcSt11char_traitsIcESaIcEEEm
alita.node:_ZN19ApplicationCallback23OnForegroundChangeEventEb
alita.node:_ZN19ApplicationCallback25OnNetworkStateChangeEventEi
alita.node:_ZN19ApplicationCallback26OnDynamicConfigUpdateEventERKNSt7__cxx1112basic_stringIcSt11char_traitsIcESaIcEEE
alita.node:_ZN19UserManagerCallback10AddTaskEnvEmP11TsfnContext
alita.node:_ZN19UserManagerCallback11SetOnNotifyERKN4Napi12CallbackInfoE
alita.node:_ZN19UserManagerCallback17OnUserUpdateEventEiRKNSt7__cxx1112basic_stringIcSt11char_traitsIcESaIcEEE
alita.node:_ZN19UserManagerCallback20EventExecuteCallbackERKN4Napi12CallbackInfoE
alita.node:_ZN19UserManagerCallback31OnGetLoggedInUserQrCodeCompleteEmiRKNSt7__cxx1112basic_stringIcSt11char_traitsIcESaIcEEES7_
alita.node:_ZN19UserManagerCallback32OnLoggedInUserProfileUpdateEventERKNSt7__cxx1112basic_stringIcSt11char_traitsIcESaIcEEE
alita.node:_ZN19UserManagerCallback34OnUpdateLoggedInUserAvatarCompleteEmiRKNSt7__cxx1112basic_stringIcSt11char_traitsIcESaIcEEE
alita.node:_ZN19UserManagerCallback35OnUpdateLoggedInUserProfileCompleteEmiRKNSt7__cxx1112basic_stringIcSt11char_traitsIcESaIcEEE
alita.node:_ZN19VoipManagerCallback11SetOnNotifyERKN4Napi12CallbackInfoE
alita.node:_ZN19VoipManagerCallback17OnVoipFinishEventEi
alita.node:_ZN19VoipManagerCallback20EventExecuteCallbackERKN4Napi12CallbackInfoE
alita.node:_ZN19VoipManagerCallback20OnCanAnswerVoipEventEv
alita.node:_ZN19VoipManagerCallback20OnReceiveInviteEventERKNSt7__cxx1112basic_stringIcSt11char_traitsIcESaIcEEEi
alita.node:_ZN19VoipManagerCallback22OnVoipStateChangeEventEi
alita.node:_ZN19VoipManagerCallback24OnAudioFormatChangeEventEii
alita.node:_ZN19VoipManagerCallback24OnRemoteCloseCameraEventEv
alita.node:_ZN20EmojiManagerCallback10AddTaskEnvEmP11TsfnContext
alita.node:_ZN20EmojiManagerCallback11SetOnNotifyERKN4Napi12CallbackInfoE
alita.node:_ZN20EmojiManagerCallback18OnEmojiUpdateEventEii
alita.node:_ZN20EmojiManagerCallback19OnInitEmojiCompleteEmiRKNSt7__cxx1112basic_stringIcSt11char_traitsIcESaIcEEES7_S7_S7_
alita.node:_ZN20EmojiManagerCallback19OnInitEmojiProgressEmmmRKNSt7__cxx1112basic_stringIcSt11char_traitsIcESaIcEEE
alita.node:_ZN20EmojiManagerCallback20EventExecuteCallbackERKN4Napi12CallbackInfoE
alita.node:_ZN20EmojiManagerCallback24OnEmojiOperationCompleteEmiRKNSt7__cxx1112basic_stringIcSt11char_traitsIcESaIcEEE
alita.node:_ZN20LoginManagerCallback10AddTaskEnvEmP11TsfnContext
alita.node:_ZN20LoginManagerCallback11SetOnNotifyERKN4Napi12CallbackInfoE
alita.node:_ZN20LoginManagerCallback16OnLogoutCompleteEmiRKNSt7__cxx1112basic_stringIcSt11char_traitsIcESaIcEEE
alita.node:_ZN20LoginManagerCallback19OnAutoLoginCompleteEmRKNSt7__cxx1112basic_stringIcSt11char_traitsIcESaIcEEE
alita.node:_ZN20LoginManagerCallback19OnPushLoginCompleteEmRKNSt7__cxx1112basic_stringIcSt11char_traitsIcESaIcEEES7_
alita.node:_ZN20LoginManagerCallback20EventExecuteCallbackERKN4Napi12CallbackInfoE
alita.node:_ZN20LoginManagerCallback22OnLoginAttrChangeEventERKNSt7__cxx1112basic_stringIcSt11char_traitsIcESaIcEEE
alita.node:_ZN20LoginManagerCallback22OnLoginByIlinkCompleteEmRKNSt7__cxx1112basic_stringIcSt11char_traitsIcESaIcEEE
alita.node:_ZN20LoginManagerCallback23OnGetBindQrCodeCompleteEmiRKNSt7__cxx1112basic_stringIcSt11char_traitsIcESaIcEEES7_S7_
alita.node:_ZN20LoginManagerCallback23OnLoginStateChangeEventEiRKNSt7__cxx1112basic_stringIcSt11char_traitsIcESaIcEEES7_S7_
alita.node:_ZN20LoginManagerCallback24OnGetLoginQrCodeCompleteEmiRKNSt7__cxx1112basic_stringIcSt11char_traitsIcESaIcEEES7_S7_
alita.node:_ZN20LoginManagerCallback24OnLoginBySmsCodeCompleteEmRKNSt7__cxx1112basic_stringIcSt11char_traitsIcESaIcEEE
alita.node:_ZN20LoginManagerCallback25OnGetLoginSmsCodeCompleteEmiRKNSt7__cxx1112basic_stringIcSt11char_traitsIcESaIcEEE
alita.node:_ZN20LoginManagerCallback25OnLoginByPasswordCompleteEmRKNSt7__cxx1112basic_stringIcSt11char_traitsIcESaIcEEE
alita.node:_ZN20LoginManagerCallback27OnLoginByBindQrCodeCompleteEmRKNSt7__cxx1112basic_stringIcSt11char_traitsIcESaIcEEE
alita.node:_ZN20LoginManagerCallback28OnLoginByLoginQrCodeCompleteEmRKNSt7__cxx1112basic_stringIcSt11char_traitsIcESaIcEEE
alita.node:_ZN20LoginManagerCallback29OnLoginQrCodeStateChangeEventEiRKNSt7__cxx1112basic_stringIcSt11char_traitsIcESaIcEEES7_S7_S7_
alita.node:_ZN20LoginManagerCallback30OnCheckBindQrCodeStateCompleteEmiRKNSt7__cxx1112basic_stringIcSt11char_traitsIcESaIcEEEiS7_S7_S7_S7_
alita.node:_ZN20LoginManagerCallback31OnCheckLoginQrCodeStateCompleteEmiRKNSt7__cxx1112basic_stringIcSt11char_traitsIcESaIcEEEiS7_S7_S7_S7_
alita.node:_ZN20LoginManagerCallback31OnSetPushAutoLoginStateCompleteEmiRKNSt7__cxx1112basic_stringIcSt11char_traitsIcESaIcEEE
alita.node:_ZN21AvatarManagerCallback10AddTaskEnvEmP11TsfnContext
alita.node:_ZN21AvatarManagerCallback11SetOnNotifyERKN4Napi12CallbackInfoE
alita.node:_ZN21AvatarManagerCallback19OnAvatarUpdateEventERKNSt7__cxx1112basic_stringIcSt11char_traitsIcESaIcEEE
alita.node:_ZN21AvatarManagerCallback20EventExecuteCallbackERKN4Napi12CallbackInfoE
alita.node:_ZN21AvatarManagerCallback24OnDownloadAvatarCompleteEmiRKNSt7__cxx1112basic_stringIcSt11char_traitsIcESaIcEEES7_S7_i
alita.node:_ZN21AvatarManagerCallback24OnDownloadAvatarProgressEmmmRKNSt7__cxx1112basic_stringIcSt11char_traitsIcESaIcEEEi
alita.node:_ZN22ContactManagerCallback10AddTaskEnvEmP11TsfnContext
alita.node:_ZN22ContactManagerCallback11SetOnNotifyERKN4Napi12CallbackInfoE
alita.node:_ZN22ContactManagerCallback16OnNewVerifyEventEiRKNSt7__cxx1112basic_stringIcSt11char_traitsIcESaIcEEE
alita.node:_ZN22ContactManagerCallback20EventExecuteCallbackERKN4Napi12CallbackInfoE
alita.node:_ZN22ContactManagerCallback20OnContactUpdateEventEiRKNSt7__cxx1112basic_stringIcSt11char_traitsIcESaIcEEE
alita.node:_ZN22ContactManagerCallback22OnAddToContactCompleteEmRKNSt7__cxx1112basic_stringIcSt11char_traitsIcESaIcEEES7_
alita.node:_ZN22ContactManagerCallback22OnHandleVerifyCompleteEmiRKNSt7__cxx1112basic_stringIcSt11char_traitsIcESaIcEEE
alita.node:_ZN22ContactManagerCallback22OnInitContactsCompleteEmiRKNSt7__cxx1112basic_stringIcSt11char_traitsIcESaIcEEE
alita.node:_ZN22ContactManagerCallback22OnInitContactsProgressEmi
alita.node:_ZN22ContactManagerCallback23OnDeleteContactCompleteEmiRKNSt7__cxx1112basic_stringIcSt11char_traitsIcESaIcEEE
alita.node:_ZN22ContactManagerCallback23OnRemarkContactCompleteEmiRKNSt7__cxx1112basic_stringIcSt11char_traitsIcESaIcEEE
alita.node:_ZN22ContactManagerCallback23OnSearchContactCompleteEmRKNSt7__cxx1112basic_stringIcSt11char_traitsIcESaIcEEES7_
alita.node:_ZN22ContactManagerCallback23OnUpdateContactCompleteEmiRKNSt7__cxx1112basic_stringIcSt11char_traitsIcESaIcEEE
alita.node:_ZN22ContactManagerCallback24OnSetContactMuteCompleteEmiRKNSt7__cxx1112basic_stringIcSt11char_traitsIcESaIcEEE
alita.node:_ZN22ContactManagerCallback25OnSetContactOnTopCompleteEmiRKNSt7__cxx1112basic_stringIcSt11char_traitsIcESaIcEEE
alita.node:_ZN22ContactManagerCallback26OnVerifyContactUpdateEventEiRKNSt7__cxx1112basic_stringIcSt11char_traitsIcESaIcEEE
alita.node:_ZN22ContactManagerCallback28OnBatchUpdateContactCompleteEmiRKNSt7__cxx1112basic_stringIcSt11char_traitsIcESaIcEEE
alita.node:_ZN22ContactManagerCallback31OnSendAddContactRequestCompleteEmRKNSt7__cxx1112basic_stringIcSt11char_traitsIcESaIcEEE
alita.node:_ZN22MessageManagerCallback10AddTaskEnvEmP11TsfnContext
alita.node:_ZN22MessageManagerCallback11SetOnNotifyERKN4Napi12CallbackInfoE
alita.node:_ZN22MessageManagerCallback20EventExecuteCallbackERKN4Napi12CallbackInfoE
alita.node:_ZN22MessageManagerCallback20OnMessageNotifyEventERKNSt7__cxx1112basic_stringIcSt11char_traitsIcESaIcEEE
alita.node:_ZN22MessageManagerCallback20OnMessageUpdateEventEimRKNSt7__cxx1112basic_stringIcSt11char_traitsIcESaIcEEE
alita.node:_ZN22MessageManagerCallback22OnMessageProgressEventEimmm
alita.node:_ZN22MessageManagerCallback22OnTransMessageCompleteEmiRKNSt7__cxx1112basic_stringIcSt11char_traitsIcESaIcEEEm
alita.node:_ZN22MessageManagerCallback23OnRecallMessageCompleteEmiRKNSt7__cxx1112basic_stringIcSt11char_traitsIcESaIcEEEm
alita.node:_ZN22MessageManagerCallback23OnReloadMessageCompleteEmiRKNSt7__cxx1112basic_stringIcSt11char_traitsIcESaIcEEEm
alita.node:_ZN22MessageManagerCallback23OnResendMessageCompleteEmiRKNSt7__cxx1112basic_stringIcSt11char_traitsIcESaIcEEEm
alita.node:_ZN22MessageManagerCallback24OnForwardMessageCompleteEmiRKNSt7__cxx1112basic_stringIcSt11char_traitsIcESaIcEEE
alita.node:_ZN22MessageManagerCallback24OnSendAppMessageCompleteEmiRKNSt7__cxx1112basic_stringIcSt11char_traitsIcESaIcEEEm
alita.node:_ZN22MessageManagerCallback25OnSendTextMessageCompleteEmiRKNSt7__cxx1112basic_stringIcSt11char_traitsIcESaIcEEEm
alita.node:_ZN22MessageManagerCallback26OnSendEmojiMessageCompleteEmiRKNSt7__cxx1112basic_stringIcSt11char_traitsIcESaIcEEEm
alita.node:_ZN22MessageManagerCallback26OnSendImageMessageCompleteEmiRKNSt7__cxx1112basic_stringIcSt11char_traitsIcESaIcEEEm
alita.node:_ZN22MessageManagerCallback26OnSendVideoMessageCompleteEmiRKNSt7__cxx1112basic_stringIcSt11char_traitsIcESaIcEEEm
alita.node:_ZN22MessageManagerCallback26OnSendVoiceMessageCompleteEmiRKNSt7__cxx1112basic_stringIcSt11char_traitsIcESaIcEEEm
alita.node:_ZN22MessageManagerCallback30OnSendTextMessageExtenCompleteEmiRKNSt7__cxx1112basic_stringIcSt11char_traitsIcESaIcEEEm
alita.node:_ZN22MessageManagerCallback32OnDownloadMessageContentCompleteEmiRKNSt7__cxx1112basic_stringIcSt11char_traitsIcESaIcEEEm
alita.node:_ZN22MessageManagerCallback35OnDownloadSubMessageContentCompleteEmiRKNSt7__cxx1112basic_stringIcSt11char_traitsIcESaIcEEEmS7_
alita.node:_ZN22MessageManagerCallback35OnDownloadSubMessageContentProgressEmimRKNSt7__cxx1112basic_stringIcSt11char_traitsIcESaIcEEEmm
alita.node:_ZN22OpensdkManagerCallback10AddTaskEnvEmP11TsfnContext
alita.node:_ZN22OpensdkManagerCallback15OnOAuthCompleteEmiRKNSt7__cxx1112basic_stringIcSt11char_traitsIcESaIcEEES7_
alita.node:_ZN22OpensdkManagerCallback21OnRegisterAppCompleteEmiRKNSt7__cxx1112basic_stringIcSt11char_traitsIcESaIcEEE
alita.node:_ZN22OpensdkManagerCallback22OnOAuthConfirmCompleteEmiRKNSt7__cxx1112basic_stringIcSt11char_traitsIcESaIcEEES7_
alita.node:_ZN22OpensdkManagerCallback25OnShareAppMessageCompleteEmiRKNSt7__cxx1112basic_stringIcSt11char_traitsIcESaIcEEE
alita.node:_ZN22OpensdkManagerCallback25OnShareUrlMessageCompleteEmiRKNSt7__cxx1112basic_stringIcSt11char_traitsIcESaIcEEE
alita.node:_ZN22OpensdkManagerCallback26OnShareFileMessageCompleteEmiRKNSt7__cxx1112basic_stringIcSt11char_traitsIcESaIcEEE
alita.node:_ZN22OpensdkManagerCallback26OnShareTextMessageCompleteEmiRKNSt7__cxx1112basic_stringIcSt11char_traitsIcESaIcEEE
alita.node:_ZN22OpensdkManagerCallback27OnShareEmojiMessageCompleteEmiRKNSt7__cxx1112basic_stringIcSt11char_traitsIcESaIcEEE
alita.node:_ZN22OpensdkManagerCallback27OnShareImageMessageCompleteEmiRKNSt7__cxx1112basic_stringIcSt11char_traitsIcESaIcEEE
alita.node:_ZN22OpensdkManagerCallback27OnShareMusicMessageCompleteEmiRKNSt7__cxx1112basic_stringIcSt11char_traitsIcESaIcEEE
alita.node:_ZN22OpensdkManagerCallback27OnShareVideoMessageCompleteEmiRKNSt7__cxx1112basic_stringIcSt11char_traitsIcESaIcEEE
alita.node:_ZN22OpensdkManagerCallback29OnShareMusicMvMessageCompleteEmiRKNSt7__cxx1112basic_stringIcSt11char_traitsIcESaIcEEE
alita.node:_ZN22OpensdkManagerCallback30OnShareAppBrandMessageCompleteEmiRKNSt7__cxx1112basic_stringIcSt11char_traitsIcESaIcEEE
alita.node:_ZN23ChatRoomManagerCallback10AddTaskEnvEmP11TsfnContext
alita.node:_ZN23ChatRoomManagerCallback11SetOnNotifyERKN4Napi12CallbackInfoE
alita.node:_ZN23ChatRoomManagerCallback20EventExecuteCallbackERKN4Napi12CallbackInfoE
alita.node:_ZN23ChatRoomManagerCallback22OnQuitChatRoomCompleteEmiRKNSt7__cxx1112basic_stringIcSt11char_traitsIcESaIcEEES7_
alita.node:_ZN23ChatRoomManagerCallback23OnAddRoomMemberCompleteEmiRKNSt7__cxx1112basic_stringIcSt11char_traitsIcESaIcEEE
alita.node:_ZN23ChatRoomManagerCallback24OnCreateChatRoomCompleteEmiRKNSt7__cxx1112basic_stringIcSt11char_traitsIcESaIcEEES7_S7_
alita.node:_ZN23ChatRoomManagerCallback25OnSetRoomNickNameCompleteEmiRKNSt7__cxx1112basic_stringIcSt11char_traitsIcESaIcEEE
alita.node:_ZN23ChatRoomManagerCallback26OnDeleteRoomMemberCompleteEmiRKNSt7__cxx1112basic_stringIcSt11char_traitsIcESaIcEEE
alita.node:_ZN23ChatRoomManagerCallback26OnInviteRoomMemberCompleteEmiRKNSt7__cxx1112basic_stringIcSt11char_traitsIcESaIcEEE
alita.node:_ZN23ChatRoomManagerCallback26OnSetRoomInContactCompleteEmiRKNSt7__cxx1112basic_stringIcSt11char_traitsIcESaIcEEE
alita.node:_ZN23ChatRoomManagerCallback27OnSetRoomMuteStatusCompleteEmiRKNSt7__cxx1112basic_stringIcSt11char_traitsIcESaIcEEE
alita.node:_ZN23ChatRoomManagerCallback28OnChatRoomVersionUpdateEventERKNSt7__cxx1112basic_stringIcSt11char_traitsIcESaIcEEEjj
alita.node:_ZN23ChatRoomManagerCallback28OnSetSelfDisplayNameCompleteEmiRKNSt7__cxx1112basic_stringIcSt11char_traitsIcESaIcEEE
alita.node:_ZN23ChatRoomManagerCallback29OnSetRoomAnnouncementCompleteEmiRKNSt7__cxx1112basic_stringIcSt11char_traitsIcESaIcEEE
alita.node:_ZN23ChatRoomManagerCallback29OnUpdateMemberContactCompleteEmiRKNSt7__cxx1112basic_stringIcSt11char_traitsIcESaIcEEES7_
alita.node:_ZN23ChatRoomManagerCallback30OnUpdateChatRoomDetailCompleteEmiRKNSt7__cxx1112basic_stringIcSt11char_traitsIcESaIcEEES7_S7_
alita.node:_ZN23ChatRoomManagerCallback30OnUpdateChatRoomMemberCompleteEmiRKNSt7__cxx1112basic_stringIcSt11char_traitsIcESaIcEEES7_S7_
alita.node:_ZN23ChatRoomManagerCallback34OnSetDisplayNameVisibilityCompleteEmiRKNSt7__cxx1112basic_stringIcSt11char_traitsIcESaIcEEE
alita.node:_ZN24ExtensionManagerCallback10AddTaskEnvEmP11TsfnContext
alita.node:_ZN24ExtensionManagerCallback11SetOnNotifyERKN4Napi12CallbackInfoE
alita.node:_ZN24ExtensionManagerCallback20EventExecuteCallbackERKN4Napi12CallbackInfoE
alita.node:_ZN24ExtensionManagerCallback20OnReceiveNotifyEventEjRKNSt7__cxx1112basic_stringIcSt11char_traitsIcESaIcEEE
alita.node:_ZN24ExtensionManagerCallback21OnSendRequestCompleteEmjiRKNSt7__cxx1112basic_stringIcSt11char_traitsIcESaIcEEE
alita.node:_ZN24WxcodepayManagerCallback10AddTaskEnvEmP11TsfnContext
alita.node:_ZN24WxcodepayManagerCallback11SetOnNotifyERKN4Napi12CallbackInfoE
alita.node:_ZN24WxcodepayManagerCallback16OnUnbindCompleteEmiRKNSt7__cxx1112basic_stringIcSt11char_traitsIcESaIcEEE
alita.node:_ZN24WxcodepayManagerCallback19OnStartBindCompleteEmiRKNSt7__cxx1112basic_stringIcSt11char_traitsIcESaIcEEE
alita.node:_ZN24WxcodepayManagerCallback20EventExecuteCallbackERKN4Napi12CallbackInfoE
alita.node:_ZN24WxcodepayManagerCallback20OnBalanceUpdateEventERKNSt7__cxx1112basic_stringIcSt11char_traitsIcESaIcEEE
alita.node:_ZN24WxcodepayManagerCallback20OnPayCodeUpdateEventERKNSt7__cxx1112basic_stringIcSt11char_traitsIcESaIcEEE
alita.node:_ZN24WxcodepayManagerCallback22OnBindStateChangeEventEii
alita.node:_ZN24WxcodepayManagerCallback24OnReceivePayMessageEventERKNSt7__cxx1112basic_stringIcSt11char_traitsIcESaIcEEE
alita.node:_ZN24WxcodepayManagerCallback24OnRefreshBalanceCompleteEmiRKNSt7__cxx1112basic_stringIcSt11char_traitsIcESaIcEEES7_
alita.node:_ZN27ConversationManagerCallback10AddTaskEnvEmP11TsfnContext
alita.node:_ZN27ConversationManagerCallback11SetOnNotifyERKN4Napi12CallbackInfoE
alita.node:_ZN27ConversationManagerCallback20EventExecuteCallbackERKN4Napi12CallbackInfoE
alita.node:_ZN27ConversationManagerCallback24OnEnterConversationEventERKNSt7__cxx1112basic_stringIcSt11char_traitsIcESaIcEEE
alita.node:_ZN27ConversationManagerCallback25OnConversationUpdateEventEiRKNSt7__cxx1112basic_stringIcSt11char_traitsIcESaIcEEES7_
alita.node:_ZN27ConversationManagerCallback28OnConversationSeqUpdateEventEi
alita.node:_ZN27ConversationManagerCallback33OnConversationListSyncUpdateEventEi
alita.node:_ZN27ConversationManagerCallback34OnSyncConversationSequenceCompleteEmiRKNSt7__cxx1112basic_stringIcSt11char_traitsIcESaIcEEE
alita.node:_ZN3owl10co_monitor10disconnectENS_13signal_conn_tE
alita.node:_ZN3owl10co_monitor21notify_status_changedENS_11co_status_tES1_RKNSt7__cxx1112basic_stringIcSt11char_traitsIcESaIcEEE
alita.node:_ZN3owl10co_monitor7connectESt8functionIFvNS_11co_status_tES2_RKNSt7__cxx1112basic_stringIcSt11char_traitsIcESaIcEEEEE
alita.node:_ZN3owl10co_monitor8instanceEv
alita.node:_ZN3owl10ltrim_copyERKNSt7__cxx1112basic_stringIcSt11char_traitsIcESaIcEEES7_
alita.node:_ZN3owl10rtrim_copyERKNSt7__cxx1112basic_stringIcSt11char_traitsIcESaIcEEES7_
alita.node:_ZN3owl10write_fileERKNSt7__cxx1112basic_stringIcSt11char_traitsIcESaIcEEEPKvm
alita.node:_ZN3owl10write_fileERKNSt7__cxx1112basic_stringIcSt11char_traitsIcESaIcEEES7_
alita.node:_ZN3owl11co_executorENS_11coroutine_tE
alita.node:_ZN3owl11coroutine_t4initEPNS_9coroutineE
alita.node:_ZN3owl11coroutine_tC1EPNS_9coroutineE
alita.node:_ZN3owl11coroutine_tC2EPNS_9coroutineE
alita.node:_ZN3owl11coroutine_taSEPNS_9coroutineE
alita.node:_ZN3owl11starts_withERKNSt7__cxx1112basic_stringIcSt11char_traitsIcESaIcEEES7_m
alita.node:_ZN3owl12base64_codec10decode_newEPmPKvm
alita.node:_ZN3owl12base64_codec10encode_newEPmPKvm
alita.node:_ZN3owl12base64_codec16kReverseAlphabetE
alita.node:_ZN3owl12base64_codec18get_decoded_lengthEPKcm
alita.node:_ZN3owl12base64_codec18get_encoded_lengthEm
alita.node:_ZN3owl12base64_codec19check_decode_input_EPKcm
alita.node:_ZN3owl12base64_codec6decodeB5cxx11EPKvm
alita.node:_ZN3owl12base64_codec6decodeERKNSt7__cxx1112basic_stringIcSt11char_traitsIcESaIcEEE
alita.node:_ZN3owl12base64_codec6encodeB5cxx11EPKvm
alita.node:_ZN3owl12base64_codec6encodeERKNSt7__cxx1112basic_stringIcSt11char_traitsIcESaIcEEE
alita.node:_ZN3owl12base64_codec7decode_EPcmPKcm
alita.node:_ZN3owl12base64_codec7encode_EPcmPKcm
alita.node:_ZN3owl12base64_codec8kPaddingE
alita.node:_ZN3owl12base64_codec9kAlphabetE
alita.node:_ZN3owl12co_resume_ifENS_11coroutine_tESt8functionIFbvEE
alita.node:_ZN3owl12co_scheduler10resume_co_ENS_11coroutine_tE
alita.node:_ZN3owl12co_scheduler16try_resume_next_Eb
alita.node:_ZN3owl12co_scheduler6removeENS_11coroutine_tE
alita.node:_ZN3owl12co_scheduler8scheduleENS_11coroutine_tEi
alita.node:_ZN3owl12co_set_stackEPvmm
alita.node:_ZN3owl13base64_decodeB5cxx11EPKvm
alita.node:_ZN3owl13base64_decodeERKNSt7__cxx1112basic_stringIcSt11char_traitsIcESaIcEEE
alita.node:_ZN3owl13base64_encodeB5cxx11EPKvm
alita.node:_ZN3owl13base64_encodeERKNSt7__cxx1112basic_stringIcSt11char_traitsIcESaIcEEE
alita.node:_ZN3owl13co_cancel_nowENS_11coroutine_tEi
alita.node:_ZN3owl13co_resume_nowENS_11coroutine_tE
alita.node:_ZN3owl13co_resume_nowENS_11coroutine_tEPNS_9tuple_anyES2_
alita.node:_ZN3owl13get_page_sizeEv
alita.node:_ZN3owl13md5_hash_fileERKNSt7__cxx1112basic_stringIcSt11char_traitsIcESaIcEEE
alita.node:_ZN3owl13to_hex_stringB5cxx11EPKvmb
alita.node:_ZN3owl13to_hex_stringERKNSt7__cxx1112basic_stringIcSt11char_traitsIcESaIcEEEb
alita.node:_ZN3owl15from_hex_stringEPKcmPhm
alita.node:_ZN3owl15from_hex_stringERKNSt7__cxx1112basic_stringIcSt11char_traitsIcESaIcEEE
alita.node:_ZN3owl16get_current_timeEv
alita.node:_ZN3owl17get_random_stringB5cxx11Em
alita.node:_ZN3owl18new_heap_allocatorEv
alita.node:_ZN3owl18new_mmap_allocatorEv
alita.node:_ZN3owl19co_set_shared_stackEPvm
alita.node:_ZN3owl19interrupt_exceptionC1Ei
alita.node:_ZN3owl19interrupt_exceptionC2Ei
alita.node:_ZN3owl19new_stack_allocatorEPvmm
alita.node:_ZN3owl20co_non_cancellable_tC1Ev
alita.node:_ZN3owl20co_non_cancellable_tC2Ev
alita.node:_ZN3owl20co_non_cancellable_tD1Ev
alita.node:_ZN3owl20co_non_cancellable_tD2Ev
alita.node:_ZN3owl24get_number_of_processorsEv
alita.node:_ZN3owl26new_shared_stack_allocatorEPvm
alita.node:_ZN3owl27co_set_max_concurrent_countEm
alita.node:_ZN3owl4trimERNSt7__cxx1112basic_stringIcSt11char_traitsIcESaIcEEERKS5_
alita.node:_ZN3owl5ltrimERNSt7__cxx1112basic_stringIcSt11char_traitsIcESaIcEEERKS5_
alita.node:_ZN3owl5rtrimERNSt7__cxx1112basic_stringIcSt11char_traitsIcESaIcEEERKS5_
alita.node:_ZN3owl6buffer10seek_impl_ERmii
alita.node:_ZN3owl6buffer4dataEv
alita.node:_ZN3owl6buffer4readEPvm
alita.node:_ZN3owl6buffer4readERNSt7__cxx1112basic_stringIcSt11char_traitsIcESaIcEEEm
alita.node:_ZN3owl6buffer4readERS0_m
alita.node:_ZN3owl6buffer4readEmPvm
alita.node:_ZN3owl6buffer4readEmRNSt7__cxx1112basic_stringIcSt11char_traitsIcESaIcEEEm
alita.node:_ZN3owl6buffer4readEmRS0_m
alita.node:_ZN3owl6buffer4rptrEv
alita.node:_ZN3owl6buffer4swapERS0_
alita.node:_ZN3owl6buffer4wptrEv
alita.node:_ZN3owl6buffer5clearEv
alita.node:_ZN3owl6buffer5init_Ev
alita.node:_ZN3owl6buffer5resetEv
alita.node:_ZN3owl6buffer5seek_ERmiNS_8seek_dirE
alita.node:_ZN3owl6buffer5seekrEiNS_8seek_dirE
alita.node:_ZN3owl6buffer5seekwEiNS_8seek_dirE
alita.node:_ZN3owl6buffer5writeEPKc
alita.node:_ZN3owl6buffer5writeEPKvm
alita.node:_ZN3owl6buffer5writeERKNSt7__cxx1112basic_stringIcSt11char_traitsIcESaIcEEE
alita.node:_ZN3owl6buffer5writeERKS0_
alita.node:_ZN3owl6buffer5writeEmPKc
alita.node:_ZN3owl6buffer5writeEmPKvm
alita.node:_ZN3owl6buffer5writeEmRKNSt7__cxx1112basic_stringIcSt11char_traitsIcESaIcEEE
alita.node:_ZN3owl6buffer5writeEmRKS0_
alita.node:_ZN3owl6buffer6assignEOS0_
alita.node:_ZN3owl6buffer6assignEPKc
alita.node:_ZN3owl6buffer6assignEPKvm
alita.node:_ZN3owl6buffer6assignERKNSt7__cxx1112basic_stringIcSt11char_traitsIcESaIcEEE
alita.node:_ZN3owl6buffer6assignERKS0_
alita.node:_ZN3owl6buffer6attachEPvm
alita.node:_ZN3owl6buffer6detachEPm
alita.node:_ZN3owl6buffer6resizeEm
alita.node:_ZN3owl6buffer7reserveEm
alita.node:_ZN3owl6bufferC1EOS0_
alita.node:_ZN3owl6bufferC1EPKc
alita.node:_ZN3owl6bufferC1EPKvm
alita.node:_ZN3owl6bufferC1ERKNSt7__cxx1112basic_stringIcSt11char_traitsIcESaIcEEE
alita.node:_ZN3owl6bufferC1ERKS0_
alita.node:_ZN3owl6bufferC1Em
alita.node:_ZN3owl6bufferC1Ev
alita.node:_ZN3owl6bufferC2EOS0_
alita.node:_ZN3owl6bufferC2EPKc
alita.node:_ZN3owl6bufferC2EPKvm
alita.node:_ZN3owl6bufferC2ERKNSt7__cxx1112basic_stringIcSt11char_traitsIcESaIcEEE
alita.node:_ZN3owl6bufferC2ERKS0_
alita.node:_ZN3owl6bufferC2Em
alita.node:_ZN3owl6bufferC2Ev
alita.node:_ZN3owl6bufferD1Ev
alita.node:_ZN3owl6bufferD2Ev
alita.node:_ZN3owl6bufferaSEOS0_
alita.node:_ZN3owl6bufferaSERKS0_
alita.node:_ZN3owl6bufferpLERKS0_
alita.node:_ZN3owl7cls_getEi
alita.node:_ZN3owl7cls_setEiPv
alita.node:_ZN3owl7co_nameB5cxx11ENS_11coroutine_tE
alita.node:_ZN3owl7co_thisEv
alita.node:_ZN3owl7replaceERNSt7__cxx1112basic_stringIcSt11char_traitsIcESaIcEEERKS5_S8_
alita.node:_ZN3owl7replaceERNSt7__cxx1112basic_stringIcSt11char_traitsIcESaIcEEERKS5_mc
alita.node:_ZN3owl8cls_freeEi
alita.node:_ZN3owl8co_yieldEPNS_9tuple_anyES1_
alita.node:_ZN3owl8co_yieldEv
alita.node:_ZN3owl8md5_hashB5cxx11EPKvm
alita.node:_ZN3owl8md5_hashERKNSt7__cxx1112basic_stringIcSt11char_traitsIcESaIcEEE
alita.node:_ZN3owl9allocatorC1Ev
alita.node:_ZN3owl9allocatorC2Ev
alita.node:_ZN3owl9allocatorD0Ev
alita.node:_ZN3owl9allocatorD1Ev
alita.node:_ZN3owl9allocatorD2Ev
alita.node:_ZN3owl9cls_allocEPFvPvE
alita.node:_ZN3owl9co_cancelENS_11coroutine_tEi
alita.node:_ZN3owl9co_createEPFvPvES0_S2_RKNS_10co_optionsE
alita.node:_ZN3owl9co_createERKNS_10co_optionsESt8functionIFvvEE
alita.node:_ZN3owl9co_resumeENS_11coroutine_tE
alita.node:_ZN3owl9co_statusENS_11coroutine_tE
alita.node:_ZN3owl9coroutine12tls_co_this_E
alita.node:_ZN3owl9coroutine8s_co_id_E
alita.node:_ZN3owl9ends_withERKNSt7__cxx1112basic_stringIcSt11char_traitsIcESaIcEEES7_
alita.node:_ZN3owl9to_stringENS_11co_status_tE
alita.node:_ZN3owl9trim_copyERKNSt7__cxx1112basic_stringIcSt11char_traitsIcESaIcEEES7_
alita.node:_ZN4zlog10hex_dumper10dump_data_EPKvm
alita.node:_ZN4zlog10hex_dumper10dump_line_EmPKhm
alita.node:_ZN4zlog10hex_dumper12dump_header_Em
alita.node:_ZN4zlog10hex_dumper13to_hex_stringB5cxx11EPKvm
alita.node:_ZN4zlog10log_object3hexEPKc
alita.node:_ZN4zlog10log_object3hexEPKvm
alita.node:_ZN4zlog10log_object3hexERKNSt7__cxx1112basic_stringIcSt11char_traitsIcESaIcEEE
alita.node:_ZN4zlog10log_object3logEPKcz
alita.node:_ZN4zlog10log_object4initEbNS_9log_levelEPKcS3_S3_i
alita.node:_ZN4zlog10log_object4initEbNS_9log_levelEPKcS3_S3_iRKNS_6sentryE
alita.node:_ZN4zlog10log_object5log_vEPKcP13__va_list_tag
alita.node:_ZN4zlog10log_object6commitEv
alita.node:_ZN4zlog10log_objectC1EPNS_11log_managerE
alita.node:_ZN4zlog10log_objectC2EPNS_11log_managerE
alita.node:_ZN4zlog10log_objectD1Ev
alita.node:_ZN4zlog10log_objectD2Ev
alita.node:_ZN4zlog10log_string15append_format_cEPKcz
alita.node:_ZN4zlog10log_string15append_format_vEPKcP13__va_list_tag
alita.node:_ZN4zlog10log_string15append_variant_ERKNS_7variantE
alita.node:_ZN4zlog10log_string19append_variant_bin_ERKNS_7variantE
alita.node:_ZN4zlog10log_string19append_variant_hex_ERKNS_7variantEb
alita.node:_ZN4zlog10log_string22append_variant_format_EcRKNS_7variantE
alita.node:_ZN4zlog10log_string28append_format_typesafe_impl_EPKcS2_PKNS_7variantEm
alita.node:_ZN4zlog10log_string3strB5cxx11Ev
alita.node:_ZN4zlog10log_string5clearEv
alita.node:_ZN4zlog10log_string6appendEDn
alita.node:_ZN4zlog10log_string6appendEPKc
alita.node:_ZN4zlog10log_string6appendEPKcm
alita.node:_ZN4zlog10log_string6appendEPKv
alita.node:_ZN4zlog10log_string6appendERKNSt7__cxx1112basic_stringIcSt11char_traitsIcESaIcEEE
alita.node:_ZN4zlog10log_string6appendEb
alita.node:_ZN4zlog10log_string6appendEc
alita.node:_ZN4zlog10log_string8format_cEPKcz
alita.node:_ZN4zlog10log_string8format_vEPKcP13__va_list_tag
alita.node:_ZN4zlog10log_stringC1Ev
alita.node:_ZN4zlog10log_stringC2Ev
alita.node:_ZN4zlog10log_stringD1Ev
alita.node:_ZN4zlog10log_stringD2Ev
alita.node:_ZN4zlog10scoped_logC1EbNS_9log_levelEPKcS3_S3_iS3_RKNSt7__cxx1112basic_stringIcSt11char_traitsIcESaIcEEE
alita.node:_ZN4zlog10scoped_logC2EbNS_9log_levelEPKcS3_S3_iS3_RKNSt7__cxx1112basic_stringIcSt11char_traitsIcESaIcEEE
alita.node:_ZN4zlog10scoped_logD1Ev
alita.node:_ZN4zlog10scoped_logD2Ev
alita.node:_ZN4zlog11log_manager11clear_cacheEv
alita.node:_ZN4zlog11log_manager12add_appenderERKSt10shared_ptrINS_12log_appenderEE
alita.node:_ZN4zlog11log_manager14set_auto_flushEb
alita.node:_ZN4zlog11log_manager15remove_appenderERKSt10shared_ptrINS_12log_appenderEE
alita.node:_ZN4zlog11log_manager19set_console_enabledEb
alita.node:_ZN4zlog11log_manager20remove_all_appendersEv
alita.node:_ZN4zlog11log_manager23set_auto_flush_intervalEm
alita.node:_ZN4zlog11log_manager5flushEv
alita.node:_ZN4zlog11log_manager5resetEv
alita.node:_ZN4zlog11log_manager6commitERNS_9log_entryE
alita.node:_ZN4zlog11log_manager8instanceENS_9log_levelE
alita.node:_ZN4zlog11log_manager8instanceEv
alita.node:_ZN4zlog11log_manager9set_levelENS_9log_levelE
alita.node:_ZN4zlog11log_managerC1Ev
alita.node:_ZN4zlog11log_managerC2Ev
alita.node:_ZN4zlog11log_managerD1Ev
alita.node:_ZN4zlog11log_managerD2Ev
alita.node:_ZN4zlog11this_thread15set_log_enabledEb
alita.node:_ZN4zlog12timed_worker12set_intervalEm
alita.node:_ZN4zlog12timed_worker4stopEv
alita.node:_ZN4zlog12timed_worker5startESt8functionIFvvEE
alita.node:_ZN4zlog12timed_workerC1Ev
alita.node:_ZN4zlog12timed_workerC2Ev
alita.node:_ZN4zlog12timed_workerD1Ev
alita.node:_ZN4zlog12timed_workerD2Ev
alita.node:_ZN4zlog15get_null_loggerEv
alita.node:_ZN4zlog16console_appender12do_write_logERKNS_9log_entryERNS_10log_stringE
alita.node:_ZN4zlog16console_appenderC1Ev
alita.node:_ZN4zlog16console_appenderC2Ev
alita.node:_ZN4zlog16console_appenderD0Ev
alita.node:_ZN4zlog16console_appenderD1Ev
alita.node:_ZN4zlog16console_appenderD2Ev
alita.node:_ZN4zlog17log_appender_base10set_filterEPNS_10log_filterE
alita.node:_ZN4zlog17log_appender_base10set_filterESt8functionIFbRKNS_9log_entryEEE
alita.node:_ZN4zlog17log_appender_base13set_formatterEPNS_13log_formatterE
alita.node:_ZN4zlog17log_appender_base8do_writeERNS_9log_entryE
alita.node:_ZN4zlog17log_appender_baseC1Ev
alita.node:_ZN4zlog17log_appender_baseC2Ev
alita.node:_ZN4zlog17log_appender_baseD0Ev
alita.node:_ZN4zlog17log_appender_baseD1Ev
alita.node:_ZN4zlog17log_appender_baseD2Ev
alita.node:_ZN4zlog20get_simple_funcname_B5cxx11EPKc
alita.node:_ZN4zlog21default_log_formatter10set_formatERKNSt7__cxx1112basic_stringIcSt11char_traitsIcESaIcEEE
alita.node:_ZN4zlog21default_log_formatter13parse_format_ERKNSt7__cxx1112basic_stringIcSt11char_traitsIcESaIcEEE
alita.node:_ZN4zlog21default_log_formatter6formatERNS_9log_entryERNS_10log_stringE
alita.node:_ZN4zlog21default_log_formatterC1ERKNSt7__cxx1112basic_stringIcSt11char_traitsIcESaIcEEES8_
alita.node:_ZN4zlog21default_log_formatterC2ERKNSt7__cxx1112basic_stringIcSt11char_traitsIcESaIcEEES8_
alita.node:_ZN4zlog21default_log_formatterD0Ev
alita.node:_ZN4zlog21default_log_formatterD1Ev
alita.node:_ZN4zlog21default_log_formatterD2Ev
alita.node:_ZN4zlog24colored_console_appender12do_write_logERKNS_9log_entryERNS_10log_stringE
alita.node:_ZN4zlog24colored_console_appenderC1Ev
alita.node:_ZN4zlog24colored_console_appenderC2Ev
alita.node:_ZN4zlog24colored_console_appenderD0Ev
alita.node:_ZN4zlog24colored_console_appenderD1Ev
alita.node:_ZN4zlog24colored_console_appenderD2Ev
alita.node:_ZN4zlog3hexB5cxx11EPKc
alita.node:_ZN4zlog3hexB5cxx11EPKvm
alita.node:_ZN4zlog3hexERKNSt7__cxx1112basic_stringIcSt11char_traitsIcESaIcEEE
alita.node:_ZN4zlog6zfunc_EPKcS1_
alita.node:_ZN5alita10CdnManager16UploadImageAsyncERKN4Napi12CallbackInfoE
alita.node:_ZN5alita10CdnManager17DownloadFileAsyncERKN4Napi12CallbackInfoE
alita.node:_ZN5alita10CdnManager18DownloadImageAsyncERKN4Napi12CallbackInfoE
alita.node:_ZN5alita10CdnManager4InitEN4Napi3EnvENS1_6ObjectE
alita.node:_ZN5alita10CdnManagerC1ERKN4Napi12CallbackInfoE
alita.node:_ZN5alita10CdnManagerC2ERKN4Napi12CallbackInfoE
alita.node:_ZN5alita10CommonUtil16VoiceTranceAsyncERKN4Napi12CallbackInfoE
alita.node:_ZN5alita10CommonUtil4InitEN4Napi3EnvENS1_6ObjectE
alita.node:_ZN5alita10CommonUtilC1ERKN4Napi12CallbackInfoE
alita.node:_ZN5alita10CommonUtilC2ERKN4Napi12CallbackInfoE
alita.node:_ZN5alita10RecordInfo10SharedCtorEv
alita.node:_ZN5alita10RecordInfo10SharedDtorEv
alita.node:_ZN5alita10RecordInfo16default_instanceEv
alita.node:_ZN5alita10RecordInfo16kDescFieldNumberE
alita.node:_ZN5alita10RecordInfo16kInfoFieldNumberE
alita.node:_ZN5alita10RecordInfo17default_instance_E
alita.node:_ZN5alita10RecordInfo17kTitleFieldNumberE
alita.node:_ZN5alita10RecordInfo20kDataListFieldNumberE
alita.node:_ZN5alita10RecordInfo21CheckTypeAndMergeFromERKN7tencent8protobuf11MessageLiteE
alita.node:_ZN5alita10RecordInfo21InitAsDefaultInstanceEv
alita.node:_ZN5alita10RecordInfo21kFromSceneFieldNumberE
alita.node:_ZN5alita10RecordInfo23kFavUsernameFieldNumberE
alita.node:_ZN5alita10RecordInfo27MergePartialFromCodedStreamEPN7tencent8protobuf2io16CodedInputStreamE
alita.node:_ZN5alita10RecordInfo4SwapEPS0_
alita.node:_ZN5alita10RecordInfo5ClearEv
alita.node:_ZN5alita10RecordInfo8CopyFromERKS0_
alita.node:_ZN5alita10RecordInfo9MergeFromERKS0_
alita.node:_ZN5alita10RecordInfoC1ERKS0_
alita.node:_ZN5alita10RecordInfoC1Ev
alita.node:_ZN5alita10RecordInfoC2ERKS0_
alita.node:_ZN5alita10RecordInfoC2Ev
alita.node:_ZN5alita10RecordInfoD0Ev
alita.node:_ZN5alita10RecordInfoD1Ev
alita.node:_ZN5alita10RecordInfoD2Ev
alita.node:_ZN5alita10SafeDevice10SharedCtorEv
alita.node:_ZN5alita10SafeDevice10SharedDtorEv
alita.node:_ZN5alita10SafeDevice16default_instanceEv
alita.node:_ZN5alita10SafeDevice16kNameFieldNumberE
alita.node:_ZN5alita10SafeDevice16kUuidFieldNumberE
alita.node:_ZN5alita10SafeDevice17default_instance_E
alita.node:_ZN5alita10SafeDevice21CheckTypeAndMergeFromERKN7tencent8protobuf11MessageLiteE
alita.node:_ZN5alita10SafeDevice21InitAsDefaultInstanceEv
alita.node:_ZN5alita10SafeDevice22kCreateTimeFieldNumberE
alita.node:_ZN5alita10SafeDevice22kDeviceTypeFieldNumberE
alita.node:_ZN5alita10SafeDevice27MergePartialFromCodedStreamEPN7tencent8protobuf2io16CodedInputStreamE
alita.node:_ZN5alita10SafeDevice4SwapEPS0_
alita.node:_ZN5alita10SafeDevice5ClearEv
alita.node:_ZN5alita10SafeDevice8CopyFromERKS0_
alita.node:_ZN5alita10SafeDevice9MergeFromERKS0_
alita.node:_ZN5alita10SafeDeviceC1ERKS0_
alita.node:_ZN5alita10SafeDeviceC1Ev
alita.node:_ZN5alita10SafeDeviceC2ERKS0_
alita.node:_ZN5alita10SafeDeviceC2Ev
alita.node:_ZN5alita10SafeDeviceD0Ev
alita.node:_ZN5alita10SafeDeviceD1Ev
alita.node:_ZN5alita10SafeDeviceD2Ev
alita.node:_ZN5alita10StoreEmoji10SharedCtorEv
alita.node:_ZN5alita10StoreEmoji10SharedDtorEv
alita.node:_ZN5alita10StoreEmoji15kMd5FieldNumberE
alita.node:_ZN5alita10StoreEmoji16default_instanceEv
alita.node:_ZN5alita10StoreEmoji16kDescFieldNumberE
alita.node:_ZN5alita10StoreEmoji16kPathFieldNumberE
alita.node:_ZN5alita10StoreEmoji16kTypeFieldNumberE
alita.node:_ZN5alita10StoreEmoji17default_instance_E
alita.node:_ZN5alita10StoreEmoji21CheckTypeAndMergeFromERKN7tencent8protobuf11MessageLiteE
alita.node:_ZN5alita10StoreEmoji21InitAsDefaultInstanceEv
alita.node:_ZN5alita10StoreEmoji21kThumbPathFieldNumberE
alita.node:_ZN5alita10StoreEmoji27MergePartialFromCodedStreamEPN7tencent8protobuf2io16CodedInputStreamE
alita.node:_ZN5alita10StoreEmoji4SwapEPS0_
alita.node:_ZN5alita10StoreEmoji5ClearEv
alita.node:_ZN5alita10StoreEmoji8CopyFromERKS0_
alita.node:_ZN5alita10StoreEmoji9MergeFromERKS0_
alita.node:_ZN5alita10StoreEmojiC1ERKS0_
alita.node:_ZN5alita10StoreEmojiC1Ev
alita.node:_ZN5alita10StoreEmojiC2ERKS0_
alita.node:_ZN5alita10StoreEmojiC2Ev
alita.node:_ZN5alita10StoreEmojiD0Ev
alita.node:_ZN5alita10StoreEmojiD1Ev
alita.node:_ZN5alita10StoreEmojiD2Ev
alita.node:_ZN5alita10UnifyError10SharedCtorEv
alita.node:_ZN5alita10UnifyError10SharedDtorEv
alita.node:_ZN5alita10UnifyError15kUrlFieldNumberE
alita.node:_ZN5alita10UnifyError16default_instanceEv
alita.node:_ZN5alita10UnifyError16kTypeFieldNumberE
alita.node:_ZN5alita10UnifyError17default_instance_E
alita.node:_ZN5alita10UnifyError17kTitleFieldNumberE
alita.node:_ZN5alita10UnifyError18kActionFieldNumberE
alita.node:_ZN5alita10UnifyError19kContentFieldNumberE
alita.node:_ZN5alita10UnifyError21CheckTypeAndMergeFromERKN7tencent8protobuf11MessageLiteE
alita.node:_ZN5alita10UnifyError21InitAsDefaultInstanceEv
alita.node:_ZN5alita10UnifyError21kErrorCodeFieldNumberE
alita.node:_ZN5alita10UnifyError21kErrorTypeFieldNumberE
alita.node:_ZN5alita10UnifyError22kDisplaySecFieldNumberE
alita.node:_ZN5alita10UnifyError27MergePartialFromCodedStreamEPN7tencent8protobuf2io16CodedInputStreamE
alita.node:_ZN5alita10UnifyError4SwapEPS0_
alita.node:_ZN5alita10UnifyError5ClearEv
alita.node:_ZN5alita10UnifyError8CopyFromERKS0_
alita.node:_ZN5alita10UnifyError9MergeFromERKS0_
alita.node:_ZN5alita10UnifyErrorC1ERKS0_
alita.node:_ZN5alita10UnifyErrorC1Ev
alita.node:_ZN5alita10UnifyErrorC2ERKS0_
alita.node:_ZN5alita10UnifyErrorC2Ev
alita.node:_ZN5alita10UnifyErrorD0Ev
alita.node:_ZN5alita10UnifyErrorD1Ev
alita.node:_ZN5alita10UnifyErrorD2Ev
alita.node:_ZN5alita10UrlMessage10SharedCtorEv
alita.node:_ZN5alita10UrlMessage10SharedDtorEv
alita.node:_ZN5alita10UrlMessage15kDesFieldNumberE
alita.node:_ZN5alita10UrlMessage15kUrlFieldNumberE
alita.node:_ZN5alita10UrlMessage16default_instanceEv
alita.node:_ZN5alita10UrlMessage17default_instance_E
alita.node:_ZN5alita10UrlMessage17kTitleFieldNumberE
alita.node:_ZN5alita10UrlMessage18kLowUrlFieldNumberE
alita.node:_ZN5alita10UrlMessage19kContentFieldNumberE
alita.node:_ZN5alita10UrlMessage20kMmReaderFieldNumberE
alita.node:_ZN5alita10UrlMessage20kShowTypeFieldNumberE
alita.node:_ZN5alita10UrlMessage20kThumbUrlFieldNumberE
alita.node:_ZN5alita10UrlMessage21CheckTypeAndMergeFromERKN7tencent8protobuf11MessageLiteE
alita.node:_ZN5alita10UrlMessage21InitAsDefaultInstanceEv
alita.node:_ZN5alita10UrlMessage21kSoundTypeFieldNumberE
alita.node:_ZN5alita10UrlMessage21kThumbPathFieldNumberE
alita.node:_ZN5alita10UrlMessage22kTemplateIdFieldNumberE
alita.node:_ZN5alita10UrlMessage23kContentAttrFieldNumberE
alita.node:_ZN5alita10UrlMessage27MergePartialFromCodedStreamEPN7tencent8protobuf2io16CodedInputStreamE
alita.node:_ZN5alita10UrlMessage4SwapEPS0_
alita.node:_ZN5alita10UrlMessage5ClearEv
alita.node:_ZN5alita10UrlMessage8CopyFromERKS0_
alita.node:_ZN5alita10UrlMessage9MergeFromERKS0_
alita.node:_ZN5alita10UrlMessageC1ERKS0_
alita.node:_ZN5alita10UrlMessageC1Ev
alita.node:_ZN5alita10UrlMessageC2ERKS0_
alita.node:_ZN5alita10UrlMessageC2Ev
alita.node:_ZN5alita10UrlMessageD0Ev
alita.node:_ZN5alita10UrlMessageD1Ev
alita.node:_ZN5alita10UrlMessageD2Ev
alita.node:_ZN5alita10WebUrlItem10SharedCtorEv
alita.node:_ZN5alita10WebUrlItem10SharedDtorEv
alita.node:_ZN5alita10WebUrlItem16default_instanceEv
alita.node:_ZN5alita10WebUrlItem16kDescFieldNumberE
alita.node:_ZN5alita10WebUrlItem16kLinkFieldNumberE
alita.node:_ZN5alita10WebUrlItem17default_instance_E
alita.node:_ZN5alita10WebUrlItem17kTitleFieldNumberE
alita.node:_ZN5alita10WebUrlItem20kThumbUrlFieldNumberE
alita.node:_ZN5alita10WebUrlItem21CheckTypeAndMergeFromERKN7tencent8protobuf11MessageLiteE
alita.node:_ZN5alita10WebUrlItem21InitAsDefaultInstanceEv
alita.node:_ZN5alita10WebUrlItem27MergePartialFromCodedStreamEPN7tencent8protobuf2io16CodedInputStreamE
alita.node:_ZN5alita10WebUrlItem4SwapEPS0_
alita.node:_ZN5alita10WebUrlItem5ClearEv
alita.node:_ZN5alita10WebUrlItem8CopyFromERKS0_
alita.node:_ZN5alita10WebUrlItem9MergeFromERKS0_
alita.node:_ZN5alita10WebUrlItemC1ERKS0_
alita.node:_ZN5alita10WebUrlItemC1Ev
alita.node:_ZN5alita10WebUrlItemC2ERKS0_
alita.node:_ZN5alita10WebUrlItemC2Ev
alita.node:_ZN5alita10WebUrlItemD0Ev
alita.node:_ZN5alita10WebUrlItemD1Ev
alita.node:_ZN5alita10WebUrlItemD2Ev
alita.node:_ZN5alita11Application11SetOnNotifyERKN4Napi12CallbackInfoE
alita.node:_ZN5alita11Application11TriggerSyncERKN4Napi12CallbackInfoE
alita.node:_ZN5alita11Application12IsForegroundERKN4Napi12CallbackInfoE
alita.node:_ZN5alita11Application13GetServerTimeERKN4Napi12CallbackInfoE
alita.node:_ZN5alita11Application13NetworkChangeERKN4Napi12CallbackInfoE
alita.node:_ZN5alita11Application13SetForegroundERKN4Napi12CallbackInfoE
alita.node:_ZN5alita11Application14UploadLogAsyncERKN4Napi12CallbackInfoE
alita.node:_ZN5alita11Application15CleanCacheAsyncERKN4Napi12CallbackInfoE
alita.node:_ZN5alita11Application15GetNetworkStateERKN4Napi12CallbackInfoE
alita.node:_ZN5alita11Application16GetDynamicConfigERKN4Napi12CallbackInfoE
alita.node:_ZN5alita11Application16TriggerHeartbeatERKN4Napi12CallbackInfoE
alita.node:_ZN5alita11Application17GetCacheSizeAsyncERKN4Napi12CallbackInfoE
alita.node:_ZN5alita11Application20EventExecuteCallbackERKN4Napi12CallbackInfoE
alita.node:_ZN5alita11Application4InitEN4Napi3EnvENS1_6ObjectE
alita.node:_ZN5alita11Application7GetInfoERKN4Napi12CallbackInfoE
alita.node:_ZN5alita11ApplicationC1ERKN4Napi12CallbackInfoE
alita.node:_ZN5alita11ApplicationC2ERKN4Napi12CallbackInfoE
alita.node:_ZN5alita11BaseRequest10SharedCtorEv
alita.node:_ZN5alita11BaseRequest10SharedDtorEv
alita.node:_ZN5alita11BaseRequest15kUinFieldNumberE
alita.node:_ZN5alita11BaseRequest16default_instanceEv
alita.node:_ZN5alita11BaseRequest17default_instance_E
alita.node:_ZN5alita11BaseRequest17kSceneFieldNumberE
alita.node:_ZN5alita11BaseRequest20kDeviceIDFieldNumberE
alita.node:_ZN5alita11BaseRequest21CheckTypeAndMergeFromERKN7tencent8protobuf11MessageLiteE
alita.node:_ZN5alita11BaseRequest21InitAsDefaultInstanceEv
alita.node:_ZN5alita11BaseRequest22kDeviceTypeFieldNumberE
alita.node:_ZN5alita11BaseRequest22kSessionKeyFieldNumberE
alita.node:_ZN5alita11BaseRequest25kClientVersionFieldNumberE
alita.node:_ZN5alita11BaseRequest27MergePartialFromCodedStreamEPN7tencent8protobuf2io16CodedInputStreamE
alita.node:_ZN5alita11BaseRequest4SwapEPS0_
alita.node:_ZN5alita11BaseRequest5ClearEv
alita.node:_ZN5alita11BaseRequest8CopyFromERKS0_
alita.node:_ZN5alita11BaseRequest9MergeFromERKS0_
alita.node:_ZN5alita11BaseRequestC1ERKS0_
alita.node:_ZN5alita11BaseRequestC1Ev
alita.node:_ZN5alita11BaseRequestC2ERKS0_
alita.node:_ZN5alita11BaseRequestC2Ev
alita.node:_ZN5alita11BaseRequestD0Ev
alita.node:_ZN5alita11BaseRequestD1Ev
alita.node:_ZN5alita11BaseRequestD2Ev
alita.node:_ZN5alita11CacheConfig10SharedCtorEv
alita.node:_ZN5alita11CacheConfig10SharedDtorEv
alita.node:_ZN5alita11CacheConfig16default_instanceEv
alita.node:_ZN5alita11CacheConfig17default_instance_E
alita.node:_ZN5alita11CacheConfig21CheckTypeAndMergeFromERKN7tencent8protobuf11MessageLiteE
alita.node:_ZN5alita11CacheConfig21InitAsDefaultInstanceEv
alita.node:_ZN5alita11CacheConfig21kAutoCleanFieldNumberE
alita.node:_ZN5alita11CacheConfig27MergePartialFromCodedStreamEPN7tencent8protobuf2io16CodedInputStreamE
alita.node:_ZN5alita11CacheConfig29kAutoCleanIntervalFieldNumberE
alita.node:_ZN5alita11CacheConfig35kEmojiCacheRetentionTimeFieldNumberE
alita.node:_ZN5alita11CacheConfig37kMessageCacheRetentionTimeFieldNumberE
alita.node:_ZN5alita11CacheConfig4SwapEPS0_
alita.node:_ZN5alita11CacheConfig5ClearEv
alita.node:_ZN5alita11CacheConfig8CopyFromERKS0_
alita.node:_ZN5alita11CacheConfig9MergeFromERKS0_
alita.node:_ZN5alita11CacheConfigC1ERKS0_
alita.node:_ZN5alita11CacheConfigC1Ev
alita.node:_ZN5alita11CacheConfigC2ERKS0_
alita.node:_ZN5alita11CacheConfigC2Ev
alita.node:_ZN5alita11CacheConfigD0Ev
alita.node:_ZN5alita11CacheConfigD1Ev
alita.node:_ZN5alita11CacheConfigD2Ev
alita.node:_ZN5alita11CallRequest10SharedCtorEv
alita.node:_ZN5alita11CallRequest10SharedDtorEv
alita.node:_ZN5alita11CallRequest16default_instanceEv
alita.node:_ZN5alita11CallRequest17default_instance_E
alita.node:_ZN5alita11CallRequest18kCallToFieldNumberE
alita.node:_ZN5alita11CallRequest20kCallFromFieldNumberE
alita.node:_ZN5alita11CallRequest20kRoomTypeFieldNumberE
alita.node:_ZN5alita11CallRequest21CheckTypeAndMergeFromERKN7tencent8protobuf11MessageLiteE
alita.node:_ZN5alita11CallRequest21InitAsDefaultInstanceEv
alita.node:_ZN5alita11CallRequest27MergePartialFromCodedStreamEPN7tencent8protobuf2io16CodedInputStreamE
alita.node:_ZN5alita11CallRequest4SwapEPS0_
alita.node:_ZN5alita11CallRequest5ClearEv
alita.node:_ZN5alita11CallRequest8CopyFromERKS0_
alita.node:_ZN5alita11CallRequest9MergeFromERKS0_
alita.node:_ZN5alita11CallRequestC1ERKS0_
alita.node:_ZN5alita11CallRequestC1Ev
alita.node:_ZN5alita11CallRequestC2ERKS0_
alita.node:_ZN5alita11CallRequestC2Ev
alita.node:_ZN5alita11CallRequestD0Ev
alita.node:_ZN5alita11CallRequestD1Ev
alita.node:_ZN5alita11CallRequestD2Ev
alita.node:_ZN5alita11CdnFileInfo10SharedCtorEv
alita.node:_ZN5alita11CdnFileInfo10SharedDtorEv
alita.node:_ZN5alita11CdnFileInfo16default_instanceEv
alita.node:_ZN5alita11CdnFileInfo17default_instance_E
alita.node:_ZN5alita11CdnFileInfo18kAesKeyFieldNumberE
alita.node:_ZN5alita11CdnFileInfo19kFileUrlFieldNumberE
alita.node:_ZN5alita11CdnFileInfo20kFilePathFieldNumberE
alita.node:_ZN5alita11CdnFileInfo20kFileTypeFieldNumberE
alita.node:_ZN5alita11CdnFileInfo20kMsgSvrIdFieldNumberE
alita.node:_ZN5alita11CdnFileInfo21CheckTypeAndMergeFromERKN7tencent8protobuf11MessageLiteE
alita.node:_ZN5alita11CdnFileInfo21InitAsDefaultInstanceEv
alita.node:_ZN5alita11CdnFileInfo22kMsgLocalIdFieldNumberE
alita.node:_ZN5alita11CdnFileInfo22kToUsernameFieldNumberE
alita.node:_ZN5alita11CdnFileInfo23kTotalLengthFieldNumberE
alita.node:_ZN5alita11CdnFileInfo24kFromUsernameFieldNumberE
alita.node:_ZN5alita11CdnFileInfo27MergePartialFromCodedStreamEPN7tencent8protobuf2io16CodedInputStreamE
alita.node:_ZN5alita11CdnFileInfo4SwapEPS0_
alita.node:_ZN5alita11CdnFileInfo5ClearEv
alita.node:_ZN5alita11CdnFileInfo8CopyFromERKS0_
alita.node:_ZN5alita11CdnFileInfo9MergeFromERKS0_
alita.node:_ZN5alita11CdnFileInfoC1ERKS0_
alita.node:_ZN5alita11CdnFileInfoC1Ev
alita.node:_ZN5alita11CdnFileInfoC2ERKS0_
alita.node:_ZN5alita11CdnFileInfoC2Ev
alita.node:_ZN5alita11CdnFileInfoD0Ev
alita.node:_ZN5alita11CdnFileInfoD1Ev
alita.node:_ZN5alita11CdnFileInfoD2Ev
alita.node:_ZN5alita11ContactList10SharedCtorEv
alita.node:_ZN5alita11ContactList10SharedDtorEv
alita.node:_ZN5alita11ContactList16default_instanceEv
alita.node:_ZN5alita11ContactList17default_instance_E
alita.node:_ZN5alita11ContactList19kContactFieldNumberE
alita.node:_ZN5alita11ContactList21CheckTypeAndMergeFromERKN7tencent8protobuf11MessageLiteE
alita.node:_ZN5alita11ContactList21InitAsDefaultInstanceEv
alita.node:_ZN5alita11ContactList27MergePartialFromCodedStreamEPN7tencent8protobuf2io16CodedInputStreamE
alita.node:_ZN5alita11ContactList4SwapEPS0_
alita.node:_ZN5alita11ContactList5ClearEv
alita.node:_ZN5alita11ContactList8CopyFromERKS0_
alita.node:_ZN5alita11ContactList9MergeFromERKS0_
alita.node:_ZN5alita11ContactListC1ERKS0_
alita.node:_ZN5alita11ContactListC1Ev
alita.node:_ZN5alita11ContactListC2ERKS0_
alita.node:_ZN5alita11ContactListC2Ev
alita.node:_ZN5alita11ContactListD0Ev
alita.node:_ZN5alita11ContactListD1Ev
alita.node:_ZN5alita11ContactListD2Ev
alita.node:_ZN5alita11CustomEmoji10SharedCtorEv
alita.node:_ZN5alita11CustomEmoji10SharedDtorEv
alita.node:_ZN5alita11CustomEmoji15kMd5FieldNumberE
alita.node:_ZN5alita11CustomEmoji16default_instanceEv
alita.node:_ZN5alita11CustomEmoji16kPathFieldNumberE
alita.node:_ZN5alita11CustomEmoji16kTypeFieldNumberE
alita.node:_ZN5alita11CustomEmoji17default_instance_E
alita.node:_ZN5alita11CustomEmoji21CheckTypeAndMergeFromERKN7tencent8protobuf11MessageLiteE
alita.node:_ZN5alita11CustomEmoji21InitAsDefaultInstanceEv
alita.node:_ZN5alita11CustomEmoji21kProductIdFieldNumberE
alita.node:_ZN5alita11CustomEmoji21kThumbPathFieldNumberE
alita.node:_ZN5alita11CustomEmoji27MergePartialFromCodedStreamEPN7tencent8protobuf2io16CodedInputStreamE
alita.node:_ZN5alita11CustomEmoji4SwapEPS0_
alita.node:_ZN5alita11CustomEmoji5ClearEv
alita.node:_ZN5alita11CustomEmoji8CopyFromERKS0_
alita.node:_ZN5alita11CustomEmoji9MergeFromERKS0_
alita.node:_ZN5alita11CustomEmojiC1ERKS0_
alita.node:_ZN5alita11CustomEmojiC1Ev
alita.node:_ZN5alita11CustomEmojiC2ERKS0_
alita.node:_ZN5alita11CustomEmojiC2Ev
alita.node:_ZN5alita11CustomEmojiD0Ev
alita.node:_ZN5alita11CustomEmojiD1Ev
alita.node:_ZN5alita11CustomEmojiD2Ev
alita.node:_ZN5alita11EmojiConfig10SharedCtorEv
alita.node:_ZN5alita11EmojiConfig10SharedDtorEv
alita.node:_ZN5alita11EmojiConfig16default_instanceEv
alita.node:_ZN5alita11EmojiConfig17default_instance_E
alita.node:_ZN5alita11EmojiConfig21CheckTypeAndMergeFromERKN7tencent8protobuf11MessageLiteE
alita.node:_ZN5alita11EmojiConfig21InitAsDefaultInstanceEv
alita.node:_ZN5alita11EmojiConfig23kDisableFlagFieldNumberE
alita.node:_ZN5alita11EmojiConfig27MergePartialFromCodedStreamEPN7tencent8protobuf2io16CodedInputStreamE
alita.node:_ZN5alita11EmojiConfig30kBuiltinEomjiConfigFieldNumberE
alita.node:_ZN5alita11EmojiConfig37kIsAutoDownloadCustomEmojiFieldNumberE
alita.node:_ZN5alita11EmojiConfig4SwapEPS0_
alita.node:_ZN5alita11EmojiConfig5ClearEv
alita.node:_ZN5alita11EmojiConfig8CopyFromERKS0_
alita.node:_ZN5alita11EmojiConfig9MergeFromERKS0_
alita.node:_ZN5alita11EmojiConfigC1ERKS0_
alita.node:_ZN5alita11EmojiConfigC1Ev
alita.node:_ZN5alita11EmojiConfigC2ERKS0_
alita.node:_ZN5alita11EmojiConfigC2Ev
alita.node:_ZN5alita11EmojiConfigD0Ev
alita.node:_ZN5alita11EmojiConfigD1Ev
alita.node:_ZN5alita11EmojiConfigD2Ev
alita.node:_ZN5alita11FileMessage10SharedCtorEv
alita.node:_ZN5alita11FileMessage10SharedDtorEv
alita.node:_ZN5alita11FileMessage15kExtFieldNumberE
alita.node:_ZN5alita11FileMessage15kMd5FieldNumberE
alita.node:_ZN5alita11FileMessage16default_instanceEv
alita.node:_ZN5alita11FileMessage16kPathFieldNumberE
alita.node:_ZN5alita11FileMessage16kSizeFieldNumberE
alita.node:_ZN5alita11FileMessage17default_instance_E
alita.node:_ZN5alita11FileMessage17kTitleFieldNumberE
alita.node:_ZN5alita11FileMessage21CheckTypeAndMergeFromERKN7tencent8protobuf11MessageLiteE
alita.node:_ZN5alita11FileMessage21InitAsDefaultInstanceEv
alita.node:_ZN5alita11FileMessage27MergePartialFromCodedStreamEPN7tencent8protobuf2io16CodedInputStreamE
alita.node:_ZN5alita11FileMessage4SwapEPS0_
alita.node:_ZN5alita11FileMessage5ClearEv
alita.node:_ZN5alita11FileMessage8CopyFromERKS0_
alita.node:_ZN5alita11FileMessage9MergeFromERKS0_
alita.node:_ZN5alita11FileMessageC1ERKS0_
alita.node:_ZN5alita11FileMessageC1Ev
alita.node:_ZN5alita11FileMessageC2ERKS0_
alita.node:_ZN5alita11FileMessageC2Ev
alita.node:_ZN5alita11FileMessageD0Ev
alita.node:_ZN5alita11FileMessageD1Ev
alita.node:_ZN5alita11FileMessageD2Ev
alita.node:_ZN5alita11ILinkConfig10SharedCtorEv
alita.node:_ZN5alita11ILinkConfig10SharedDtorEv
alita.node:_ZN5alita11ILinkConfig16default_instanceEv
alita.node:_ZN5alita11ILinkConfig17default_instance_E
alita.node:_ZN5alita11ILinkConfig20kDeviceSnFieldNumberE
alita.node:_ZN5alita11ILinkConfig21CheckTypeAndMergeFromERKN7tencent8protobuf11MessageLiteE
alita.node:_ZN5alita11ILinkConfig21InitAsDefaultInstanceEv
alita.node:_ZN5alita11ILinkConfig26kIlinkProductIdFieldNumberE
alita.node:_ZN5alita11ILinkConfig27MergePartialFromCodedStreamEPN7tencent8protobuf2io16CodedInputStreamE
alita.node:_ZN5alita11ILinkConfig27kDeviceSignatureFieldNumberE
alita.node:_ZN5alita11ILinkConfig28kPublicKeyVersionFieldNumberE
alita.node:_ZN5alita11ILinkConfig4SwapEPS0_
alita.node:_ZN5alita11ILinkConfig5ClearEv
alita.node:_ZN5alita11ILinkConfig8CopyFromERKS0_
alita.node:_ZN5alita11ILinkConfig9MergeFromERKS0_
alita.node:_ZN5alita11ILinkConfigC1ERKS0_
alita.node:_ZN5alita11ILinkConfigC1Ev
alita.node:_ZN5alita11ILinkConfigC2ERKS0_
alita.node:_ZN5alita11ILinkConfigC2Ev
alita.node:_ZN5alita11ILinkConfigD0Ev
alita.node:_ZN5alita11ILinkConfigD1Ev
alita.node:_ZN5alita11ILinkConfigD2Ev
alita.node:_ZN5alita11InitRequest10SharedCtorEv
alita.node:_ZN5alita11InitRequest10SharedDtorEv
alita.node:_ZN5alita11InitRequest16default_instanceEv
alita.node:_ZN5alita11InitRequest17default_instance_E
alita.node:_ZN5alita11InitRequest18kConfigFieldNumberE
alita.node:_ZN5alita11InitRequest21CheckTypeAndMergeFromERKN7tencent8protobuf11MessageLiteE
alita.node:_ZN5alita11InitRequest21InitAsDefaultInstanceEv
alita.node:_ZN5alita11InitRequest27MergePartialFromCodedStreamEPN7tencent8protobuf2io16CodedInputStreamE
alita.node:_ZN5alita11InitRequest4SwapEPS0_
alita.node:_ZN5alita11InitRequest5ClearEv
alita.node:_ZN5alita11InitRequest8CopyFromERKS0_
alita.node:_ZN5alita11InitRequest9MergeFromERKS0_
alita.node:_ZN5alita11InitRequestC1ERKS0_
alita.node:_ZN5alita11InitRequestC1Ev
alita.node:_ZN5alita11InitRequestC2ERKS0_
alita.node:_ZN5alita11InitRequestC2Ev
alita.node:_ZN5alita11InitRequestD0Ev
alita.node:_ZN5alita11InitRequestD1Ev
alita.node:_ZN5alita11InitRequestD2Ev
alita.node:_ZN5alita11MessageList10SharedCtorEv
alita.node:_ZN5alita11MessageList10SharedDtorEv
alita.node:_ZN5alita11MessageList15kMsgFieldNumberE
alita.node:_ZN5alita11MessageList16default_instanceEv
alita.node:_ZN5alita11MessageList17default_instance_E
alita.node:_ZN5alita11MessageList21CheckTypeAndMergeFromERKN7tencent8protobuf11MessageLiteE
alita.node:_ZN5alita11MessageList21InitAsDefaultInstanceEv
alita.node:_ZN5alita11MessageList27MergePartialFromCodedStreamEPN7tencent8protobuf2io16CodedInputStreamE
alita.node:_ZN5alita11MessageList4SwapEPS0_
alita.node:_ZN5alita11MessageList5ClearEv
alita.node:_ZN5alita11MessageList8CopyFromERKS0_
alita.node:_ZN5alita11MessageList9MergeFromERKS0_
alita.node:_ZN5alita11MessageListC1ERKS0_
alita.node:_ZN5alita11MessageListC1Ev
alita.node:_ZN5alita11MessageListC2ERKS0_
alita.node:_ZN5alita11MessageListC2Ev
alita.node:_ZN5alita11MessageListD0Ev
alita.node:_ZN5alita11MessageListD1Ev
alita.node:_ZN5alita11MessageListD2Ev
alita.node:_ZN5alita11ModUserInfo10SharedCtorEv
alita.node:_ZN5alita11ModUserInfo10SharedDtorEv
alita.node:_ZN5alita11ModUserInfo15kSexFieldNumberE
alita.node:_ZN5alita11ModUserInfo16default_instanceEv
alita.node:_ZN5alita11ModUserInfo16kCityFieldNumberE
alita.node:_ZN5alita11ModUserInfo17default_instance_E
alita.node:_ZN5alita11ModUserInfo17kAliasFieldNumberE
alita.node:_ZN5alita11ModUserInfo17kLevelFieldNumberE
alita.node:_ZN5alita11ModUserInfo17kPointFieldNumberE
alita.node:_ZN5alita11ModUserInfo17kWeiboFieldNumberE
alita.node:_ZN5alita11ModUserInfo18kImgBufFieldNumberE
alita.node:_ZN5alita11ModUserInfo18kImgLenFieldNumberE
alita.node:_ZN5alita11ModUserInfo18kStatusFieldNumberE
alita.node:_ZN5alita11ModUserInfo19kBindUinFieldNumberE
alita.node:_ZN5alita11ModUserInfo19kBitFlagFieldNumberE
alita.node:_ZN5alita11ModUserInfo19kCountryFieldNumberE
alita.node:_ZN5alita11ModUserInfo19kFBTokenFieldNumberE
alita.node:_ZN5alita11ModUserInfo20kFBUserIDFieldNumberE
alita.node:_ZN5alita11ModUserInfo20kNickNameFieldNumberE
alita.node:_ZN5alita11ModUserInfo20kProvinceFieldNumberE
alita.node:_ZN5alita11ModUserInfo20kUserNameFieldNumberE
alita.node:_ZN5alita11ModUserInfo21CheckTypeAndMergeFromERKN7tencent8protobuf11MessageLiteE
alita.node:_ZN5alita11ModUserInfo21InitAsDefaultInstanceEv
alita.node:_ZN5alita11ModUserInfo21kAlbumFlagFieldNumberE
alita.node:_ZN5alita11ModUserInfo21kBindEmailFieldNumberE
alita.node:_ZN5alita11ModUserInfo21kGmailListFieldNumberE
alita.node:_ZN5alita11ModUserInfo21kSignatureFieldNumberE
alita.node:_ZN5alita11ModUserInfo21kWeiboFlagFieldNumberE
alita.node:_ZN5alita11ModUserInfo22kAlbumStyleFieldNumberE
alita.node:_ZN5alita11ModUserInfo22kBindMobileFieldNumberE
alita.node:_ZN5alita11ModUserInfo22kExperienceFieldNumberE
alita.node:_ZN5alita11ModUserInfo22kFBUserNameFieldNumberE
alita.node:_ZN5alita11ModUserInfo22kPluginFlagFieldNumberE
alita.node:_ZN5alita11ModUserInfo22kVerifyFlagFieldNumberE
alita.node:_ZN5alita11ModUserInfo22kVerifyInfoFieldNumberE
alita.node:_ZN5alita11ModUserInfo23kLevelLowExpFieldNumberE
alita.node:_ZN5alita11ModUserInfo24kAlbumBGImgIDFieldNumberE
alita.node:_ZN5alita11ModUserInfo24kFaceBookFlagFieldNumberE
alita.node:_ZN5alita11ModUserInfo24kLevelHighExpFieldNumberE
alita.node:_ZN5alita11ModUserInfo24kPersonalCardFieldNumberE
alita.node:_ZN5alita11ModUserInfo24kPluginSwitchFieldNumberE
alita.node:_ZN5alita11ModUserInfo25kWeiboNicknameFieldNumberE
alita.node:_ZN5alita11ModUserInfo26kDisturbSettingFieldNumberE
alita.node:_ZN5alita11ModUserInfo26kTXNewsCategoryFieldNumberE
alita.node:_ZN5alita11ModUserInfo27MergePartialFromCodedStreamEPN7tencent8protobuf2io16CodedInputStreamE
alita.node:_ZN5alita11ModUserInfo4SwapEPS0_
alita.node:_ZN5alita11ModUserInfo5ClearEv
alita.node:_ZN5alita11ModUserInfo8CopyFromERKS0_
alita.node:_ZN5alita11ModUserInfo9MergeFromERKS0_
alita.node:_ZN5alita11ModUserInfoC1ERKS0_
alita.node:_ZN5alita11ModUserInfoC1Ev
alita.node:_ZN5alita11ModUserInfoC2ERKS0_
alita.node:_ZN5alita11ModUserInfoC2Ev
alita.node:_ZN5alita11ModUserInfoD0Ev
alita.node:_ZN5alita11ModUserInfoD1Ev
alita.node:_ZN5alita11ModUserInfoD2Ev
alita.node:_ZN5alita11ProductItem10SharedCtorEv
alita.node:_ZN5alita11ProductItem10SharedDtorEv
alita.node:_ZN5alita11ProductItem16default_instanceEv
alita.node:_ZN5alita11ProductItem16kDescFieldNumberE
alita.node:_ZN5alita11ProductItem17default_instance_E
alita.node:_ZN5alita11ProductItem17kTitleFieldNumberE
alita.node:_ZN5alita11ProductItem20kThumbUrlFieldNumberE
alita.node:_ZN5alita11ProductItem21CheckTypeAndMergeFromERKN7tencent8protobuf11MessageLiteE
alita.node:_ZN5alita11ProductItem21InitAsDefaultInstanceEv
alita.node:_ZN5alita11ProductItem22kProductUrlFieldNumberE
alita.node:_ZN5alita11ProductItem22kSellerNameFieldNumberE
alita.node:_ZN5alita11ProductItem23kProductInfoFieldNumberE
alita.node:_ZN5alita11ProductItem27MergePartialFromCodedStreamEPN7tencent8protobuf2io16CodedInputStreamE
alita.node:_ZN5alita11ProductItem4SwapEPS0_
alita.node:_ZN5alita11ProductItem5ClearEv
alita.node:_ZN5alita11ProductItem8CopyFromERKS0_
alita.node:_ZN5alita11ProductItem9MergeFromERKS0_
alita.node:_ZN5alita11ProductItemC1ERKS0_
alita.node:_ZN5alita11ProductItemC1Ev
alita.node:_ZN5alita11ProductItemC2ERKS0_
alita.node:_ZN5alita11ProductItemC2Ev
alita.node:_ZN5alita11ProductItemD0Ev
alita.node:_ZN5alita11ProductItemD1Ev
alita.node:_ZN5alita11ProductItemD2Ev
alita.node:_ZN5alita11SendCommand10SharedCtorEv
alita.node:_ZN5alita11SendCommand10SharedDtorEv
alita.node:_ZN5alita11SendCommand15kCmdFieldNumberE
alita.node:_ZN5alita11SendCommand16default_instanceEv
alita.node:_ZN5alita11SendCommand17default_instance_E
alita.node:_ZN5alita11SendCommand21CheckTypeAndMergeFromERKN7tencent8protobuf11MessageLiteE
alita.node:_ZN5alita11SendCommand21InitAsDefaultInstanceEv
alita.node:_ZN5alita11SendCommand25kHandoffMasterFieldNumberE
alita.node:_ZN5alita11SendCommand27MergePartialFromCodedStreamEPN7tencent8protobuf2io16CodedInputStreamE
alita.node:_ZN5alita11SendCommand4SwapEPS0_
alita.node:_ZN5alita11SendCommand5ClearEv
alita.node:_ZN5alita11SendCommand8CopyFromERKS0_
alita.node:_ZN5alita11SendCommand9MergeFromERKS0_
alita.node:_ZN5alita11SendCommandC1ERKS0_
alita.node:_ZN5alita11SendCommandC1Ev
alita.node:_ZN5alita11SendCommandC2ERKS0_
alita.node:_ZN5alita11SendCommandC2Ev
alita.node:_ZN5alita11SendCommandD0Ev
alita.node:_ZN5alita11SendCommandD1Ev
alita.node:_ZN5alita11SendCommandD2Ev
alita.node:_ZN5alita11SnsUserInfo10SharedCtorEv
alita.node:_ZN5alita11SnsUserInfo10SharedDtorEv
alita.node:_ZN5alita11SnsUserInfo16default_instanceEv
alita.node:_ZN5alita11SnsUserInfo17default_instance_E
alita.node:_ZN5alita11SnsUserInfo19kSnsFlagFieldNumberE
alita.node:_ZN5alita11SnsUserInfo21CheckTypeAndMergeFromERKN7tencent8protobuf11MessageLiteE
alita.node:_ZN5alita11SnsUserInfo21InitAsDefaultInstanceEv
alita.node:_ZN5alita11SnsUserInfo21kSnsFlagExFieldNumberE
alita.node:_ZN5alita11SnsUserInfo22kSnsBGImgIDFieldNumberE
alita.node:_ZN5alita11SnsUserInfo25kSnsBGObjectIDFieldNumberE
alita.node:_ZN5alita11SnsUserInfo27MergePartialFromCodedStreamEPN7tencent8protobuf2io16CodedInputStreamE
alita.node:_ZN5alita11SnsUserInfo4SwapEPS0_
alita.node:_ZN5alita11SnsUserInfo5ClearEv
alita.node:_ZN5alita11SnsUserInfo8CopyFromERKS0_
alita.node:_ZN5alita11SnsUserInfo9MergeFromERKS0_
alita.node:_ZN5alita11SnsUserInfoC1ERKS0_
alita.node:_ZN5alita11SnsUserInfoC1Ev
alita.node:_ZN5alita11SnsUserInfoC2ERKS0_
alita.node:_ZN5alita11SnsUserInfoC2Ev
alita.node:_ZN5alita11SnsUserInfoD0Ev
alita.node:_ZN5alita11SnsUserInfoD1Ev
alita.node:_ZN5alita11SnsUserInfoD2Ev
alita.node:_ZN5alita11StartConfig10SharedCtorEv
alita.node:_ZN5alita11StartConfig10SharedDtorEv
alita.node:_ZN5alita11StartConfig16default_instanceEv
alita.node:_ZN5alita11StartConfig17default_instance_E
alita.node:_ZN5alita11StartConfig19kDebugIpFieldNumberE
alita.node:_ZN5alita11StartConfig19kSdkPathFieldNumberE
alita.node:_ZN5alita11StartConfig20kDeviceIdFieldNumberE
alita.node:_ZN5alita11StartConfig21CheckTypeAndMergeFromERKN7tencent8protobuf11MessageLiteE
alita.node:_ZN5alita11StartConfig21InitAsDefaultInstanceEv
alita.node:_ZN5alita11StartConfig22kDeviceNameFieldNumberE
alita.node:_ZN5alita11StartConfig22kDeviceTypeFieldNumberE
alita.node:_ZN5alita11StartConfig23kCacheConfigFieldNumberE
alita.node:_ZN5alita11StartConfig23kEmojiConfigFieldNumberE
alita.node:_ZN5alita11StartConfig23kIlinkConfigFieldNumberE
alita.node:_ZN5alita11StartConfig24kAutoDownloadFieldNumberE
alita.node:_ZN5alita11StartConfig24kDeviceTypeIdFieldNumberE
alita.node:_ZN5alita11StartConfig25kClientVersionFieldNumberE
alita.node:_ZN5alita11StartConfig25kContactConfigFieldNumberE
alita.node:_ZN5alita11StartConfig26kChatroomConfigFieldNumberE
alita.node:_ZN5alita11StartConfig26kSecurityConfigFieldNumberE
alita.node:_ZN5alita11StartConfig27MergePartialFromCodedStreamEPN7tencent8protobuf2io16CodedInputStreamE
alita.node:_ZN5alita11StartConfig29kEnvironmentConfigFieldNumberE
alita.node:_ZN5alita11StartConfig30kConversationConfigFieldNumberE
alita.node:_ZN5alita11StartConfig4SwapEPS0_
alita.node:_ZN5alita11StartConfig5ClearEv
alita.node:_ZN5alita11StartConfig8CopyFromERKS0_
alita.node:_ZN5alita11StartConfig9MergeFromERKS0_
alita.node:_ZN5alita11StartConfigC1ERKS0_
alita.node:_ZN5alita11StartConfigC1Ev
alita.node:_ZN5alita11StartConfigC2ERKS0_
alita.node:_ZN5alita11StartConfigC2Ev
alita.node:_ZN5alita11StartConfigD0Ev
alita.node:_ZN5alita11StartConfigD1Ev
alita.node:_ZN5alita11StartConfigD2Ev
alita.node:_ZN5alita11TaskManager10CancelTaskERKN4Napi12CallbackInfoE
alita.node:_ZN5alita11TaskManager10CreateTaskERKN4Napi12CallbackInfoE
alita.node:_ZN5alita11TaskManager4InitEN4Napi3EnvENS1_6ObjectE
alita.node:_ZN5alita11TaskManagerC1ERKN4Napi12CallbackInfoE
alita.node:_ZN5alita11TaskManagerC2ERKN4Napi12CallbackInfoE
alita.node:_ZN5alita11UserInfoExt10SharedCtorEv
alita.node:_ZN5alita11UserInfoExt10SharedDtorEv
alita.node:_ZN5alita11UserInfoExt16default_instanceEv
alita.node:_ZN5alita11UserInfoExt17default_instance_E
alita.node:_ZN5alita11UserInfoExt17kBBPINFieldNumberE
alita.node:_ZN5alita11UserInfoExt18kBBPPIDFieldNumberE
alita.node:_ZN5alita11UserInfoExt18kExtXmlFieldNumberE
alita.node:_ZN5alita11UserInfoExt18kKFInfoFieldNumberE
alita.node:_ZN5alita11UserInfoExt20kRealNameFieldNumberE
alita.node:_ZN5alita11UserInfoExt21CheckTypeAndMergeFromERKN7tencent8protobuf11MessageLiteE
alita.node:_ZN5alita11UserInfoExt21InitAsDefaultInstanceEv
alita.node:_ZN5alita11UserInfoExt21kIDCardNumFieldNumberE
alita.node:_ZN5alita11UserInfoExt22kRegCountryFieldNumberE
alita.node:_ZN5alita11UserInfoExt22kSafeDeviceFieldNumberE
alita.node:_ZN5alita11UserInfoExt22kSafeMobileFieldNumberE
alita.node:_ZN5alita11UserInfoExt23kBBMNickNameFieldNumberE
alita.node:_ZN5alita11UserInfoExt23kMyBrandListFieldNumberE
alita.node:_ZN5alita11UserInfoExt23kSnsUserInfoFieldNumberE
alita.node:_ZN5alita11UserInfoExt23kWeiDianInfoFieldNumberE
alita.node:_ZN5alita11UserInfoExt24kMainAcctTypeFieldNumberE
alita.node:_ZN5alita11UserInfoExt24kMsgPushSoundFieldNumberE
alita.node:_ZN5alita11UserInfoExt25kBigHeadImgUrlFieldNumberE
alita.node:_ZN5alita11UserInfoExt25kGrayscaleFlagFieldNumberE
alita.node:_ZN5alita11UserInfoExt25kPayWalletTypeFieldNumberE
alita.node:_ZN5alita11UserInfoExt25kVoipPushSoundFieldNumberE
alita.node:_ZN5alita11UserInfoExt26kSafeDeviceListFieldNumberE
alita.node:_ZN5alita11UserInfoExt27MergePartialFromCodedStreamEPN7tencent8protobuf2io16CodedInputStreamE
alita.node:_ZN5alita11UserInfoExt27kBigChatRoomSizeFieldNumberE
alita.node:_ZN5alita11UserInfoExt27kPatternLockInfoFieldNumberE
alita.node:_ZN5alita11UserInfoExt27kSmallHeadImgUrlFieldNumberE
alita.node:_ZN5alita11UserInfoExt28kBigChatRoomQuotaFieldNumberE
alita.node:_ZN5alita11UserInfoExt28kSecurityDeviceIdFieldNumberE
alita.node:_ZN5alita11UserInfoExt29kBigChatRoomInviteFieldNumberE
alita.node:_ZN5alita11UserInfoExt29kGoogleContactNameFieldNumberE
alita.node:_ZN5alita11UserInfoExt31kLinkedinContactItemFieldNumberE
alita.node:_ZN5alita11UserInfoExt4SwapEPS0_
alita.node:_ZN5alita11UserInfoExt5ClearEv
alita.node:_ZN5alita11UserInfoExt8CopyFromERKS0_
alita.node:_ZN5alita11UserInfoExt9MergeFromERKS0_
alita.node:_ZN5alita11UserInfoExtC1ERKS0_
alita.node:_ZN5alita11UserInfoExtC1Ev
alita.node:_ZN5alita11UserInfoExtC2ERKS0_
alita.node:_ZN5alita11UserInfoExtC2Ev
alita.node:_ZN5alita11UserInfoExtD0Ev
alita.node:_ZN5alita11UserInfoExtD1Ev
alita.node:_ZN5alita11UserInfoExtD2Ev
alita.node:_ZN5alita11UserManager10DeleteUserERKN4Napi12CallbackInfoE
alita.node:_ZN5alita11UserManager11GetUserListERKN4Napi12CallbackInfoE
alita.node:_ZN5alita11UserManager11SetOnNotifyERKN4Napi12CallbackInfoE
alita.node:_ZN5alita11UserManager13GetRecentUserERKN4Napi12CallbackInfoE
alita.node:_ZN5alita11UserManager20EventExecuteCallbackERKN4Napi12CallbackInfoE
alita.node:_ZN5alita11UserManager22GetLoggedInUserProfileERKN4Napi12CallbackInfoE
alita.node:_ZN5alita11UserManager26GetLoggedInUserQrCodeAsyncERKN4Napi12CallbackInfoE
alita.node:_ZN5alita11UserManager29UpdateLoggedInUserAvatarAsyncERKN4Napi12CallbackInfoE
alita.node:_ZN5alita11UserManager30UpdateLoggedInUserProfileAsyncERKN4Napi12CallbackInfoE
alita.node:_ZN5alita11UserManager4InitEN4Napi3EnvENS1_6ObjectE
alita.node:_ZN5alita11UserManagerC1ERKN4Napi12CallbackInfoE
alita.node:_ZN5alita11UserManagerC2ERKN4Napi12CallbackInfoE
alita.node:_ZN5alita11UserProfile10SharedCtorEv
alita.node:_ZN5alita11UserProfile10SharedDtorEv
alita.node:_ZN5alita11UserProfile16default_instanceEv
alita.node:_ZN5alita11UserProfile17default_instance_E
alita.node:_ZN5alita11UserProfile20kUserInfoFieldNumberE
alita.node:_ZN5alita11UserProfile21CheckTypeAndMergeFromERKN7tencent8protobuf11MessageLiteE
alita.node:_ZN5alita11UserProfile21InitAsDefaultInstanceEv
alita.node:_ZN5alita11UserProfile23kUserInfoExtFieldNumberE
alita.node:_ZN5alita11UserProfile27MergePartialFromCodedStreamEPN7tencent8protobuf2io16CodedInputStreamE
alita.node:_ZN5alita11UserProfile4SwapEPS0_
alita.node:_ZN5alita11UserProfile5ClearEv
alita.node:_ZN5alita11UserProfile8CopyFromERKS0_
alita.node:_ZN5alita11UserProfile9MergeFromERKS0_
alita.node:_ZN5alita11UserProfileC1ERKS0_
alita.node:_ZN5alita11UserProfileC1Ev
alita.node:_ZN5alita11UserProfileC2ERKS0_
alita.node:_ZN5alita11UserProfileC2Ev
alita.node:_ZN5alita11UserProfileD0Ev
alita.node:_ZN5alita11UserProfileD1Ev
alita.node:_ZN5alita11UserProfileD2Ev
alita.node:_ZN5alita11VoipManager10CancelCallERKN4Napi12CallbackInfoE
alita.node:_ZN5alita11VoipManager10CloseVideoERKN4Napi12CallbackInfoE
alita.node:_ZN5alita11VoipManager11SetOnNotifyERKN4Napi12CallbackInfoE
alita.node:_ZN5alita11VoipManager12GetAudioDataERKN4Napi12CallbackInfoE
alita.node:_ZN5alita11VoipManager12GetVideoDataERKN4Napi12CallbackInfoE
alita.node:_ZN5alita11VoipManager13SendAudioDataERKN4Napi12CallbackInfoE
alita.node:_ZN5alita11VoipManager13SendVideoDataERKN4Napi12CallbackInfoE
alita.node:_ZN5alita11VoipManager20EventExecuteCallbackERKN4Napi12CallbackInfoE
alita.node:_ZN5alita11VoipManager4CallERKN4Napi12CallbackInfoE
alita.node:_ZN5alita11VoipManager4InitEN4Napi3EnvENS1_6ObjectE
alita.node:_ZN5alita11VoipManager6AcceptERKN4Napi12CallbackInfoE
alita.node:_ZN5alita11VoipManager6HangupERKN4Napi12CallbackInfoE
alita.node:_ZN5alita11VoipManager6IgnoreERKN4Napi12CallbackInfoE
alita.node:_ZN5alita11VoipManager6RejectERKN4Napi12CallbackInfoE
alita.node:_ZN5alita11VoipManagerC1ERKN4Napi12CallbackInfoE
alita.node:_ZN5alita11VoipManagerC2ERKN4Napi12CallbackInfoE
alita.node:_ZN5alita12AppBrandItem10SharedCtorEv
alita.node:_ZN5alita12AppBrandItem10SharedDtorEv
alita.node:_ZN5alita12AppBrandItem16default_instanceEv
alita.node:_ZN5alita12AppBrandItem16kTypeFieldNumberE
alita.node:_ZN5alita12AppBrandItem17default_instance_E
alita.node:_ZN5alita12AppBrandItem17kAppIdFieldNumberE
alita.node:_ZN5alita12AppBrandItem19kIconUrlFieldNumberE
alita.node:_ZN5alita12AppBrandItem19kPkgTypeFieldNumberE
alita.node:_ZN5alita12AppBrandItem20kPagePathFieldNumberE
alita.node:_ZN5alita12AppBrandItem20kUsernameFieldNumberE
alita.node:_ZN5alita12AppBrandItem21CheckTypeAndMergeFromERKN7tencent8protobuf11MessageLiteE
alita.node:_ZN5alita12AppBrandItem21InitAsDefaultInstanceEv
alita.node:_ZN5alita12AppBrandItem27MergePartialFromCodedStreamEPN7tencent8protobuf2io16CodedInputStreamE
alita.node:_ZN5alita12AppBrandItem29kSourceDisplayNameFieldNumberE
alita.node:_ZN5alita12AppBrandItem4SwapEPS0_
alita.node:_ZN5alita12AppBrandItem5ClearEv
alita.node:_ZN5alita12AppBrandItem8CopyFromERKS0_
alita.node:_ZN5alita12AppBrandItem9MergeFromERKS0_
alita.node:_ZN5alita12AppBrandItemC1ERKS0_
alita.node:_ZN5alita12AppBrandItemC1Ev
alita.node:_ZN5alita12AppBrandItemC2ERKS0_
alita.node:_ZN5alita12AppBrandItemC2Ev
alita.node:_ZN5alita12AppBrandItemD0Ev
alita.node:_ZN5alita12AppBrandItemD1Ev
alita.node:_ZN5alita12AppBrandItemD2Ev
alita.node:_ZN5alita12AutoDownload10SharedCtorEv
alita.node:_ZN5alita12AutoDownload10SharedDtorEv
alita.node:_ZN5alita12AutoDownload16default_instanceEv
alita.node:_ZN5alita12AutoDownload17default_instance_E
alita.node:_ZN5alita12AutoDownload21CheckTypeAndMergeFromERKN7tencent8protobuf11MessageLiteE
alita.node:_ZN5alita12AutoDownload21InitAsDefaultInstanceEv
alita.node:_ZN5alita12AutoDownload27MergePartialFromCodedStreamEPN7tencent8protobuf2io16CodedInputStreamE
alita.node:_ZN5alita12AutoDownload27kMsgAutoDownloadFieldNumberE
alita.node:_ZN5alita12AutoDownload34kMsgAutoDownloadGeneralFieldNumberE
alita.node:_ZN5alita12AutoDownload4SwapEPS0_
alita.node:_ZN5alita12AutoDownload5ClearEv
alita.node:_ZN5alita12AutoDownload8CopyFromERKS0_
alita.node:_ZN5alita12AutoDownload9MergeFromERKS0_
alita.node:_ZN5alita12AutoDownloadC1ERKS0_
alita.node:_ZN5alita12AutoDownloadC1Ev
alita.node:_ZN5alita12AutoDownloadC2ERKS0_
alita.node:_ZN5alita12AutoDownloadC2Ev
alita.node:_ZN5alita12AutoDownloadD0Ev
alita.node:_ZN5alita12AutoDownloadD1Ev
alita.node:_ZN5alita12AutoDownloadD2Ev
alita.node:_ZN5alita12BaseResponse10SharedCtorEv
alita.node:_ZN5alita12BaseResponse10SharedDtorEv
alita.node:_ZN5alita12BaseResponse15kRetFieldNumberE
alita.node:_ZN5alita12BaseResponse16default_instanceEv
alita.node:_ZN5alita12BaseResponse17default_instance_E
alita.node:_ZN5alita12BaseResponse18kErrMsgFieldNumberE
alita.node:_ZN5alita12BaseResponse21CheckTypeAndMergeFromERKN7tencent8protobuf11MessageLiteE
alita.node:_ZN5alita12BaseResponse21InitAsDefaultInstanceEv
alita.node:_ZN5alita12BaseResponse27MergePartialFromCodedStreamEPN7tencent8protobuf2io16CodedInputStreamE
alita.node:_ZN5alita12BaseResponse4SwapEPS0_
alita.node:_ZN5alita12BaseResponse5ClearEv
alita.node:_ZN5alita12BaseResponse8CopyFromERKS0_
alita.node:_ZN5alita12BaseResponse9MergeFromERKS0_
alita.node:_ZN5alita12BaseResponseC1ERKS0_
alita.node:_ZN5alita12BaseResponseC1Ev
alita.node:_ZN5alita12BaseResponseC2ERKS0_
alita.node:_ZN5alita12BaseResponseC2Ev
alita.node:_ZN5alita12BaseResponseD0Ev
alita.node:_ZN5alita12BaseResponseD1Ev
alita.node:_ZN5alita12BaseResponseD2Ev
alita.node:_ZN5alita12BuiltinEmoji10SharedCtorEv
alita.node:_ZN5alita12BuiltinEmoji10SharedDtorEv
alita.node:_ZN5alita12BuiltinEmoji15kMd5FieldNumberE
alita.node:_ZN5alita12BuiltinEmoji16default_instanceEv
alita.node:_ZN5alita12BuiltinEmoji16kPathFieldNumberE
alita.node:_ZN5alita12BuiltinEmoji17default_instance_E
alita.node:_ZN5alita12BuiltinEmoji21CheckTypeAndMergeFromERKN7tencent8protobuf11MessageLiteE
alita.node:_ZN5alita12BuiltinEmoji21InitAsDefaultInstanceEv
alita.node:_ZN5alita12BuiltinEmoji21kThumbPathFieldNumberE
alita.node:_ZN5alita12BuiltinEmoji27MergePartialFromCodedStreamEPN7tencent8protobuf2io16CodedInputStreamE
alita.node:_ZN5alita12BuiltinEmoji4SwapEPS0_
alita.node:_ZN5alita12BuiltinEmoji5ClearEv
alita.node:_ZN5alita12BuiltinEmoji8CopyFromERKS0_
alita.node:_ZN5alita12BuiltinEmoji9MergeFromERKS0_
alita.node:_ZN5alita12BuiltinEmojiC1ERKS0_
alita.node:_ZN5alita12BuiltinEmojiC1Ev
alita.node:_ZN5alita12BuiltinEmojiC2ERKS0_
alita.node:_ZN5alita12BuiltinEmojiC2Ev
alita.node:_ZN5alita12BuiltinEmojiD0Ev
alita.node:_ZN5alita12BuiltinEmojiD1Ev
alita.node:_ZN5alita12BuiltinEmojiD2Ev
alita.node:_ZN5alita12Conversation10SharedCtorEv
alita.node:_ZN5alita12Conversation10SharedDtorEv
alita.node:_ZN5alita12Conversation15kSeqFieldNumberE
alita.node:_ZN5alita12Conversation16default_instanceEv
alita.node:_ZN5alita12Conversation16kFlagFieldNumberE
alita.node:_ZN5alita12Conversation17default_instance_E
alita.node:_ZN5alita12Conversation18kRemarkFieldNumberE
alita.node:_ZN5alita12Conversation18kStatusFieldNumberE
alita.node:_ZN5alita12Conversation19kAtCountFieldNumberE
alita.node:_ZN5alita12Conversation19kContentFieldNumberE
alita.node:_ZN5alita12Conversation19kLastSeqFieldNumberE
alita.node:_ZN5alita12Conversation19kMsgTypeFieldNumberE
alita.node:_ZN5alita12Conversation20kAttrFlagFieldNumberE
alita.node:_ZN5alita12Conversation20kChatModeFieldNumberE
alita.node:_ZN5alita12Conversation20kMsgCountFieldNumberE
alita.node:_ZN5alita12Conversation20kNicknameFieldNumberE
alita.node:_ZN5alita12Conversation20kShowTipsFieldNumberE
alita.node:_ZN5alita12Conversation21CheckTypeAndMergeFromERKN7tencent8protobuf11MessageLiteE
alita.node:_ZN5alita12Conversation21InitAsDefaultInstanceEv
alita.node:_ZN5alita12Conversation21kAvatarUrlFieldNumberE
alita.node:_ZN5alita12Conversation21kLastMsgidFieldNumberE
alita.node:_ZN5alita12Conversation21kMsgDigestFieldNumberE
alita.node:_ZN5alita12Conversation21kParentRefFieldNumberE
alita.node:_ZN5alita12Conversation22kChangeTimeFieldNumberE
alita.node:_ZN5alita12Conversation22kEditingMsgFieldNumberE
alita.node:_ZN5alita12Conversation22kSubMsgTypeFieldNumberE
alita.node:_ZN5alita12Conversation23kDefaultnameFieldNumberE
alita.node:_ZN5alita12Conversation23kHdAvatarUrlFieldNumberE
alita.node:_ZN5alita12Conversation23kMsgUsernameFieldNumberE
alita.node:_ZN5alita12Conversation23kUnreadCountFieldNumberE
alita.node:_ZN5alita12Conversation24kCustomNotifyFieldNumberE
alita.node:_ZN5alita12Conversation27MergePartialFromCodedStreamEPN7tencent8protobuf2io16CodedInputStreamE
alita.node:_ZN5alita12Conversation27kUnreadMuteCountFieldNumberE
alita.node:_ZN5alita12Conversation28kConversationNameFieldNumberE
alita.node:_ZN5alita12Conversation28kConversationTimeFieldNumberE
alita.node:_ZN5alita12Conversation29kEditingQuoteMsgIdFieldNumberE
alita.node:_ZN5alita12Conversation29kFirstUndeliverSeqFieldNumberE
alita.node:_ZN5alita12Conversation34kChatroomMemberUsernameFieldNumberE
alita.node:_ZN5alita12Conversation4SwapEPS0_
alita.node:_ZN5alita12Conversation5ClearEv
alita.node:_ZN5alita12Conversation8CopyFromERKS0_
alita.node:_ZN5alita12Conversation9MergeFromERKS0_
alita.node:_ZN5alita12ConversationC1ERKS0_
alita.node:_ZN5alita12ConversationC1Ev
alita.node:_ZN5alita12ConversationC2ERKS0_
alita.node:_ZN5alita12ConversationC2Ev
alita.node:_ZN5alita12ConversationD0Ev
alita.node:_ZN5alita12ConversationD1Ev
alita.node:_ZN5alita12ConversationD2Ev
alita.node:_ZN5alita12EmojiGameExt10SharedCtorEv
alita.node:_ZN5alita12EmojiGameExt10SharedDtorEv
alita.node:_ZN5alita12EmojiGameExt16default_instanceEv
alita.node:_ZN5alita12EmojiGameExt16kTypeFieldNumberE
alita.node:_ZN5alita12EmojiGameExt17default_instance_E
alita.node:_ZN5alita12EmojiGameExt19kContentFieldNumberE
alita.node:_ZN5alita12EmojiGameExt21CheckTypeAndMergeFromERKN7tencent8protobuf11MessageLiteE
alita.node:_ZN5alita12EmojiGameExt21InitAsDefaultInstanceEv
alita.node:_ZN5alita12EmojiGameExt27MergePartialFromCodedStreamEPN7tencent8protobuf2io16CodedInputStreamE
alita.node:_ZN5alita12EmojiGameExt4SwapEPS0_
alita.node:_ZN5alita12EmojiGameExt5ClearEv
alita.node:_ZN5alita12EmojiGameExt8CopyFromERKS0_
alita.node:_ZN5alita12EmojiGameExt9MergeFromERKS0_
alita.node:_ZN5alita12EmojiGameExtC1ERKS0_
alita.node:_ZN5alita12EmojiGameExtC1Ev
alita.node:_ZN5alita12EmojiGameExtC2ERKS0_
alita.node:_ZN5alita12EmojiGameExtC2Ev
alita.node:_ZN5alita12EmojiGameExtD0Ev
alita.node:_ZN5alita12EmojiGameExtD1Ev
alita.node:_ZN5alita12EmojiGameExtD2Ev
alita.node:_ZN5alita12EmojiManager11SetOnNotifyERKN4Napi12CallbackInfoE
alita.node:_ZN5alita12EmojiManager14InitEmojiAsyncERKN4Napi12CallbackInfoE
alita.node:_ZN5alita12EmojiManager17GetStoreEmojiListERKN4Napi12CallbackInfoE
alita.node:_ZN5alita12EmojiManager18GetCustomEmojiListERKN4Napi12CallbackInfoE
alita.node:_ZN5alita12EmojiManager19EmojiOperationAsyncERKN4Napi12CallbackInfoE
alita.node:_ZN5alita12EmojiManager19EmojiOperationCheckERKN4Napi12CallbackInfoE
alita.node:_ZN5alita12EmojiManager19GetBuiltinEmojiListERKN4Napi12CallbackInfoE
alita.node:_ZN5alita12EmojiManager20EventExecuteCallbackERKN4Napi12CallbackInfoE
alita.node:_ZN5alita12EmojiManager22GetEmojiMd5FromMessageERKN4Napi12CallbackInfoE
alita.node:_ZN5alita12EmojiManager4InitEN4Napi3EnvENS1_6ObjectE
alita.node:_ZN5alita12EmojiManagerC1ERKN4Napi12CallbackInfoE
alita.node:_ZN5alita12EmojiManagerC2ERKN4Napi12CallbackInfoE
alita.node:_ZN5alita12InitResponse10SharedCtorEv
alita.node:_ZN5alita12InitResponse10SharedDtorEv
alita.node:_ZN5alita12InitResponse16default_instanceEv
alita.node:_ZN5alita12InitResponse17default_instance_E
alita.node:_ZN5alita12InitResponse19kErrCodeFieldNumberE
alita.node:_ZN5alita12InitResponse21CheckTypeAndMergeFromERKN7tencent8protobuf11MessageLiteE
alita.node:_ZN5alita12InitResponse21InitAsDefaultInstanceEv
alita.node:_ZN5alita12InitResponse27MergePartialFromCodedStreamEPN7tencent8protobuf2io16CodedInputStreamE
alita.node:_ZN5alita12InitResponse4SwapEPS0_
alita.node:_ZN5alita12InitResponse5ClearEv
alita.node:_ZN5alita12InitResponse8CopyFromERKS0_
alita.node:_ZN5alita12InitResponse9MergeFromERKS0_
alita.node:_ZN5alita12InitResponseC1ERKS0_
alita.node:_ZN5alita12InitResponseC1Ev
alita.node:_ZN5alita12InitResponseC2ERKS0_
alita.node:_ZN5alita12InitResponseC2Ev
alita.node:_ZN5alita12InitResponseD0Ev
alita.node:_ZN5alita12InitResponseD1Ev
alita.node:_ZN5alita12InitResponseD2Ev
alita.node:_ZN5alita12LoginManager11CancelLoginERKN4Napi12CallbackInfoE
alita.node:_ZN5alita12LoginManager11LogoutAsyncERKN4Napi12CallbackInfoE
alita.node:_ZN5alita12LoginManager11SetOnNotifyERKN4Napi12CallbackInfoE
alita.node:_ZN5alita12LoginManager12GetLoginAttrERKN4Napi12CallbackInfoE
alita.node:_ZN5alita12LoginManager13GetLoginStateERKN4Napi12CallbackInfoE
alita.node:_ZN5alita12LoginManager14AutoLoginAsyncERKN4Napi12CallbackInfoE
alita.node:_ZN5alita12LoginManager14PushLoginAsyncERKN4Napi12CallbackInfoE
alita.node:_ZN5alita12LoginManager17LoginByIlinkAsyncERKN4Napi12CallbackInfoE
alita.node:_ZN5alita12LoginManager18GetBindQrCodeAsyncERKN4Napi12CallbackInfoE
alita.node:_ZN5alita12LoginManager19GetLoginQrCodeAsyncERKN4Napi12CallbackInfoE
alita.node:_ZN5alita12LoginManager19LoginBySmsCodeAsyncERKN4Napi12CallbackInfoE
alita.node:_ZN5alita12LoginManager20EventExecuteCallbackERKN4Napi12CallbackInfoE
alita.node:_ZN5alita12LoginManager20GetLoginSmsCodeAsyncERKN4Napi12CallbackInfoE
alita.node:_ZN5alita12LoginManager20LoginByPasswordAsyncERKN4Napi12CallbackInfoE
alita.node:_ZN5alita12LoginManager22LoginByBindQrCodeAsyncERKN4Napi12CallbackInfoE
alita.node:_ZN5alita12LoginManager23LoginByLoginQrCodeAsyncERKN4Napi12CallbackInfoE
alita.node:_ZN5alita12LoginManager25CheckBindQrCodeStateAsyncERKN4Napi12CallbackInfoE
alita.node:_ZN5alita12LoginManager26CheckLoginQrCodeStateAsyncERKN4Napi12CallbackInfoE
alita.node:_ZN5alita12LoginManager26SetPushAutoLoginStateAsyncERKN4Napi12CallbackInfoE
alita.node:_ZN5alita12LoginManager4InitEN4Napi3EnvENS1_6ObjectE
alita.node:_ZN5alita12LoginManagerC1ERKN4Napi12CallbackInfoE
alita.node:_ZN5alita12LoginManagerC2ERKN4Napi12CallbackInfoE
alita.node:_ZN5alita12OAuthAppInfo10SharedCtorEv
alita.node:_ZN5alita12OAuthAppInfo10SharedDtorEv
alita.node:_ZN5alita12OAuthAppInfo16default_instanceEv
alita.node:_ZN5alita12OAuthAppInfo17default_instance_E
alita.node:_ZN5alita12OAuthAppInfo17kAppidFieldNumberE
alita.node:_ZN5alita12OAuthAppInfo17kTokenFieldNumberE
alita.node:_ZN5alita12OAuthAppInfo21CheckTypeAndMergeFromERKN7tencent8protobuf11MessageLiteE
alita.node:_ZN5alita12OAuthAppInfo21InitAsDefaultInstanceEv
alita.node:_ZN5alita12OAuthAppInfo21kSignatureFieldNumberE
alita.node:_ZN5alita12OAuthAppInfo23kPackageNameFieldNumberE
alita.node:_ZN5alita12OAuthAppInfo27MergePartialFromCodedStreamEPN7tencent8protobuf2io16CodedInputStreamE
alita.node:_ZN5alita12OAuthAppInfo4SwapEPS0_
alita.node:_ZN5alita12OAuthAppInfo5ClearEv
alita.node:_ZN5alita12OAuthAppInfo8CopyFromERKS0_
alita.node:_ZN5alita12OAuthAppInfo9MergeFromERKS0_
alita.node:_ZN5alita12OAuthAppInfoC1ERKS0_
alita.node:_ZN5alita12OAuthAppInfoC1Ev
alita.node:_ZN5alita12OAuthAppInfoC2ERKS0_
alita.node:_ZN5alita12OAuthAppInfoC2Ev
alita.node:_ZN5alita12OAuthAppInfoD0Ev
alita.node:_ZN5alita12OAuthAppInfoD1Ev
alita.node:_ZN5alita12OAuthAppInfoD2Ev
alita.node:_ZN5alita12OAuthRequest10SharedCtorEv
alita.node:_ZN5alita12OAuthRequest10SharedDtorEv
alita.node:_ZN5alita12OAuthRequest16default_instanceEv
alita.node:_ZN5alita12OAuthRequest17default_instance_E
alita.node:_ZN5alita12OAuthRequest18kTaskIdFieldNumberE
alita.node:_ZN5alita12OAuthRequest19kAppInfoFieldNumberE
alita.node:_ZN5alita12OAuthRequest21CheckTypeAndMergeFromERKN7tencent8protobuf11MessageLiteE
alita.node:_ZN5alita12OAuthRequest21InitAsDefaultInstanceEv
alita.node:_ZN5alita12OAuthRequest21kOauthInfoFieldNumberE
alita.node:_ZN5alita12OAuthRequest27MergePartialFromCodedStreamEPN7tencent8protobuf2io16CodedInputStreamE
alita.node:_ZN5alita12OAuthRequest4SwapEPS0_
alita.node:_ZN5alita12OAuthRequest5ClearEv
alita.node:_ZN5alita12OAuthRequest8CopyFromERKS0_
alita.node:_ZN5alita12OAuthRequest9MergeFromERKS0_
alita.node:_ZN5alita12OAuthRequestC1ERKS0_
alita.node:_ZN5alita12OAuthRequestC1Ev
alita.node:_ZN5alita12OAuthRequestC2ERKS0_
alita.node:_ZN5alita12OAuthRequestC2Ev
alita.node:_ZN5alita12OAuthRequestD0Ev
alita.node:_ZN5alita12OAuthRequestD1Ev
alita.node:_ZN5alita12OAuthRequestD2Ev
alita.node:_ZN5alita12QuoteMessage10SharedCtorEv
alita.node:_ZN5alita12QuoteMessage10SharedDtorEv
alita.node:_ZN5alita12QuoteMessage16default_instanceEv
alita.node:_ZN5alita12QuoteMessage17default_instance_E
alita.node:_ZN5alita12QuoteMessage17kTitleFieldNumberE
alita.node:_ZN5alita12QuoteMessage19kContentFieldNumberE
alita.node:_ZN5alita12QuoteMessage20kServerIdFieldNumberE
alita.node:_ZN5alita12QuoteMessage21CheckTypeAndMergeFromERKN7tencent8protobuf11MessageLiteE
alita.node:_ZN5alita12QuoteMessage21InitAsDefaultInstanceEv
alita.node:_ZN5alita12QuoteMessage23kByteContentFieldNumberE
alita.node:_ZN5alita12QuoteMessage23kDisplayNameFieldNumberE
alita.node:_ZN5alita12QuoteMessage23kMessageTypeFieldNumberE
alita.node:_ZN5alita12QuoteMessage24kChatUsernameFieldNumberE
alita.node:_ZN5alita12QuoteMessage24kFromUsernameFieldNumberE
alita.node:_ZN5alita12QuoteMessage25kMessageSourceFieldNumberE
alita.node:_ZN5alita12QuoteMessage27MergePartialFromCodedStreamEPN7tencent8protobuf2io16CodedInputStreamE
alita.node:_ZN5alita12QuoteMessage29kByteMessageSourceFieldNumberE
alita.node:_ZN5alita12QuoteMessage4SwapEPS0_
alita.node:_ZN5alita12QuoteMessage5ClearEv
alita.node:_ZN5alita12QuoteMessage8CopyFromERKS0_
alita.node:_ZN5alita12QuoteMessage9MergeFromERKS0_
alita.node:_ZN5alita12QuoteMessageC1ERKS0_
alita.node:_ZN5alita12QuoteMessageC1Ev
alita.node:_ZN5alita12QuoteMessageC2ERKS0_
alita.node:_ZN5alita12QuoteMessageC2Ev
alita.node:_ZN5alita12QuoteMessageD0Ev
alita.node:_ZN5alita12QuoteMessageD1Ev
alita.node:_ZN5alita12QuoteMessageD2Ev
alita.node:_ZN5alita12ShareAppInfo10SharedCtorEv
alita.node:_ZN5alita12ShareAppInfo10SharedDtorEv
alita.node:_ZN5alita12ShareAppInfo16default_instanceEv
alita.node:_ZN5alita12ShareAppInfo17default_instance_E
alita.node:_ZN5alita12ShareAppInfo17kAppidFieldNumberE
alita.node:_ZN5alita12ShareAppInfo17kTokenFieldNumberE
alita.node:_ZN5alita12ShareAppInfo19kAppnameFieldNumberE
alita.node:_ZN5alita12ShareAppInfo19kVersionFieldNumberE
alita.node:_ZN5alita12ShareAppInfo21CheckTypeAndMergeFromERKN7tencent8protobuf11MessageLiteE
alita.node:_ZN5alita12ShareAppInfo21InitAsDefaultInstanceEv
alita.node:_ZN5alita12ShareAppInfo21kSignatureFieldNumberE
alita.node:_ZN5alita12ShareAppInfo22kUserOpenidFieldNumberE
alita.node:_ZN5alita12ShareAppInfo23kPackageNameFieldNumberE
alita.node:_ZN5alita12ShareAppInfo27MergePartialFromCodedStreamEPN7tencent8protobuf2io16CodedInputStreamE
alita.node:_ZN5alita12ShareAppInfo4SwapEPS0_
alita.node:_ZN5alita12ShareAppInfo5ClearEv
alita.node:_ZN5alita12ShareAppInfo8CopyFromERKS0_
alita.node:_ZN5alita12ShareAppInfo9MergeFromERKS0_
alita.node:_ZN5alita12ShareAppInfoC1ERKS0_
alita.node:_ZN5alita12ShareAppInfoC1Ev
alita.node:_ZN5alita12ShareAppInfoC2ERKS0_
alita.node:_ZN5alita12ShareAppInfoC2Ev
alita.node:_ZN5alita12ShareAppInfoD0Ev
alita.node:_ZN5alita12ShareAppInfoD1Ev
alita.node:_ZN5alita12ShareAppInfoD2Ev
alita.node:_ZN5alita12UsernameList10SharedCtorEv
alita.node:_ZN5alita12UsernameList10SharedDtorEv
alita.node:_ZN5alita12UsernameList16default_instanceEv
alita.node:_ZN5alita12UsernameList17default_instance_E
alita.node:_ZN5alita12UsernameList20kUsernameFieldNumberE
alita.node:_ZN5alita12UsernameList21CheckTypeAndMergeFromERKN7tencent8protobuf11MessageLiteE
alita.node:_ZN5alita12UsernameList21InitAsDefaultInstanceEv
alita.node:_ZN5alita12UsernameList27MergePartialFromCodedStreamEPN7tencent8protobuf2io16CodedInputStreamE
alita.node:_ZN5alita12UsernameList4SwapEPS0_
alita.node:_ZN5alita12UsernameList5ClearEv
alita.node:_ZN5alita12UsernameList8CopyFromERKS0_
alita.node:_ZN5alita12UsernameList9MergeFromERKS0_
alita.node:_ZN5alita12UsernameListC1ERKS0_
alita.node:_ZN5alita12UsernameListC1Ev
alita.node:_ZN5alita12UsernameListC2ERKS0_
alita.node:_ZN5alita12UsernameListC2Ev
alita.node:_ZN5alita12UsernameListD0Ev
alita.node:_ZN5alita12UsernameListD1Ev
alita.node:_ZN5alita12UsernameListD2Ev
alita.node:_ZN5alita13AcceptRequest10SharedCtorEv
alita.node:_ZN5alita13AcceptRequest10SharedDtorEv
alita.node:_ZN5alita13AcceptRequest16default_instanceEv
alita.node:_ZN5alita13AcceptRequest17default_instance_E
alita.node:_ZN5alita13AcceptRequest21CheckTypeAndMergeFromERKN7tencent8protobuf11MessageLiteE
alita.node:_ZN5alita13AcceptRequest21InitAsDefaultInstanceEv
alita.node:_ZN5alita13AcceptRequest23kIsOnlyAudioFieldNumberE
alita.node:_ZN5alita13AcceptRequest27MergePartialFromCodedStreamEPN7tencent8protobuf2io16CodedInputStreamE
alita.node:_ZN5alita13AcceptRequest4SwapEPS0_
alita.node:_ZN5alita13AcceptRequest5ClearEv
alita.node:_ZN5alita13AcceptRequest8CopyFromERKS0_
alita.node:_ZN5alita13AcceptRequest9MergeFromERKS0_
alita.node:_ZN5alita13AcceptRequestC1ERKS0_
alita.node:_ZN5alita13AcceptRequestC1Ev
alita.node:_ZN5alita13AcceptRequestC2ERKS0_
alita.node:_ZN5alita13AcceptRequestC2Ev
alita.node:_ZN5alita13AcceptRequestD0Ev
alita.node:_ZN5alita13AcceptRequestD1Ev
alita.node:_ZN5alita13AcceptRequestD2Ev
alita.node:_ZN5alita13AppC2cMessage10SharedCtorEv
alita.node:_ZN5alita13AppC2cMessage10SharedDtorEv
alita.node:_ZN5alita13AppC2cMessage16default_instanceEv
alita.node:_ZN5alita13AppC2cMessage17default_instance_E
alita.node:_ZN5alita13AppC2cMessage17kNewAaFieldNumberE
alita.node:_ZN5alita13AppC2cMessage21CheckTypeAndMergeFromERKN7tencent8protobuf11MessageLiteE
alita.node:_ZN5alita13AppC2cMessage21InitAsDefaultInstanceEv
alita.node:_ZN5alita13AppC2cMessage24kWcpayinfoUrlFieldNumberE
alita.node:_ZN5alita13AppC2cMessage27MergePartialFromCodedStreamEPN7tencent8protobuf2io16CodedInputStreamE
alita.node:_ZN5alita13AppC2cMessage28kWcpayinfoIconUrlFieldNumberE
alita.node:_ZN5alita13AppC2cMessage28kWcpayinfoSceneIdFieldNumberE
alita.node:_ZN5alita13AppC2cMessage29kWcpayinfoPayMsgIdFieldNumberE
alita.node:_ZN5alita13AppC2cMessage30kWcpayinfoInnerTypeFieldNumberE
alita.node:_ZN5alita13AppC2cMessage30kWcpayinfoNativeUrlFieldNumberE
alita.node:_ZN5alita13AppC2cMessage30kWcpayinfoSceneTextFieldNumberE
alita.node:_ZN5alita13AppC2cMessage30kWcpayinfoSenderDesFieldNumberE
alita.node:_ZN5alita13AppC2cMessage31kWcpayinfoTemplateIdFieldNumberE
alita.node:_ZN5alita13AppC2cMessage32kWcpayinfoInvalidTimeFieldNumberE
alita.node:_ZN5alita13AppC2cMessage32kWcpayinfoReceiverDesFieldNumberE
alita.node:_ZN5alita13AppC2cMessage32kWcpayinfoSenderTitleFieldNumberE
alita.node:_ZN5alita13AppC2cMessage34kWcpayinfoLocalLogoIconFieldNumberE
alita.node:_ZN5alita13AppC2cMessage34kWcpayinfoReceiverTitleFieldNumberE
alita.node:_ZN5alita13AppC2cMessage4SwapEPS0_
alita.node:_ZN5alita13AppC2cMessage5ClearEv
alita.node:_ZN5alita13AppC2cMessage8CopyFromERKS0_
alita.node:_ZN5alita13AppC2cMessage9MergeFromERKS0_
alita.node:_ZN5alita13AppC2cMessageC1ERKS0_
alita.node:_ZN5alita13AppC2cMessageC1Ev
alita.node:_ZN5alita13AppC2cMessageC2ERKS0_
alita.node:_ZN5alita13AppC2cMessageC2Ev
alita.node:_ZN5alita13AppC2cMessageD0Ev
alita.node:_ZN5alita13AppC2cMessageD1Ev
alita.node:_ZN5alita13AppC2cMessageD2Ev
alita.node:_ZN5alita13AvatarManager11SetOnNotifyERKN4Napi12CallbackInfoE
alita.node:_ZN5alita13AvatarManager13GetAvatarPathERKN4Napi12CallbackInfoE
alita.node:_ZN5alita13AvatarManager19DownloadAvatarAsyncERKN4Napi12CallbackInfoE
alita.node:_ZN5alita13AvatarManager20CancelDownloadAvatarERKN4Napi12CallbackInfoE
alita.node:_ZN5alita13AvatarManager20EventExecuteCallbackERKN4Napi12CallbackInfoE
alita.node:_ZN5alita13AvatarManager4InitEN4Napi3EnvENS1_6ObjectE
alita.node:_ZN5alita13AvatarManager9GetAvatarERKN4Napi12CallbackInfoE
alita.node:_ZN5alita13AvatarManagerC1ERKN4Napi12CallbackInfoE
alita.node:_ZN5alita13AvatarManagerC2ERKN4Napi12CallbackInfoE
alita.node:_ZN5alita13ContactConfig10SharedCtorEv
alita.node:_ZN5alita13ContactConfig10SharedDtorEv
alita.node:_ZN5alita13ContactConfig16default_instanceEv
alita.node:_ZN5alita13ContactConfig17default_instance_E
alita.node:_ZN5alita13ContactConfig21CheckTypeAndMergeFromERKN7tencent8protobuf11MessageLiteE
alita.node:_ZN5alita13ContactConfig21InitAsDefaultInstanceEv
alita.node:_ZN5alita13ContactConfig21kWhiteListFieldNumberE
alita.node:_ZN5alita13ContactConfig27MergePartialFromCodedStreamEPN7tencent8protobuf2io16CodedInputStreamE
alita.node:_ZN5alita13ContactConfig28kIsBlocBizContactFieldNumberE
alita.node:_ZN5alita13ContactConfig31kIsBlocSystemContactFieldNumberE
alita.node:_ZN5alita13ContactConfig4SwapEPS0_
alita.node:_ZN5alita13ContactConfig5ClearEv
alita.node:_ZN5alita13ContactConfig8CopyFromERKS0_
alita.node:_ZN5alita13ContactConfig9MergeFromERKS0_
alita.node:_ZN5alita13ContactConfigC1ERKS0_
alita.node:_ZN5alita13ContactConfigC1Ev
alita.node:_ZN5alita13ContactConfigC2ERKS0_
alita.node:_ZN5alita13ContactConfigC2Ev
alita.node:_ZN5alita13ContactConfigD0Ev
alita.node:_ZN5alita13ContactConfigD1Ev
alita.node:_ZN5alita13ContactConfigD2Ev
alita.node:_ZN5alita13DynamicConfig10SharedCtorEv
alita.node:_ZN5alita13DynamicConfig10SharedDtorEv
alita.node:_ZN5alita13DynamicConfig15kKeyFieldNumberE
alita.node:_ZN5alita13DynamicConfig16default_instanceEv
alita.node:_ZN5alita13DynamicConfig17default_instance_E
alita.node:_ZN5alita13DynamicConfig17kValueFieldNumberE
alita.node:_ZN5alita13DynamicConfig21CheckTypeAndMergeFromERKN7tencent8protobuf11MessageLiteE
alita.node:_ZN5alita13DynamicConfig21InitAsDefaultInstanceEv
alita.node:_ZN5alita13DynamicConfig27MergePartialFromCodedStreamEPN7tencent8protobuf2io16CodedInputStreamE
alita.node:_ZN5alita13DynamicConfig4SwapEPS0_
alita.node:_ZN5alita13DynamicConfig5ClearEv
alita.node:_ZN5alita13DynamicConfig8CopyFromERKS0_
alita.node:_ZN5alita13DynamicConfig9MergeFromERKS0_
alita.node:_ZN5alita13DynamicConfigC1ERKS0_
alita.node:_ZN5alita13DynamicConfigC1Ev
alita.node:_ZN5alita13DynamicConfigC2ERKS0_
alita.node:_ZN5alita13DynamicConfigC2Ev
alita.node:_ZN5alita13DynamicConfigD0Ev
alita.node:_ZN5alita13DynamicConfigD1Ev
alita.node:_ZN5alita13DynamicConfigD2Ev
alita.node:_ZN5alita13GameEmojiList10SharedCtorEv
alita.node:_ZN5alita13GameEmojiList10SharedDtorEv
alita.node:_ZN5alita13GameEmojiList16default_instanceEv
alita.node:_ZN5alita13GameEmojiList17default_instance_E
alita.node:_ZN5alita13GameEmojiList21CheckTypeAndMergeFromERKN7tencent8protobuf11MessageLiteE
alita.node:_ZN5alita13GameEmojiList21InitAsDefaultInstanceEv
alita.node:_ZN5alita13GameEmojiList21kGameEmojiFieldNumberE
alita.node:_ZN5alita13GameEmojiList27MergePartialFromCodedStreamEPN7tencent8protobuf2io16CodedInputStreamE
alita.node:_ZN5alita13GameEmojiList4SwapEPS0_
alita.node:_ZN5alita13GameEmojiList5ClearEv
alita.node:_ZN5alita13GameEmojiList8CopyFromERKS0_
alita.node:_ZN5alita13GameEmojiList9MergeFromERKS0_
alita.node:_ZN5alita13GameEmojiListC1ERKS0_
alita.node:_ZN5alita13GameEmojiListC1Ev
alita.node:_ZN5alita13GameEmojiListC2ERKS0_
alita.node:_ZN5alita13GameEmojiListC2Ev
alita.node:_ZN5alita13GameEmojiListD0Ev
alita.node:_ZN5alita13GameEmojiListD1Ev
alita.node:_ZN5alita13GameEmojiListD2Ev
alita.node:_ZN5alita13HandOffMaster10SharedCtorEv
alita.node:_ZN5alita13HandOffMaster10SharedDtorEv
alita.node:_ZN5alita13HandOffMaster14kIdFieldNumberE
alita.node:_ZN5alita13HandOffMaster14kToFieldNumberE
alita.node:_ZN5alita13HandOffMaster15kSeqFieldNumberE
alita.node:_ZN5alita13HandOffMaster15kUrlFieldNumberE
alita.node:_ZN5alita13HandOffMaster16default_instanceEv
alita.node:_ZN5alita13HandOffMaster16kFileFieldNumberE
alita.node:_ZN5alita13HandOffMaster16kFromFieldNumberE
alita.node:_ZN5alita13HandOffMaster16kTypeFieldNumberE
alita.node:_ZN5alita13HandOffMaster17default_instance_E
alita.node:_ZN5alita13HandOffMaster18kOpCodeFieldNumberE
alita.node:_ZN5alita13HandOffMaster20kDeviceIdFieldNumberE
alita.node:_ZN5alita13HandOffMaster20kMiniGameFieldNumberE
alita.node:_ZN5alita13HandOffMaster21CheckTypeAndMergeFromERKN7tencent8protobuf11MessageLiteE
alita.node:_ZN5alita13HandOffMaster21InitAsDefaultInstanceEv
alita.node:_ZN5alita13HandOffMaster22kCreateTimeFieldNumberE
alita.node:_ZN5alita13HandOffMaster23kMiniProgramFieldNumberE
alita.node:_ZN5alita13HandOffMaster25kNetworkStatusFieldNumberE
alita.node:_ZN5alita13HandOffMaster27MergePartialFromCodedStreamEPN7tencent8protobuf2io16CodedInputStreamE
alita.node:_ZN5alita13HandOffMaster4SwapEPS0_
alita.node:_ZN5alita13HandOffMaster5ClearEv
alita.node:_ZN5alita13HandOffMaster8CopyFromERKS0_
alita.node:_ZN5alita13HandOffMaster9MergeFromERKS0_
alita.node:_ZN5alita13HandOffMasterC1ERKS0_
alita.node:_ZN5alita13HandOffMasterC1Ev
alita.node:_ZN5alita13HandOffMasterC2ERKS0_
alita.node:_ZN5alita13HandOffMasterC2Ev
alita.node:_ZN5alita13HandOffMasterD0Ev
alita.node:_ZN5alita13HandOffMasterD1Ev
alita.node:_ZN5alita13HandOffMasterD2Ev
alita.node:_ZN5alita13MessageNotify10SharedCtorEv
alita.node:_ZN5alita13MessageNotify10SharedDtorEv
alita.node:_ZN5alita13MessageNotify16default_instanceEv
alita.node:_ZN5alita13MessageNotify17default_instance_E
alita.node:_ZN5alita13MessageNotify17kMsgIdFieldNumberE
alita.node:_ZN5alita13MessageNotify19kContentFieldNumberE
alita.node:_ZN5alita13MessageNotify19kMsgTypeFieldNumberE
alita.node:_ZN5alita13MessageNotify20kNicknameFieldNumberE
alita.node:_ZN5alita13MessageNotify21CheckTypeAndMergeFromERKN7tencent8protobuf11MessageLiteE
alita.node:_ZN5alita13MessageNotify21InitAsDefaultInstanceEv
alita.node:_ZN5alita13MessageNotify21kAvatarUrlFieldNumberE
alita.node:_ZN5alita13MessageNotify22kAvatarPathFieldNumberE
alita.node:_ZN5alita13MessageNotify23kContactTypeFieldNumberE
alita.node:_ZN5alita13MessageNotify24kFromUsernameFieldNumberE
alita.node:_ZN5alita13MessageNotify25kMsgCreateTimeFieldNumberE
alita.node:_ZN5alita13MessageNotify27MergePartialFromCodedStreamEPN7tencent8protobuf2io16CodedInputStreamE
alita.node:_ZN5alita13MessageNotify4SwapEPS0_
alita.node:_ZN5alita13MessageNotify5ClearEv
alita.node:_ZN5alita13MessageNotify8CopyFromERKS0_
alita.node:_ZN5alita13MessageNotify9MergeFromERKS0_
alita.node:_ZN5alita13MessageNotifyC1ERKS0_
alita.node:_ZN5alita13MessageNotifyC1Ev
alita.node:_ZN5alita13MessageNotifyC2ERKS0_
alita.node:_ZN5alita13MessageNotifyC2Ev
alita.node:_ZN5alita13MessageNotifyD0Ev
alita.node:_ZN5alita13MessageNotifyD1Ev
alita.node:_ZN5alita13MessageNotifyD2Ev
alita.node:_ZN5alita13MessageSource10SharedCtorEv
alita.node:_ZN5alita13MessageSource10SharedDtorEv
alita.node:_ZN5alita13MessageSource16default_instanceEv
alita.node:_ZN5alita13MessageSource17default_instance_E
alita.node:_ZN5alita13MessageSource21CheckTypeAndMergeFromERKN7tencent8protobuf11MessageLiteE
alita.node:_ZN5alita13MessageSource21InitAsDefaultInstanceEv
alita.node:_ZN5alita13MessageSource22kAtUserListFieldNumberE
alita.node:_ZN5alita13MessageSource27MergePartialFromCodedStreamEPN7tencent8protobuf2io16CodedInputStreamE
alita.node:_ZN5alita13MessageSource4SwapEPS0_
alita.node:_ZN5alita13MessageSource5ClearEv
alita.node:_ZN5alita13MessageSource8CopyFromERKS0_
alita.node:_ZN5alita13MessageSource9MergeFromERKS0_
alita.node:_ZN5alita13MessageSourceC1ERKS0_
alita.node:_ZN5alita13MessageSourceC1Ev
alita.node:_ZN5alita13MessageSourceC2ERKS0_
alita.node:_ZN5alita13MessageSourceC2Ev
alita.node:_ZN5alita13MessageSourceD0Ev
alita.node:_ZN5alita13MessageSourceD1Ev
alita.node:_ZN5alita13MessageSourceD2Ev
alita.node:_ZN5alita13OAuthRespInfo10SharedCtorEv
alita.node:_ZN5alita13OAuthRespInfo10SharedDtorEv
alita.node:_ZN5alita13OAuthRespInfo16default_instanceEv
alita.node:_ZN5alita13OAuthRespInfo17default_instance_E
alita.node:_ZN5alita13OAuthRespInfo19kAppnameFieldNumberE
alita.node:_ZN5alita13OAuthRespInfo21CheckTypeAndMergeFromERKN7tencent8protobuf11MessageLiteE
alita.node:_ZN5alita13OAuthRespInfo21InitAsDefaultInstanceEv
alita.node:_ZN5alita13OAuthRespInfo21kScopeInfoFieldNumberE
alita.node:_ZN5alita13OAuthRespInfo22kAppiconUrlFieldNumberE
alita.node:_ZN5alita13OAuthRespInfo22kAvatarInfoFieldNumberE
alita.node:_ZN5alita13OAuthRespInfo27MergePartialFromCodedStreamEPN7tencent8protobuf2io16CodedInputStreamE
alita.node:_ZN5alita13OAuthRespInfo27kDefaultAvatarIdFieldNumberE
alita.node:_ZN5alita13OAuthRespInfo4SwapEPS0_
alita.node:_ZN5alita13OAuthRespInfo5ClearEv
alita.node:_ZN5alita13OAuthRespInfo8CopyFromERKS0_
alita.node:_ZN5alita13OAuthRespInfo9MergeFromERKS0_
alita.node:_ZN5alita13OAuthRespInfoC1ERKS0_
alita.node:_ZN5alita13OAuthRespInfoC1Ev
alita.node:_ZN5alita13OAuthRespInfoC2ERKS0_
alita.node:_ZN5alita13OAuthRespInfoC2Ev
alita.node:_ZN5alita13OAuthRespInfoD0Ev
alita.node:_ZN5alita13OAuthRespInfoD1Ev
alita.node:_ZN5alita13OAuthRespInfoD2Ev
alita.node:_ZN5alita13OAuthResponse10SharedCtorEv
alita.node:_ZN5alita13OAuthResponse10SharedDtorEv
alita.node:_ZN5alita13OAuthResponse16default_instanceEv
alita.node:_ZN5alita13OAuthResponse17default_instance_E
alita.node:_ZN5alita13OAuthResponse18kErrMsgFieldNumberE
alita.node:_ZN5alita13OAuthResponse18kTaskIdFieldNumberE
alita.node:_ZN5alita13OAuthResponse19kErrCodeFieldNumberE
alita.node:_ZN5alita13OAuthResponse21CheckTypeAndMergeFromERKN7tencent8protobuf11MessageLiteE
alita.node:_ZN5alita13OAuthResponse21InitAsDefaultInstanceEv
alita.node:_ZN5alita13OAuthResponse23kOauthResultFieldNumberE
alita.node:_ZN5alita13OAuthResponse27MergePartialFromCodedStreamEPN7tencent8protobuf2io16CodedInputStreamE
alita.node:_ZN5alita13OAuthResponse4SwapEPS0_
alita.node:_ZN5alita13OAuthResponse5ClearEv
alita.node:_ZN5alita13OAuthResponse8CopyFromERKS0_
alita.node:_ZN5alita13OAuthResponse9MergeFromERKS0_
alita.node:_ZN5alita13OAuthResponseC1ERKS0_
alita.node:_ZN5alita13OAuthResponseC1Ev
alita.node:_ZN5alita13OAuthResponseC2ERKS0_
alita.node:_ZN5alita13OAuthResponseC2Ev
alita.node:_ZN5alita13OAuthResponseD0Ev
alita.node:_ZN5alita13OAuthResponseD1Ev
alita.node:_ZN5alita13OAuthResponseD2Ev
alita.node:_ZN5alita13RecordMessage10SharedCtorEv
alita.node:_ZN5alita13RecordMessage10SharedDtorEv
alita.node:_ZN5alita13RecordMessage16default_instanceEv
alita.node:_ZN5alita13RecordMessage17default_instance_E
alita.node:_ZN5alita13RecordMessage21CheckTypeAndMergeFromERKN7tencent8protobuf11MessageLiteE
alita.node:_ZN5alita13RecordMessage21InitAsDefaultInstanceEv
alita.node:_ZN5alita13RecordMessage22kRecordInfoFieldNumberE
alita.node:_ZN5alita13RecordMessage27MergePartialFromCodedStreamEPN7tencent8protobuf2io16CodedInputStreamE
alita.node:_ZN5alita13RecordMessage4SwapEPS0_
alita.node:_ZN5alita13RecordMessage5ClearEv
alita.node:_ZN5alita13RecordMessage8CopyFromERKS0_
alita.node:_ZN5alita13RecordMessage9MergeFromERKS0_
alita.node:_ZN5alita13RecordMessageC1ERKS0_
alita.node:_ZN5alita13RecordMessageC1Ev
alita.node:_ZN5alita13RecordMessageC2ERKS0_
alita.node:_ZN5alita13RecordMessageC2Ev
alita.node:_ZN5alita13RecordMessageD0Ev
alita.node:_ZN5alita13RecordMessageD1Ev
alita.node:_ZN5alita13RecordMessageD2Ev
alita.node:_ZN5alita13ReportManager12ReportKvDataERKN4Napi12CallbackInfoE
alita.node:_ZN5alita13ReportManager14SetDebugReportERKN4Napi12CallbackInfoE
alita.node:_ZN5alita13ReportManager15ReportIdKeyDataERKN4Napi12CallbackInfoE
alita.node:_ZN5alita13ReportManager4InitEN4Napi3EnvENS1_6ObjectE
alita.node:_ZN5alita13ReportManagerC1ERKN4Napi12CallbackInfoE
alita.node:_ZN5alita13ReportManagerC2ERKN4Napi12CallbackInfoE
alita.node:_ZN5alita13UploadLogInfo10SharedCtorEv
alita.node:_ZN5alita13UploadLogInfo10SharedDtorEv
alita.node:_ZN5alita13UploadLogInfo16default_instanceEv
alita.node:_ZN5alita13UploadLogInfo17default_instance_E
alita.node:_ZN5alita13UploadLogInfo20kTimespanFieldNumberE
alita.node:_ZN5alita13UploadLogInfo21CheckTypeAndMergeFromERKN7tencent8protobuf11MessageLiteE
alita.node:_ZN5alita13UploadLogInfo21InitAsDefaultInstanceEv
alita.node:_ZN5alita13UploadLogInfo27MergePartialFromCodedStreamEPN7tencent8protobuf2io16CodedInputStreamE
alita.node:_ZN5alita13UploadLogInfo4SwapEPS0_
alita.node:_ZN5alita13UploadLogInfo5ClearEv
alita.node:_ZN5alita13UploadLogInfo8CopyFromERKS0_
alita.node:_ZN5alita13UploadLogInfo9MergeFromERKS0_
alita.node:_ZN5alita13UploadLogInfoC1ERKS0_
alita.node:_ZN5alita13UploadLogInfoC1Ev
alita.node:_ZN5alita13UploadLogInfoC2ERKS0_
alita.node:_ZN5alita13UploadLogInfoC2Ev
alita.node:_ZN5alita13UploadLogInfoD0Ev
alita.node:_ZN5alita13UploadLogInfoD1Ev
alita.node:_ZN5alita13UploadLogInfoD2Ev
alita.node:_ZN5alita13VerifyContact10SharedCtorEv
alita.node:_ZN5alita13VerifyContact10SharedDtorEv
alita.node:_ZN5alita13VerifyContact15kSexFieldNumberE
alita.node:_ZN5alita13VerifyContact16default_instanceEv
alita.node:_ZN5alita13VerifyContact16kCityFieldNumberE
alita.node:_ZN5alita13VerifyContact16kSignFieldNumberE
alita.node:_ZN5alita13VerifyContact17default_instance_E
alita.node:_ZN5alita13VerifyContact17kAliasFieldNumberE
alita.node:_ZN5alita13VerifyContact17kSceneFieldNumberE
alita.node:_ZN5alita13VerifyContact17kStateFieldNumberE
alita.node:_ZN5alita13VerifyContact18kFullPyFieldNumberE
alita.node:_ZN5alita13VerifyContact18kOpcodeFieldNumberE
alita.node:_ZN5alita13VerifyContact19kContentFieldNumberE
alita.node:_ZN5alita13VerifyContact19kCountryFieldNumberE
alita.node:_ZN5alita13VerifyContact19kShortPyFieldNumberE
alita.node:_ZN5alita13VerifyContact20kNicknameFieldNumberE
alita.node:_ZN5alita13VerifyContact20kProvinceFieldNumberE
alita.node:_ZN5alita13VerifyContact20kUsernameFieldNumberE
alita.node:_ZN5alita13VerifyContact21CheckTypeAndMergeFromERKN7tencent8protobuf11MessageLiteE
alita.node:_ZN5alita13VerifyContact21InitAsDefaultInstanceEv
alita.node:_ZN5alita13VerifyContact21kAvatarUrlFieldNumberE
alita.node:_ZN5alita13VerifyContact22kCreateTimeFieldNumberE
alita.node:_ZN5alita13VerifyContact22kUpdateTimeFieldNumberE
alita.node:_ZN5alita13VerifyContact24kBigAvatarUrlFieldNumberE
alita.node:_ZN5alita13VerifyContact26kSourceNicknameFieldNumberE
alita.node:_ZN5alita13VerifyContact26kSourceUsernameFieldNumberE
alita.node:_ZN5alita13VerifyContact27MergePartialFromCodedStreamEPN7tencent8protobuf2io16CodedInputStreamE
alita.node:_ZN5alita13VerifyContact28kChatroomUsernameFieldNumberE
alita.node:_ZN5alita13VerifyContact29kShareCardNicknameFieldNumberE
alita.node:_ZN5alita13VerifyContact29kShareCardUsernameFieldNumberE
alita.node:_ZN5alita13VerifyContact4SwapEPS0_
alita.node:_ZN5alita13VerifyContact5ClearEv
alita.node:_ZN5alita13VerifyContact8CopyFromERKS0_
alita.node:_ZN5alita13VerifyContact9MergeFromERKS0_
alita.node:_ZN5alita13VerifyContactC1ERKS0_
alita.node:_ZN5alita13VerifyContactC1Ev
alita.node:_ZN5alita13VerifyContactC2ERKS0_
alita.node:_ZN5alita13VerifyContactC2Ev
alita.node:_ZN5alita13VerifyContactD0Ev
alita.node:_ZN5alita13VerifyContactD1Ev
alita.node:_ZN5alita13VerifyContactD2Ev
alita.node:_ZN5alita13WxcodepayInfo10SharedCtorEv
alita.node:_ZN5alita13WxcodepayInfo10SharedDtorEv
alita.node:_ZN5alita13WxcodepayInfo16default_instanceEv
alita.node:_ZN5alita13WxcodepayInfo17default_instance_E
alita.node:_ZN5alita13WxcodepayInfo20kBindInfoFieldNumberE
alita.node:_ZN5alita13WxcodepayInfo21CheckTypeAndMergeFromERKN7tencent8protobuf11MessageLiteE
alita.node:_ZN5alita13WxcodepayInfo21InitAsDefaultInstanceEv
alita.node:_ZN5alita13WxcodepayInfo22kSdkVersionFieldNumberE
alita.node:_ZN5alita13WxcodepayInfo27MergePartialFromCodedStreamEPN7tencent8protobuf2io16CodedInputStreamE
alita.node:_ZN5alita13WxcodepayInfo4SwapEPS0_
alita.node:_ZN5alita13WxcodepayInfo5ClearEv
alita.node:_ZN5alita13WxcodepayInfo8CopyFromERKS0_
alita.node:_ZN5alita13WxcodepayInfo9MergeFromERKS0_
alita.node:_ZN5alita13WxcodepayInfoC1ERKS0_
alita.node:_ZN5alita13WxcodepayInfoC1Ev
alita.node:_ZN5alita13WxcodepayInfoC2ERKS0_
alita.node:_ZN5alita13WxcodepayInfoC2Ev
alita.node:_ZN5alita13WxcodepayInfoD0Ev
alita.node:_ZN5alita13WxcodepayInfoD1Ev
alita.node:_ZN5alita13WxcodepayInfoD2Ev
alita.node:_ZN5alita14AppTextMessage10SharedCtorEv
alita.node:_ZN5alita14AppTextMessage10SharedDtorEv
alita.node:_ZN5alita14AppTextMessage15kDesFieldNumberE
alita.node:_ZN5alita14AppTextMessage16default_instanceEv
alita.node:_ZN5alita14AppTextMessage17default_instance_E
alita.node:_ZN5alita14AppTextMessage17kTitleFieldNumberE
alita.node:_ZN5alita14AppTextMessage21CheckTypeAndMergeFromERKN7tencent8protobuf11MessageLiteE
alita.node:_ZN5alita14AppTextMessage21InitAsDefaultInstanceEv
alita.node:_ZN5alita14AppTextMessage22kStatextstrFieldNumberE
alita.node:_ZN5alita14AppTextMessage27MergePartialFromCodedStreamEPN7tencent8protobuf2io16CodedInputStreamE
alita.node:_ZN5alita14AppTextMessage4SwapEPS0_
alita.node:_ZN5alita14AppTextMessage5ClearEv
alita.node:_ZN5alita14AppTextMessage8CopyFromERKS0_
alita.node:_ZN5alita14AppTextMessage9MergeFromERKS0_
alita.node:_ZN5alita14AppTextMessageC1ERKS0_
alita.node:_ZN5alita14AppTextMessageC1Ev
alita.node:_ZN5alita14AppTextMessageC2ERKS0_
alita.node:_ZN5alita14AppTextMessageC2Ev
alita.node:_ZN5alita14AppTextMessageD0Ev
alita.node:_ZN5alita14AppTextMessageD1Ev
alita.node:_ZN5alita14AppTextMessageD2Ev
alita.node:_ZN5alita14ChatRoomDetail10SharedCtorEv
alita.node:_ZN5alita14ChatRoomDetail10SharedDtorEv
alita.node:_ZN5alita14ChatRoomDetail16default_instanceEv
alita.node:_ZN5alita14ChatRoomDetail16kTypeFieldNumberE
alita.node:_ZN5alita14ChatRoomDetail17default_instance_E
alita.node:_ZN5alita14ChatRoomDetail17kOwnerFieldNumberE
alita.node:_ZN5alita14ChatRoomDetail18kStatusFieldNumberE
alita.node:_ZN5alita14ChatRoomDetail20kMaxCountFieldNumberE
alita.node:_ZN5alita14ChatRoomDetail20kNickNameFieldNumberE
alita.node:_ZN5alita14ChatRoomDetail20kUsernameFieldNumberE
alita.node:_ZN5alita14ChatRoomDetail21CheckTypeAndMergeFromERKN7tencent8protobuf11MessageLiteE
alita.node:_ZN5alita14ChatRoomDetail21InitAsDefaultInstanceEv
alita.node:_ZN5alita14ChatRoomDetail22kRemarknameFieldNumberE
alita.node:_ZN5alita14ChatRoomDetail22kSvrVersionFieldNumberE
alita.node:_ZN5alita14ChatRoomDetail24kAnnouncementFieldNumberE
alita.node:_ZN5alita14ChatRoomDetail25kClientVersionFieldNumberE
alita.node:_ZN5alita14ChatRoomDetail27MergePartialFromCodedStreamEPN7tencent8protobuf2io16CodedInputStreamE
alita.node:_ZN5alita14ChatRoomDetail30kAnnouncementEditorFieldNumberE
alita.node:_ZN5alita14ChatRoomDetail35kAnnouncementPublishTimeFieldNumberE
alita.node:_ZN5alita14ChatRoomDetail4SwapEPS0_
alita.node:_ZN5alita14ChatRoomDetail5ClearEv
alita.node:_ZN5alita14ChatRoomDetail8CopyFromERKS0_
alita.node:_ZN5alita14ChatRoomDetail9MergeFromERKS0_
alita.node:_ZN5alita14ChatRoomDetailC1ERKS0_
alita.node:_ZN5alita14ChatRoomDetailC1Ev
alita.node:_ZN5alita14ChatRoomDetailC2ERKS0_
alita.node:_ZN5alita14ChatRoomDetailC2Ev
alita.node:_ZN5alita14ChatRoomDetailD0Ev
alita.node:_ZN5alita14ChatRoomDetailD1Ev
alita.node:_ZN5alita14ChatRoomDetailD2Ev
alita.node:_ZN5alita14ChatRoomMember10SharedCtorEv
alita.node:_ZN5alita14ChatRoomMember10SharedDtorEv
alita.node:_ZN5alita14ChatRoomMember16default_instanceEv
alita.node:_ZN5alita14ChatRoomMember17default_instance_E
alita.node:_ZN5alita14ChatRoomMember20kNickNameFieldNumberE
alita.node:_ZN5alita14ChatRoomMember20kUsernameFieldNumberE
alita.node:_ZN5alita14ChatRoomMember21CheckTypeAndMergeFromERKN7tencent8protobuf11MessageLiteE
alita.node:_ZN5alita14ChatRoomMember21InitAsDefaultInstanceEv
alita.node:_ZN5alita14ChatRoomMember21kAvatarUrlFieldNumberE
alita.node:_ZN5alita14ChatRoomMember22kMemberFlagFieldNumberE
alita.node:_ZN5alita14ChatRoomMember23kDisplayNameFieldNumberE
alita.node:_ZN5alita14ChatRoomMember23kHdAvatarUrlFieldNumberE
alita.node:_ZN5alita14ChatRoomMember27MergePartialFromCodedStreamEPN7tencent8protobuf2io16CodedInputStreamE
alita.node:_ZN5alita14ChatRoomMember4SwapEPS0_
alita.node:_ZN5alita14ChatRoomMember5ClearEv
alita.node:_ZN5alita14ChatRoomMember8CopyFromERKS0_
alita.node:_ZN5alita14ChatRoomMember9MergeFromERKS0_
alita.node:_ZN5alita14ChatRoomMemberC1ERKS0_
alita.node:_ZN5alita14ChatRoomMemberC1Ev
alita.node:_ZN5alita14ChatRoomMemberC2ERKS0_
alita.node:_ZN5alita14ChatRoomMemberC2Ev
alita.node:_ZN5alita14ChatRoomMemberD0Ev
alita.node:_ZN5alita14ChatRoomMemberD1Ev
alita.node:_ZN5alita14ChatRoomMemberD2Ev
alita.node:_ZN5alita14ChatroomConfig10SharedCtorEv
alita.node:_ZN5alita14ChatroomConfig10SharedDtorEv
alita.node:_ZN5alita14ChatroomConfig16default_instanceEv
alita.node:_ZN5alita14ChatroomConfig17default_instance_E
alita.node:_ZN5alita14ChatroomConfig21CheckTypeAndMergeFromERKN7tencent8protobuf11MessageLiteE
alita.node:_ZN5alita14ChatroomConfig21InitAsDefaultInstanceEv
alita.node:_ZN5alita14ChatroomConfig27MergePartialFromCodedStreamEPN7tencent8protobuf2io16CodedInputStreamE
alita.node:_ZN5alita14ChatroomConfig29kIsDisableChatroomFieldNumberE
alita.node:_ZN5alita14ChatroomConfig4SwapEPS0_
alita.node:_ZN5alita14ChatroomConfig5ClearEv
alita.node:_ZN5alita14ChatroomConfig8CopyFromERKS0_
alita.node:_ZN5alita14ChatroomConfig9MergeFromERKS0_
alita.node:_ZN5alita14ChatroomConfigC1ERKS0_
alita.node:_ZN5alita14ChatroomConfigC1Ev
alita.node:_ZN5alita14ChatroomConfigC2ERKS0_
alita.node:_ZN5alita14ChatroomConfigC2Ev
alita.node:_ZN5alita14ChatroomConfigD0Ev
alita.node:_ZN5alita14ChatroomConfigD1Ev
alita.node:_ZN5alita14ChatroomConfigD2Ev
alita.node:_ZN5alita14CommonFileInfo10SharedCtorEv
alita.node:_ZN5alita14CommonFileInfo10SharedDtorEv
alita.node:_ZN5alita14CommonFileInfo15kExtFieldNumberE
alita.node:_ZN5alita14CommonFileInfo15kMd5FieldNumberE
alita.node:_ZN5alita14CommonFileInfo16default_instanceEv
alita.node:_ZN5alita14CommonFileInfo16kPathFieldNumberE
alita.node:_ZN5alita14CommonFileInfo16kSizeFieldNumberE
alita.node:_ZN5alita14CommonFileInfo17default_instance_E
alita.node:_ZN5alita14CommonFileInfo17kTitleFieldNumberE
alita.node:_ZN5alita14CommonFileInfo20kThumbMd5FieldNumberE
alita.node:_ZN5alita14CommonFileInfo21CheckTypeAndMergeFromERKN7tencent8protobuf11MessageLiteE
alita.node:_ZN5alita14CommonFileInfo21InitAsDefaultInstanceEv
alita.node:_ZN5alita14CommonFileInfo21kThumbPathFieldNumberE
alita.node:_ZN5alita14CommonFileInfo21kThumbSizeFieldNumberE
alita.node:_ZN5alita14CommonFileInfo22kThumbWidthFieldNumberE
alita.node:_ZN5alita14CommonFileInfo23kThumbHeightFieldNumberE
alita.node:_ZN5alita14CommonFileInfo27MergePartialFromCodedStreamEPN7tencent8protobuf2io16CodedInputStreamE
alita.node:_ZN5alita14CommonFileInfo4SwapEPS0_
alita.node:_ZN5alita14CommonFileInfo5ClearEv
alita.node:_ZN5alita14CommonFileInfo8CopyFromERKS0_
alita.node:_ZN5alita14CommonFileInfo9MergeFromERKS0_
alita.node:_ZN5alita14CommonFileInfoC1ERKS0_
alita.node:_ZN5alita14CommonFileInfoC1Ev
alita.node:_ZN5alita14CommonFileInfoC2ERKS0_
alita.node:_ZN5alita14CommonFileInfoC2Ev
alita.node:_ZN5alita14CommonFileInfoD0Ev
alita.node:_ZN5alita14CommonFileInfoD1Ev
alita.node:_ZN5alita14CommonFileInfoD2Ev
alita.node:_ZN5alita14ContactManager10GetContactERKN4Napi12CallbackInfoE
alita.node:_ZN5alita14ContactManager11SetOnNotifyERKN4Napi12CallbackInfoE
alita.node:_ZN5alita14ContactManager12GetInitStateERKN4Napi12CallbackInfoE
alita.node:_ZN5alita14ContactManager14GetContactListERKN4Napi12CallbackInfoE
alita.node:_ZN5alita14ContactManager16GetVerifyContactERKN4Napi12CallbackInfoE
alita.node:_ZN5alita14ContactManager17AddToContactAsyncERKN4Napi12CallbackInfoE
alita.node:_ZN5alita14ContactManager17HandleVerifyAsyncERKN4Napi12CallbackInfoE
alita.node:_ZN5alita14ContactManager17InitContactsAsyncERKN4Napi12CallbackInfoE
alita.node:_ZN5alita14ContactManager18DeleteContactAsyncERKN4Napi12CallbackInfoE
alita.node:_ZN5alita14ContactManager18RemarkContactAsyncERKN4Napi12CallbackInfoE
alita.node:_ZN5alita14ContactManager18SearchContactAsyncERKN4Napi12CallbackInfoE
alita.node:_ZN5alita14ContactManager18UpdateContactAsyncERKN4Napi12CallbackInfoE
alita.node:_ZN5alita14ContactManager19SetContactMuteAsyncERKN4Napi12CallbackInfoE
alita.node:_ZN5alita14ContactManager20EventExecuteCallbackERKN4Napi12CallbackInfoE
alita.node:_ZN5alita14ContactManager20GetVerifyContactListERKN4Napi12CallbackInfoE
alita.node:_ZN5alita14ContactManager20SetContactOnTopAsyncERKN4Napi12CallbackInfoE
alita.node:_ZN5alita14ContactManager23BatchUpdateContactAsyncERKN4Napi12CallbackInfoE
alita.node:_ZN5alita14ContactManager23GetVerifyContactSummaryERKN4Napi12CallbackInfoE
alita.node:_ZN5alita14ContactManager26SendAddContactRequestAsyncERKN4Napi12CallbackInfoE
alita.node:_ZN5alita14ContactManager4InitEN4Napi3EnvENS1_6ObjectE
alita.node:_ZN5alita14ContactManagerC1ERKN4Napi12CallbackInfoE
alita.node:_ZN5alita14ContactManagerC2ERKN4Napi12CallbackInfoE
alita.node:_ZN5alita14ContextRequest10SharedCtorEv
alita.node:_ZN5alita14ContextRequest10SharedDtorEv
alita.node:_ZN5alita14ContextRequest16default_instanceEv
alita.node:_ZN5alita14ContextRequest17default_instance_E
alita.node:_ZN5alita14ContextRequest21CheckTypeAndMergeFromERKN7tencent8protobuf11MessageLiteE
alita.node:_ZN5alita14ContextRequest21InitAsDefaultInstanceEv
alita.node:_ZN5alita14ContextRequest21kContextIdFieldNumberE
alita.node:_ZN5alita14ContextRequest27MergePartialFromCodedStreamEPN7tencent8protobuf2io16CodedInputStreamE
alita.node:_ZN5alita14ContextRequest4SwapEPS0_
alita.node:_ZN5alita14ContextRequest5ClearEv
alita.node:_ZN5alita14ContextRequest8CopyFromERKS0_
alita.node:_ZN5alita14ContextRequest9MergeFromERKS0_
alita.node:_ZN5alita14ContextRequestC1ERKS0_
alita.node:_ZN5alita14ContextRequestC1Ev
alita.node:_ZN5alita14ContextRequestC2ERKS0_
alita.node:_ZN5alita14ContextRequestC2Ev
alita.node:_ZN5alita14ContextRequestD0Ev
alita.node:_ZN5alita14ContextRequestD1Ev
alita.node:_ZN5alita14ContextRequestD2Ev
alita.node:_ZN5alita14CustomizedInfo10SharedCtorEv
alita.node:_ZN5alita14CustomizedInfo10SharedDtorEv
alita.node:_ZN5alita14CustomizedInfo16default_instanceEv
alita.node:_ZN5alita14CustomizedInfo17default_instance_E
alita.node:_ZN5alita14CustomizedInfo21CheckTypeAndMergeFromERKN7tencent8protobuf11MessageLiteE
alita.node:_ZN5alita14CustomizedInfo21InitAsDefaultInstanceEv
alita.node:_ZN5alita14CustomizedInfo21kBrandFlagFieldNumberE
alita.node:_ZN5alita14CustomizedInfo21kBrandInfoFieldNumberE
alita.node:_ZN5alita14CustomizedInfo24kBrandIconURLFieldNumberE
alita.node:_ZN5alita14CustomizedInfo24kExternalInfoFieldNumberE
alita.node:_ZN5alita14CustomizedInfo27MergePartialFromCodedStreamEPN7tencent8protobuf2io16CodedInputStreamE
alita.node:_ZN5alita14CustomizedInfo4SwapEPS0_
alita.node:_ZN5alita14CustomizedInfo5ClearEv
alita.node:_ZN5alita14CustomizedInfo8CopyFromERKS0_
alita.node:_ZN5alita14CustomizedInfo9MergeFromERKS0_
alita.node:_ZN5alita14CustomizedInfoC1ERKS0_
alita.node:_ZN5alita14CustomizedInfoC1Ev
alita.node:_ZN5alita14CustomizedInfoC2ERKS0_
alita.node:_ZN5alita14CustomizedInfoC2Ev
alita.node:_ZN5alita14CustomizedInfoD0Ev
alita.node:_ZN5alita14CustomizedInfoD1Ev
alita.node:_ZN5alita14CustomizedInfoD2Ev
alita.node:_ZN5alita14DataItemSource10SharedCtorEv
alita.node:_ZN5alita14DataItemSource10SharedDtorEv
alita.node:_ZN5alita14DataItemSource16default_instanceEv
alita.node:_ZN5alita14DataItemSource17default_instance_E
alita.node:_ZN5alita14DataItemSource19kFromusrFieldNumberE
alita.node:_ZN5alita14DataItemSource21CheckTypeAndMergeFromERKN7tencent8protobuf11MessageLiteE
alita.node:_ZN5alita14DataItemSource21InitAsDefaultInstanceEv
alita.node:_ZN5alita14DataItemSource24kRealChatNameFieldNumberE
alita.node:_ZN5alita14DataItemSource27MergePartialFromCodedStreamEPN7tencent8protobuf2io16CodedInputStreamE
alita.node:_ZN5alita14DataItemSource4SwapEPS0_
alita.node:_ZN5alita14DataItemSource5ClearEv
alita.node:_ZN5alita14DataItemSource8CopyFromERKS0_
alita.node:_ZN5alita14DataItemSource9MergeFromERKS0_
alita.node:_ZN5alita14DataItemSourceC1ERKS0_
alita.node:_ZN5alita14DataItemSourceC1Ev
alita.node:_ZN5alita14DataItemSourceC2ERKS0_
alita.node:_ZN5alita14DataItemSourceC2Ev
alita.node:_ZN5alita14DataItemSourceD0Ev
alita.node:_ZN5alita14DataItemSourceD1Ev
alita.node:_ZN5alita14DataItemSourceD2Ev
alita.node:_ZN5alita14DisturbSetting10SharedCtorEv
alita.node:_ZN5alita14DisturbSetting10SharedDtorEv
alita.node:_ZN5alita14DisturbSetting16default_instanceEv
alita.node:_ZN5alita14DisturbSetting17default_instance_E
alita.node:_ZN5alita14DisturbSetting21CheckTypeAndMergeFromERKN7tencent8protobuf11MessageLiteE
alita.node:_ZN5alita14DisturbSetting21InitAsDefaultInstanceEv
alita.node:_ZN5alita14DisturbSetting21kNightTimeFieldNumberE
alita.node:_ZN5alita14DisturbSetting22kAllDayTimeFieldNumberE
alita.node:_ZN5alita14DisturbSetting24kNightSettingFieldNumberE
alita.node:_ZN5alita14DisturbSetting25kAllDaySettingFieldNumberE
alita.node:_ZN5alita14DisturbSetting27MergePartialFromCodedStreamEPN7tencent8protobuf2io16CodedInputStreamE
alita.node:_ZN5alita14DisturbSetting4SwapEPS0_
alita.node:_ZN5alita14DisturbSetting5ClearEv
alita.node:_ZN5alita14DisturbSetting8CopyFromERKS0_
alita.node:_ZN5alita14DisturbSetting9MergeFromERKS0_
alita.node:_ZN5alita14DisturbSettingC1ERKS0_
alita.node:_ZN5alita14DisturbSettingC1Ev
alita.node:_ZN5alita14DisturbSettingC2ERKS0_
alita.node:_ZN5alita14DisturbSettingC2Ev
alita.node:_ZN5alita14DisturbSettingD0Ev
alita.node:_ZN5alita14DisturbSettingD1Ev
alita.node:_ZN5alita14DisturbSettingD2Ev
alita.node:_ZN5alita14LogoutResponse10SharedCtorEv
alita.node:_ZN5alita14LogoutResponse10SharedDtorEv
alita.node:_ZN5alita14LogoutResponse16default_instanceEv
alita.node:_ZN5alita14LogoutResponse17default_instance_E
alita.node:_ZN5alita14LogoutResponse18kErrMsgFieldNumberE
alita.node:_ZN5alita14LogoutResponse18kTaskIdFieldNumberE
alita.node:_ZN5alita14LogoutResponse19kErrCodeFieldNumberE
alita.node:_ZN5alita14LogoutResponse21CheckTypeAndMergeFromERKN7tencent8protobuf11MessageLiteE
alita.node:_ZN5alita14LogoutResponse21InitAsDefaultInstanceEv
alita.node:_ZN5alita14LogoutResponse27MergePartialFromCodedStreamEPN7tencent8protobuf2io16CodedInputStreamE
alita.node:_ZN5alita14LogoutResponse4SwapEPS0_
alita.node:_ZN5alita14LogoutResponse5ClearEv
alita.node:_ZN5alita14LogoutResponse8CopyFromERKS0_
alita.node:_ZN5alita14LogoutResponse9MergeFromERKS0_
alita.node:_ZN5alita14LogoutResponseC1ERKS0_
alita.node:_ZN5alita14LogoutResponseC1Ev
alita.node:_ZN5alita14LogoutResponseC2ERKS0_
alita.node:_ZN5alita14LogoutResponseC2Ev
alita.node:_ZN5alita14LogoutResponseD0Ev
alita.node:_ZN5alita14LogoutResponseD1Ev
alita.node:_ZN5alita14LogoutResponseD2Ev
alita.node:_ZN5alita14MessageManager10GetMessageERKN4Napi12CallbackInfoE
alita.node:_ZN5alita14MessageManager11SetOnNotifyERKN4Napi12CallbackInfoE
alita.node:_ZN5alita14MessageManager13DeleteMessageERKN4Napi12CallbackInfoE
alita.node:_ZN5alita14MessageManager14DeleteMessage1ERKN4Napi12CallbackInfoE
alita.node:_ZN5alita14MessageManager14GetMessageListERKN4Napi12CallbackInfoE
alita.node:_ZN5alita14MessageManager15GetMessageList1ERKN4Napi12CallbackInfoE
alita.node:_ZN5alita14MessageManager17CancelSendMessageERKN4Napi12CallbackInfoE
alita.node:_ZN5alita14MessageManager17MarkMessageOpenedERKN4Napi12CallbackInfoE
alita.node:_ZN5alita14MessageManager17TransMessageAsyncERKN4Napi12CallbackInfoE
alita.node:_ZN5alita14MessageManager18MarkMessageHandledERKN4Napi12CallbackInfoE
alita.node:_ZN5alita14MessageManager18RecallMessageAsyncERKN4Napi12CallbackInfoE
alita.node:_ZN5alita14MessageManager18ReloadMessageAsyncERKN4Napi12CallbackInfoE
alita.node:_ZN5alita14MessageManager18ResendMessageAsyncERKN4Napi12CallbackInfoE
alita.node:_ZN5alita14MessageManager19ForwardMessageAsyncERKN4Napi12CallbackInfoE
alita.node:_ZN5alita14MessageManager19MarkMessagesHandledERKN4Napi12CallbackInfoE
alita.node:_ZN5alita14MessageManager19SendAppMessageAsyncERKN4Napi12CallbackInfoE
alita.node:_ZN5alita14MessageManager20EventExecuteCallbackERKN4Napi12CallbackInfoE
alita.node:_ZN5alita14MessageManager20SendTextMessageAsyncERKN4Napi12CallbackInfoE
alita.node:_ZN5alita14MessageManager21SendEmojiMessageAsyncERKN4Napi12CallbackInfoE
alita.node:_ZN5alita14MessageManager21SendImageMessageAsyncERKN4Napi12CallbackInfoE
alita.node:_ZN5alita14MessageManager21SendVideoMessageAsyncERKN4Napi12CallbackInfoE
alita.node:_ZN5alita14MessageManager21SendVoiceMessageAsyncERKN4Napi12CallbackInfoE
alita.node:_ZN5alita14MessageManager25SearchMessageWithKeywordsERKN4Napi12CallbackInfoE
alita.node:_ZN5alita14MessageManager25SendTextMessageExtenAsyncERKN4Napi12CallbackInfoE
alita.node:_ZN5alita14MessageManager26SearchMessageWithKeywords1ERKN4Napi12CallbackInfoE
alita.node:_ZN5alita14MessageManager26SearchMessageWithKeywords2ERKN4Napi12CallbackInfoE
alita.node:_ZN5alita14MessageManager27DownloadMessageContentAsyncERKN4Napi12CallbackInfoE
alita.node:_ZN5alita14MessageManager30DownloadSubMessageContentAsyncERKN4Napi12CallbackInfoE
alita.node:_ZN5alita14MessageManager4InitEN4Napi3EnvENS1_6ObjectE
alita.node:_ZN5alita14MessageManagerC1ERKN4Napi12CallbackInfoE
alita.node:_ZN5alita14MessageManagerC2ERKN4Napi12CallbackInfoE
alita.node:_ZN5alita14OauthScopeInfo10SharedCtorEv
alita.node:_ZN5alita14OauthScopeInfo10SharedDtorEv
alita.node:_ZN5alita14OauthScopeInfo16default_instanceEv
alita.node:_ZN5alita14OauthScopeInfo16kDescFieldNumberE
alita.node:_ZN5alita14OauthScopeInfo17default_instance_E
alita.node:_ZN5alita14OauthScopeInfo17kScopeFieldNumberE
alita.node:_ZN5alita14OauthScopeInfo21CheckTypeAndMergeFromERKN7tencent8protobuf11MessageLiteE
alita.node:_ZN5alita14OauthScopeInfo21InitAsDefaultInstanceEv
alita.node:_ZN5alita14OauthScopeInfo21kAuthStateFieldNumberE
alita.node:_ZN5alita14OauthScopeInfo27MergePartialFromCodedStreamEPN7tencent8protobuf2io16CodedInputStreamE
alita.node:_ZN5alita14OauthScopeInfo4SwapEPS0_
alita.node:_ZN5alita14OauthScopeInfo5ClearEv
alita.node:_ZN5alita14OauthScopeInfo8CopyFromERKS0_
alita.node:_ZN5alita14OauthScopeInfo9MergeFromERKS0_
alita.node:_ZN5alita14OauthScopeInfoC1ERKS0_
alita.node:_ZN5alita14OauthScopeInfoC1Ev
alita.node:_ZN5alita14OauthScopeInfoC2ERKS0_
alita.node:_ZN5alita14OauthScopeInfoC2Ev
alita.node:_ZN5alita14OauthScopeInfoD0Ev
alita.node:_ZN5alita14OauthScopeInfoD1Ev
alita.node:_ZN5alita14OauthScopeInfoD2Ev
alita.node:_ZN5alita14OpensdkManager10OAuthAsyncERKN4Napi12CallbackInfoE
alita.node:_ZN5alita14OpensdkManager11CreateTokenERKN4Napi12CallbackInfoE
alita.node:_ZN5alita14OpensdkManager16RegisterAppAsyncERKN4Napi12CallbackInfoE
alita.node:_ZN5alita14OpensdkManager17OAuthConfirmAsyncERKN4Napi12CallbackInfoE
alita.node:_ZN5alita14OpensdkManager20ShareAppMessageAsyncERKN4Napi12CallbackInfoE
alita.node:_ZN5alita14OpensdkManager20ShareUrlMessageAsyncERKN4Napi12CallbackInfoE
alita.node:_ZN5alita14OpensdkManager21ShareFileMessageAsyncERKN4Napi12CallbackInfoE
alita.node:_ZN5alita14OpensdkManager21ShareTextMessageAsyncERKN4Napi12CallbackInfoE
alita.node:_ZN5alita14OpensdkManager22ShareEmojiMessageAsyncERKN4Napi12CallbackInfoE
alita.node:_ZN5alita14OpensdkManager22ShareImageMessageAsyncERKN4Napi12CallbackInfoE
alita.node:_ZN5alita14OpensdkManager22ShareMusicMessageAsyncERKN4Napi12CallbackInfoE
alita.node:_ZN5alita14OpensdkManager22ShareVideoMessageAsyncERKN4Napi12CallbackInfoE
alita.node:_ZN5alita14OpensdkManager24ShareMusicMvMessageAsyncERKN4Napi12CallbackInfoE
alita.node:_ZN5alita14OpensdkManager25ShareAppBrandMessageAsyncERKN4Napi12CallbackInfoE
alita.node:_ZN5alita14OpensdkManager4InitEN4Napi3EnvENS1_6ObjectE
alita.node:_ZN5alita14OpensdkManagerC1ERKN4Napi12CallbackInfoE
alita.node:_ZN5alita14OpensdkManagerC2ERKN4Napi12CallbackInfoE
alita.node:_ZN5alita14SafeDeviceList10SharedCtorEv
alita.node:_ZN5alita14SafeDeviceList10SharedDtorEv
alita.node:_ZN5alita14SafeDeviceList16default_instanceEv
alita.node:_ZN5alita14SafeDeviceList16kListFieldNumberE
alita.node:_ZN5alita14SafeDeviceList17default_instance_E
alita.node:_ZN5alita14SafeDeviceList17kCountFieldNumberE
alita.node:_ZN5alita14SafeDeviceList21CheckTypeAndMergeFromERKN7tencent8protobuf11MessageLiteE
alita.node:_ZN5alita14SafeDeviceList21InitAsDefaultInstanceEv
alita.node:_ZN5alita14SafeDeviceList27MergePartialFromCodedStreamEPN7tencent8protobuf2io16CodedInputStreamE
alita.node:_ZN5alita14SafeDeviceList4SwapEPS0_
alita.node:_ZN5alita14SafeDeviceList5ClearEv
alita.node:_ZN5alita14SafeDeviceList8CopyFromERKS0_
alita.node:_ZN5alita14SafeDeviceList9MergeFromERKS0_
alita.node:_ZN5alita14SafeDeviceListC1ERKS0_
alita.node:_ZN5alita14SafeDeviceListC1Ev
alita.node:_ZN5alita14SafeDeviceListC2ERKS0_
alita.node:_ZN5alita14SafeDeviceListC2Ev
alita.node:_ZN5alita14SafeDeviceListD0Ev
alita.node:_ZN5alita14SafeDeviceListD1Ev
alita.node:_ZN5alita14SafeDeviceListD2Ev
alita.node:_ZN5alita14SecurityConfig10SharedCtorEv
alita.node:_ZN5alita14SecurityConfig10SharedDtorEv
alita.node:_ZN5alita14SecurityConfig16default_instanceEv
alita.node:_ZN5alita14SecurityConfig17default_instance_E
alita.node:_ZN5alita14SecurityConfig18kCaPathFieldNumberE
alita.node:_ZN5alita14SecurityConfig21CheckTypeAndMergeFromERKN7tencent8protobuf11MessageLiteE
alita.node:_ZN5alita14SecurityConfig21InitAsDefaultInstanceEv
alita.node:_ZN5alita14SecurityConfig27MergePartialFromCodedStreamEPN7tencent8protobuf2io16CodedInputStreamE
alita.node:_ZN5alita14SecurityConfig4SwapEPS0_
alita.node:_ZN5alita14SecurityConfig5ClearEv
alita.node:_ZN5alita14SecurityConfig8CopyFromERKS0_
alita.node:_ZN5alita14SecurityConfig9MergeFromERKS0_
alita.node:_ZN5alita14SecurityConfigC1ERKS0_
alita.node:_ZN5alita14SecurityConfigC1Ev
alita.node:_ZN5alita14SecurityConfigC2ERKS0_
alita.node:_ZN5alita14SecurityConfigC2Ev
alita.node:_ZN5alita14SecurityConfigD0Ev
alita.node:_ZN5alita14SecurityConfigD1Ev
alita.node:_ZN5alita14SecurityConfigD2Ev
alita.node:_ZN5alita14ShareEmojiInfo10SharedCtorEv
alita.node:_ZN5alita14ShareEmojiInfo10SharedDtorEv
alita.node:_ZN5alita14ShareEmojiInfo16default_instanceEv
alita.node:_ZN5alita14ShareEmojiInfo17default_instance_E
alita.node:_ZN5alita14ShareEmojiInfo21CheckTypeAndMergeFromERKN7tencent8protobuf11MessageLiteE
alita.node:_ZN5alita14ShareEmojiInfo21InitAsDefaultInstanceEv
alita.node:_ZN5alita14ShareEmojiInfo21kEmojiPathFieldNumberE
alita.node:_ZN5alita14ShareEmojiInfo26kEmojiThumbPathFieldNumberE
alita.node:_ZN5alita14ShareEmojiInfo27MergePartialFromCodedStreamEPN7tencent8protobuf2io16CodedInputStreamE
alita.node:_ZN5alita14ShareEmojiInfo4SwapEPS0_
alita.node:_ZN5alita14ShareEmojiInfo5ClearEv
alita.node:_ZN5alita14ShareEmojiInfo8CopyFromERKS0_
alita.node:_ZN5alita14ShareEmojiInfo9MergeFromERKS0_
alita.node:_ZN5alita14ShareEmojiInfoC1ERKS0_
alita.node:_ZN5alita14ShareEmojiInfoC1Ev
alita.node:_ZN5alita14ShareEmojiInfoC2ERKS0_
alita.node:_ZN5alita14ShareEmojiInfoC2Ev
alita.node:_ZN5alita14ShareEmojiInfoD0Ev
alita.node:_ZN5alita14ShareEmojiInfoD1Ev
alita.node:_ZN5alita14ShareEmojiInfoD2Ev
alita.node:_ZN5alita14ShareMusicInfo10SharedCtorEv
alita.node:_ZN5alita14ShareMusicInfo10SharedDtorEv
alita.node:_ZN5alita14ShareMusicInfo16default_instanceEv
alita.node:_ZN5alita14ShareMusicInfo17default_instance_E
alita.node:_ZN5alita14ShareMusicInfo20kMusicUrlFieldNumberE
alita.node:_ZN5alita14ShareMusicInfo20kVoipInfoFieldNumberE
alita.node:_ZN5alita14ShareMusicInfo21CheckTypeAndMergeFromERKN7tencent8protobuf11MessageLiteE
alita.node:_ZN5alita14ShareMusicInfo21InitAsDefaultInstanceEv
alita.node:_ZN5alita14ShareMusicInfo21kAlbumNameFieldNumberE
alita.node:_ZN5alita14ShareMusicInfo21kIssueDateFieldNumberE
alita.node:_ZN5alita14ShareMusicInfo21kSongLyricFieldNumberE
alita.node:_ZN5alita14ShareMusicInfo22kDurationMsFieldNumberE
alita.node:_ZN5alita14ShareMusicInfo22kMusicGenreFieldNumberE
alita.node:_ZN5alita14ShareMusicInfo22kSingerNameFieldNumberE
alita.node:_ZN5alita14ShareMusicInfo24kMusicDataUrlFieldNumberE
alita.node:_ZN5alita14ShareMusicInfo24kSongAlbumUrlFieldNumberE
alita.node:_ZN5alita14ShareMusicInfo26kIdentificationFieldNumberE
alita.node:_ZN5alita14ShareMusicInfo27MergePartialFromCodedStreamEPN7tencent8protobuf2io16CodedInputStreamE
alita.node:_ZN5alita14ShareMusicInfo29kMusicOperationUrlFieldNumberE
alita.node:_ZN5alita14ShareMusicInfo4SwapEPS0_
alita.node:_ZN5alita14ShareMusicInfo5ClearEv
alita.node:_ZN5alita14ShareMusicInfo8CopyFromERKS0_
alita.node:_ZN5alita14ShareMusicInfo9MergeFromERKS0_
alita.node:_ZN5alita14ShareMusicInfoC1ERKS0_
alita.node:_ZN5alita14ShareMusicInfoC1Ev
alita.node:_ZN5alita14ShareMusicInfoC2ERKS0_
alita.node:_ZN5alita14ShareMusicInfoC2Ev
alita.node:_ZN5alita14ShareMusicInfoD0Ev
alita.node:_ZN5alita14ShareMusicInfoD1Ev
alita.node:_ZN5alita14ShareMusicInfoD2Ev
alita.node:_ZN5alita14ShareVideoInfo10SharedCtorEv
alita.node:_ZN5alita14ShareVideoInfo10SharedDtorEv
alita.node:_ZN5alita14ShareVideoInfo16default_instanceEv
alita.node:_ZN5alita14ShareVideoInfo17default_instance_E
alita.node:_ZN5alita14ShareVideoInfo20kVideoUrlFieldNumberE
alita.node:_ZN5alita14ShareVideoInfo21CheckTypeAndMergeFromERKN7tencent8protobuf11MessageLiteE
alita.node:_ZN5alita14ShareVideoInfo21InitAsDefaultInstanceEv
alita.node:_ZN5alita14ShareVideoInfo25kVideoFilePathFieldNumberE
alita.node:_ZN5alita14ShareVideoInfo27MergePartialFromCodedStreamEPN7tencent8protobuf2io16CodedInputStreamE
alita.node:_ZN5alita14ShareVideoInfo27kVideoLowBandUrlFieldNumberE
alita.node:_ZN5alita14ShareVideoInfo4SwapEPS0_
alita.node:_ZN5alita14ShareVideoInfo5ClearEv
alita.node:_ZN5alita14ShareVideoInfo8CopyFromERKS0_
alita.node:_ZN5alita14ShareVideoInfo9MergeFromERKS0_
alita.node:_ZN5alita14ShareVideoInfoC1ERKS0_
alita.node:_ZN5alita14ShareVideoInfoC1Ev
alita.node:_ZN5alita14ShareVideoInfoC2ERKS0_
alita.node:_ZN5alita14ShareVideoInfoC2Ev
alita.node:_ZN5alita14ShareVideoInfoD0Ev
alita.node:_ZN5alita14ShareVideoInfoD1Ev
alita.node:_ZN5alita14ShareVideoInfoD2Ev
alita.node:_ZN5alita14StartConfig4Js10SharedCtorEv
alita.node:_ZN5alita14StartConfig4Js10SharedDtorEv
alita.node:_ZN5alita14StartConfig4Js16default_instanceEv
alita.node:_ZN5alita14StartConfig4Js17default_instance_E
alita.node:_ZN5alita14StartConfig4Js19kDebugIpFieldNumberE
alita.node:_ZN5alita14StartConfig4Js19kSdkPathFieldNumberE
alita.node:_ZN5alita14StartConfig4Js20kDeviceIdFieldNumberE
alita.node:_ZN5alita14StartConfig4Js21CheckTypeAndMergeFromERKN7tencent8protobuf11MessageLiteE
alita.node:_ZN5alita14StartConfig4Js21InitAsDefaultInstanceEv
alita.node:_ZN5alita14StartConfig4Js22kDeviceNameFieldNumberE
alita.node:_ZN5alita14StartConfig4Js22kDeviceTypeFieldNumberE
alita.node:_ZN5alita14StartConfig4Js23kCacheConfigFieldNumberE
alita.node:_ZN5alita14StartConfig4Js23kEmojiConfigFieldNumberE
alita.node:_ZN5alita14StartConfig4Js24kAutoDownloadFieldNumberE
alita.node:_ZN5alita14StartConfig4Js24kDeviceTypeIdFieldNumberE
alita.node:_ZN5alita14StartConfig4Js25kClientVersionFieldNumberE
alita.node:_ZN5alita14StartConfig4Js25kContactConfigFieldNumberE
alita.node:_ZN5alita14StartConfig4Js26kChatroomConfigFieldNumberE
alita.node:_ZN5alita14StartConfig4Js27MergePartialFromCodedStreamEPN7tencent8protobuf2io16CodedInputStreamE
alita.node:_ZN5alita14StartConfig4Js29kEnvironmentConfigFieldNumberE
alita.node:_ZN5alita14StartConfig4Js30kConversationConfigFieldNumberE
alita.node:_ZN5alita14StartConfig4Js4SwapEPS0_
alita.node:_ZN5alita14StartConfig4Js5ClearEv
alita.node:_ZN5alita14StartConfig4Js8CopyFromERKS0_
alita.node:_ZN5alita14StartConfig4Js9MergeFromERKS0_
alita.node:_ZN5alita14StartConfig4JsC1ERKS0_
alita.node:_ZN5alita14StartConfig4JsC1Ev
alita.node:_ZN5alita14StartConfig4JsC2ERKS0_
alita.node:_ZN5alita14StartConfig4JsC2Ev
alita.node:_ZN5alita14StartConfig4JsD0Ev
alita.node:_ZN5alita14StartConfig4JsD1Ev
alita.node:_ZN5alita14StartConfig4JsD2Ev
alita.node:_ZN5alita14StoreEmojiList10SharedCtorEv
alita.node:_ZN5alita14StoreEmojiList10SharedDtorEv
alita.node:_ZN5alita14StoreEmojiList16default_instanceEv
alita.node:_ZN5alita14StoreEmojiList17default_instance_E
alita.node:_ZN5alita14StoreEmojiList21CheckTypeAndMergeFromERKN7tencent8protobuf11MessageLiteE
alita.node:_ZN5alita14StoreEmojiList21InitAsDefaultInstanceEv
alita.node:_ZN5alita14StoreEmojiList21kEmojiPackFieldNumberE
alita.node:_ZN5alita14StoreEmojiList27MergePartialFromCodedStreamEPN7tencent8protobuf2io16CodedInputStreamE
alita.node:_ZN5alita14StoreEmojiList4SwapEPS0_
alita.node:_ZN5alita14StoreEmojiList5ClearEv
alita.node:_ZN5alita14StoreEmojiList8CopyFromERKS0_
alita.node:_ZN5alita14StoreEmojiList9MergeFromERKS0_
alita.node:_ZN5alita14StoreEmojiListC1ERKS0_
alita.node:_ZN5alita14StoreEmojiListC1Ev
alita.node:_ZN5alita14StoreEmojiListC2ERKS0_
alita.node:_ZN5alita14StoreEmojiListC2Ev
alita.node:_ZN5alita14StoreEmojiListD0Ev
alita.node:_ZN5alita14StoreEmojiListD1Ev
alita.node:_ZN5alita14StoreEmojiListD2Ev
alita.node:_ZN5alita14StoreEmojiPack10SharedCtorEv
alita.node:_ZN5alita14StoreEmojiPack10SharedDtorEv
alita.node:_ZN5alita14StoreEmojiPack16default_instanceEv
alita.node:_ZN5alita14StoreEmojiPack16kNameFieldNumberE
alita.node:_ZN5alita14StoreEmojiPack17default_instance_E
alita.node:_ZN5alita14StoreEmojiPack17kEmojiFieldNumberE
alita.node:_ZN5alita14StoreEmojiPack19kIconUrlFieldNumberE
alita.node:_ZN5alita14StoreEmojiPack20kPanelUrlFieldNumberE
alita.node:_ZN5alita14StoreEmojiPack21CheckTypeAndMergeFromERKN7tencent8protobuf11MessageLiteE
alita.node:_ZN5alita14StoreEmojiPack21InitAsDefaultInstanceEv
alita.node:_ZN5alita14StoreEmojiPack21kProductIdFieldNumberE
alita.node:_ZN5alita14StoreEmojiPack27MergePartialFromCodedStreamEPN7tencent8protobuf2io16CodedInputStreamE
alita.node:_ZN5alita14StoreEmojiPack4SwapEPS0_
alita.node:_ZN5alita14StoreEmojiPack5ClearEv
alita.node:_ZN5alita14StoreEmojiPack8CopyFromERKS0_
alita.node:_ZN5alita14StoreEmojiPack9MergeFromERKS0_
alita.node:_ZN5alita14StoreEmojiPackC1ERKS0_
alita.node:_ZN5alita14StoreEmojiPackC1Ev
alita.node:_ZN5alita14StoreEmojiPackC2ERKS0_
alita.node:_ZN5alita14StoreEmojiPackC2Ev
alita.node:_ZN5alita14StoreEmojiPackD0Ev
alita.node:_ZN5alita14StoreEmojiPackD1Ev
alita.node:_ZN5alita14StoreEmojiPackD2Ev
alita.node:_ZN5alita14UnInitResponse10SharedCtorEv
alita.node:_ZN5alita14UnInitResponse10SharedDtorEv
alita.node:_ZN5alita14UnInitResponse16default_instanceEv
alita.node:_ZN5alita14UnInitResponse17default_instance_E
alita.node:_ZN5alita14UnInitResponse19kErrCodeFieldNumberE
alita.node:_ZN5alita14UnInitResponse21CheckTypeAndMergeFromERKN7tencent8protobuf11MessageLiteE
alita.node:_ZN5alita14UnInitResponse21InitAsDefaultInstanceEv
alita.node:_ZN5alita14UnInitResponse27MergePartialFromCodedStreamEPN7tencent8protobuf2io16CodedInputStreamE
alita.node:_ZN5alita14UnInitResponse4SwapEPS0_
alita.node:_ZN5alita14UnInitResponse5ClearEv
alita.node:_ZN5alita14UnInitResponse8CopyFromERKS0_
alita.node:_ZN5alita14UnInitResponse9MergeFromERKS0_
alita.node:_ZN5alita14UnInitResponseC1ERKS0_
alita.node:_ZN5alita14UnInitResponseC1Ev
alita.node:_ZN5alita14UnInitResponseC2ERKS0_
alita.node:_ZN5alita14UnInitResponseC2Ev
alita.node:_ZN5alita14UnInitResponseD0Ev
alita.node:_ZN5alita14UnInitResponseD1Ev
alita.node:_ZN5alita14UnInitResponseD2Ev
alita.node:_ZN5alita14UnbindResponse10SharedCtorEv
alita.node:_ZN5alita14UnbindResponse10SharedDtorEv
alita.node:_ZN5alita14UnbindResponse16default_instanceEv
alita.node:_ZN5alita14UnbindResponse17default_instance_E
alita.node:_ZN5alita14UnbindResponse18kErrMsgFieldNumberE
alita.node:_ZN5alita14UnbindResponse18kTaskIdFieldNumberE
alita.node:_ZN5alita14UnbindResponse19kErrCodeFieldNumberE
alita.node:_ZN5alita14UnbindResponse21CheckTypeAndMergeFromERKN7tencent8protobuf11MessageLiteE
alita.node:_ZN5alita14UnbindResponse21InitAsDefaultInstanceEv
alita.node:_ZN5alita14UnbindResponse27MergePartialFromCodedStreamEPN7tencent8protobuf2io16CodedInputStreamE
alita.node:_ZN5alita14UnbindResponse4SwapEPS0_
alita.node:_ZN5alita14UnbindResponse5ClearEv
alita.node:_ZN5alita14UnbindResponse8CopyFromERKS0_
alita.node:_ZN5alita14UnbindResponse9MergeFromERKS0_
alita.node:_ZN5alita14UnbindResponseC1ERKS0_
alita.node:_ZN5alita14UnbindResponseC1Ev
alita.node:_ZN5alita14UnbindResponseC2ERKS0_
alita.node:_ZN5alita14UnbindResponseC2Ev
alita.node:_ZN5alita14UnbindResponseD0Ev
alita.node:_ZN5alita14UnbindResponseD1Ev
alita.node:_ZN5alita14UnbindResponseD2Ev
alita.node:_ZN5alita14UnverifyMember10SharedCtorEv
alita.node:_ZN5alita14UnverifyMember10SharedDtorEv
alita.node:_ZN5alita14UnverifyMember15kSexFieldNumberE
alita.node:_ZN5alita14UnverifyMember16default_instanceEv
alita.node:_ZN5alita14UnverifyMember16kCityFieldNumberE
alita.node:_ZN5alita14UnverifyMember17default_instance_E
alita.node:_ZN5alita14UnverifyMember18kPyquanFieldNumberE
alita.node:_ZN5alita14UnverifyMember18kRemarkFieldNumberE
alita.node:_ZN5alita14UnverifyMember19kCountryFieldNumberE
alita.node:_ZN5alita14UnverifyMember20kNicknameFieldNumberE
alita.node:_ZN5alita14UnverifyMember20kProvinceFieldNumberE
alita.node:_ZN5alita14UnverifyMember20kUsernameFieldNumberE
alita.node:_ZN5alita14UnverifyMember21CheckTypeAndMergeFromERKN7tencent8protobuf11MessageLiteE
alita.node:_ZN5alita14UnverifyMember21InitAsDefaultInstanceEv
alita.node:_ZN5alita14UnverifyMember21kPyinitialFieldNumberE
alita.node:_ZN5alita14UnverifyMember21kSignatureFieldNumberE
alita.node:_ZN5alita14UnverifyMember22kVerifyFlagFieldNumberE
alita.node:_ZN5alita14UnverifyMember22kVerifyInfoFieldNumberE
alita.node:_ZN5alita14UnverifyMember23kContactTypeFieldNumberE
alita.node:_ZN5alita14UnverifyMember24kMemberStatusFieldNumberE
alita.node:_ZN5alita14UnverifyMember24kPersonalCardFieldNumberE
alita.node:_ZN5alita14UnverifyMember24kRemarkPyquanFieldNumberE
alita.node:_ZN5alita14UnverifyMember25kRemarkInitialFieldNumberE
alita.node:_ZN5alita14UnverifyMember27MergePartialFromCodedStreamEPN7tencent8protobuf2io16CodedInputStreamE
alita.node:_ZN5alita14UnverifyMember27kEncryptUsernameFieldNumberE
alita.node:_ZN5alita14UnverifyMember4SwapEPS0_
alita.node:_ZN5alita14UnverifyMember5ClearEv
alita.node:_ZN5alita14UnverifyMember8CopyFromERKS0_
alita.node:_ZN5alita14UnverifyMember9MergeFromERKS0_
alita.node:_ZN5alita14UnverifyMemberC1ERKS0_
alita.node:_ZN5alita14UnverifyMemberC1Ev
alita.node:_ZN5alita14UnverifyMemberC2ERKS0_
alita.node:_ZN5alita14UnverifyMemberC2Ev
alita.node:_ZN5alita14UnverifyMemberD0Ev
alita.node:_ZN5alita14UnverifyMemberD1Ev
alita.node:_ZN5alita14UnverifyMemberD2Ev
alita.node:_ZN5alita15AppBrandMessage10SharedCtorEv
alita.node:_ZN5alita15AppBrandMessage10SharedDtorEv
alita.node:_ZN5alita15AppBrandMessage15kDesFieldNumberE
alita.node:_ZN5alita15AppBrandMessage15kUrlFieldNumberE
alita.node:_ZN5alita15AppBrandMessage16default_instanceEv
alita.node:_ZN5alita15AppBrandMessage17default_instance_E
alita.node:_ZN5alita15AppBrandMessage17kTitleFieldNumberE
alita.node:_ZN5alita15AppBrandMessage18kActionFieldNumberE
alita.node:_ZN5alita15AppBrandMessage21CheckTypeAndMergeFromERKN7tencent8protobuf11MessageLiteE
alita.node:_ZN5alita15AppBrandMessage21InitAsDefaultInstanceEv
alita.node:_ZN5alita15AppBrandMessage22kWeappAppIdFieldNumberE
alita.node:_ZN5alita15AppBrandMessage24kWeappIconUrlFieldNumberE
alita.node:_ZN5alita15AppBrandMessage25kAndroidSourceFieldNumberE
alita.node:_ZN5alita15AppBrandMessage25kWeappNicknameFieldNumberE
alita.node:_ZN5alita15AppBrandMessage25kWeappPagePathFieldNumberE
alita.node:_ZN5alita15AppBrandMessage25kWeappUsernameFieldNumberE
alita.node:_ZN5alita15AppBrandMessage26kWeappShareTypeFieldNumberE
alita.node:_ZN5alita15AppBrandMessage26kWeappThumbPathFieldNumberE
alita.node:_ZN5alita15AppBrandMessage27MergePartialFromCodedStreamEPN7tencent8protobuf2io16CodedInputStreamE
alita.node:_ZN5alita15AppBrandMessage27kWeappPackageMd5FieldNumberE
alita.node:_ZN5alita15AppBrandMessage27kWeappShareCountFieldNumberE
alita.node:_ZN5alita15AppBrandMessage28kWeappPackageTypeFieldNumberE
alita.node:_ZN5alita15AppBrandMessage28kWeappVersionCodeFieldNumberE
alita.node:_ZN5alita15AppBrandMessage4SwapEPS0_
alita.node:_ZN5alita15AppBrandMessage5ClearEv
alita.node:_ZN5alita15AppBrandMessage8CopyFromERKS0_
alita.node:_ZN5alita15AppBrandMessage9MergeFromERKS0_
alita.node:_ZN5alita15AppBrandMessageC1ERKS0_
alita.node:_ZN5alita15AppBrandMessageC1Ev
alita.node:_ZN5alita15AppBrandMessageC2ERKS0_
alita.node:_ZN5alita15AppBrandMessageC2Ev
alita.node:_ZN5alita15AppBrandMessageD0Ev
alita.node:_ZN5alita15AppBrandMessageD1Ev
alita.node:_ZN5alita15AppBrandMessageD2Ev
alita.node:_ZN5alita15AppEmojiMessage10SharedCtorEv
alita.node:_ZN5alita15AppEmojiMessage10SharedDtorEv
alita.node:_ZN5alita15AppEmojiMessage16default_instanceEv
alita.node:_ZN5alita15AppEmojiMessage17default_instance_E
alita.node:_ZN5alita15AppEmojiMessage20kFileInfoFieldNumberE
alita.node:_ZN5alita15AppEmojiMessage21CheckTypeAndMergeFromERKN7tencent8protobuf11MessageLiteE
alita.node:_ZN5alita15AppEmojiMessage21InitAsDefaultInstanceEv
alita.node:_ZN5alita15AppEmojiMessage27MergePartialFromCodedStreamEPN7tencent8protobuf2io16CodedInputStreamE
alita.node:_ZN5alita15AppEmojiMessage4SwapEPS0_
alita.node:_ZN5alita15AppEmojiMessage5ClearEv
alita.node:_ZN5alita15AppEmojiMessage8CopyFromERKS0_
alita.node:_ZN5alita15AppEmojiMessage9MergeFromERKS0_
alita.node:_ZN5alita15AppEmojiMessageC1ERKS0_
alita.node:_ZN5alita15AppEmojiMessageC1Ev
alita.node:_ZN5alita15AppEmojiMessageC2ERKS0_
alita.node:_ZN5alita15AppEmojiMessageC2Ev
alita.node:_ZN5alita15AppEmojiMessageD0Ev
alita.node:_ZN5alita15AppEmojiMessageD1Ev
alita.node:_ZN5alita15AppEmojiMessageD2Ev
alita.node:_ZN5alita15AppMusicMessage10SharedCtorEv
alita.node:_ZN5alita15AppMusicMessage10SharedDtorEv
alita.node:_ZN5alita15AppMusicMessage15kDesFieldNumberE
alita.node:_ZN5alita15AppMusicMessage15kMd5FieldNumberE
alita.node:_ZN5alita15AppMusicMessage15kUrlFieldNumberE
alita.node:_ZN5alita15AppMusicMessage16default_instanceEv
alita.node:_ZN5alita15AppMusicMessage17default_instance_E
alita.node:_ZN5alita15AppMusicMessage17kTitleFieldNumberE
alita.node:_ZN5alita15AppMusicMessage18kActionFieldNumberE
alita.node:_ZN5alita15AppMusicMessage19kDataUrlFieldNumberE
alita.node:_ZN5alita15AppMusicMessage21CheckTypeAndMergeFromERKN7tencent8protobuf11MessageLiteE
alita.node:_ZN5alita15AppMusicMessage21InitAsDefaultInstanceEv
alita.node:_ZN5alita15AppMusicMessage21kMvExtInfoFieldNumberE
alita.node:_ZN5alita15AppMusicMessage21kSongLyricFieldNumberE
alita.node:_ZN5alita15AppMusicMessage21kThumbPathFieldNumberE
alita.node:_ZN5alita15AppMusicMessage23kMvAlbumNameFieldNumberE
alita.node:_ZN5alita15AppMusicMessage23kMvIssueDateFieldNumberE
alita.node:_ZN5alita15AppMusicMessage23kStateExtStrFieldNumberE
alita.node:_ZN5alita15AppMusicMessage24kMvMusicGenreFieldNumberE
alita.node:_ZN5alita15AppMusicMessage24kMvSingerNameFieldNumberE
alita.node:_ZN5alita15AppMusicMessage24kSongAlbumUrlFieldNumberE
alita.node:_ZN5alita15AppMusicMessage25kAndroidSourceFieldNumberE
alita.node:_ZN5alita15AppMusicMessage25kMusicDurationFieldNumberE
alita.node:_ZN5alita15AppMusicMessage27MergePartialFromCodedStreamEPN7tencent8protobuf2io16CodedInputStreamE
alita.node:_ZN5alita15AppMusicMessage28kMvIdentificationFieldNumberE
alita.node:_ZN5alita15AppMusicMessage4SwapEPS0_
alita.node:_ZN5alita15AppMusicMessage5ClearEv
alita.node:_ZN5alita15AppMusicMessage8CopyFromERKS0_
alita.node:_ZN5alita15AppMusicMessage9MergeFromERKS0_
alita.node:_ZN5alita15AppMusicMessageC1ERKS0_
alita.node:_ZN5alita15AppMusicMessageC1Ev
alita.node:_ZN5alita15AppMusicMessageC2ERKS0_
alita.node:_ZN5alita15AppMusicMessageC2Ev
alita.node:_ZN5alita15AppMusicMessageD0Ev
alita.node:_ZN5alita15AppMusicMessageD1Ev
alita.node:_ZN5alita15AppMusicMessageD2Ev
alita.node:_ZN5alita15AppVideoMessage10SharedCtorEv
alita.node:_ZN5alita15AppVideoMessage10SharedDtorEv
alita.node:_ZN5alita15AppVideoMessage15kDesFieldNumberE
alita.node:_ZN5alita15AppVideoMessage15kMd5FieldNumberE
alita.node:_ZN5alita15AppVideoMessage15kUrlFieldNumberE
alita.node:_ZN5alita15AppVideoMessage16default_instanceEv
alita.node:_ZN5alita15AppVideoMessage17default_instance_E
alita.node:_ZN5alita15AppVideoMessage17kTitleFieldNumberE
alita.node:_ZN5alita15AppVideoMessage18kActionFieldNumberE
alita.node:_ZN5alita15AppVideoMessage18kLowUrlFieldNumberE
alita.node:_ZN5alita15AppVideoMessage21CheckTypeAndMergeFromERKN7tencent8protobuf11MessageLiteE
alita.node:_ZN5alita15AppVideoMessage21InitAsDefaultInstanceEv
alita.node:_ZN5alita15AppVideoMessage21kThumbPathFieldNumberE
alita.node:_ZN5alita15AppVideoMessage23kStateExtStrFieldNumberE
alita.node:_ZN5alita15AppVideoMessage24kMediaTagNameFieldNumberE
alita.node:_ZN5alita15AppVideoMessage25kAndroidSourceFieldNumberE
alita.node:_ZN5alita15AppVideoMessage25kMessageActionFieldNumberE
alita.node:_ZN5alita15AppVideoMessage27MergePartialFromCodedStreamEPN7tencent8protobuf2io16CodedInputStreamE
alita.node:_ZN5alita15AppVideoMessage4SwapEPS0_
alita.node:_ZN5alita15AppVideoMessage5ClearEv
alita.node:_ZN5alita15AppVideoMessage8CopyFromERKS0_
alita.node:_ZN5alita15AppVideoMessage9MergeFromERKS0_
alita.node:_ZN5alita15AppVideoMessageC1ERKS0_
alita.node:_ZN5alita15AppVideoMessageC1Ev
alita.node:_ZN5alita15AppVideoMessageC2ERKS0_
alita.node:_ZN5alita15AppVideoMessageC2Ev
alita.node:_ZN5alita15AppVideoMessageD0Ev
alita.node:_ZN5alita15AppVideoMessageD1Ev
alita.node:_ZN5alita15AppVideoMessageD2Ev
alita.node:_ZN5alita15ChatRoomManager11SetOnNotifyERKN4Napi12CallbackInfoE
alita.node:_ZN5alita15ChatRoomManager16GetMemberContactERKN4Napi12CallbackInfoE
alita.node:_ZN5alita15ChatRoomManager17GetChatRoomDetailERKN4Napi12CallbackInfoE
alita.node:_ZN5alita15ChatRoomManager17GetChatRoomMemberERKN4Napi12CallbackInfoE
alita.node:_ZN5alita15ChatRoomManager17QuitChatRoomAsyncERKN4Napi12CallbackInfoE
alita.node:_ZN5alita15ChatRoomManager18AddRoomMemberAsyncERKN4Napi12CallbackInfoE
alita.node:_ZN5alita15ChatRoomManager19CreateChatRoomAsyncERKN4Napi12CallbackInfoE
alita.node:_ZN5alita15ChatRoomManager20EventExecuteCallbackERKN4Napi12CallbackInfoE
alita.node:_ZN5alita15ChatRoomManager20SetRoomNickNameAsyncERKN4Napi12CallbackInfoE
alita.node:_ZN5alita15ChatRoomManager21DeleteRoomMemberAsyncERKN4Napi12CallbackInfoE
alita.node:_ZN5alita15ChatRoomManager21GetChatRoomMemberListERKN4Napi12CallbackInfoE
alita.node:_ZN5alita15ChatRoomManager21InviteRoomMemberAsyncERKN4Napi12CallbackInfoE
alita.node:_ZN5alita15ChatRoomManager21SetRoomInContactAsyncERKN4Napi12CallbackInfoE
alita.node:_ZN5alita15ChatRoomManager22SetRoomMuteStatusAsyncERKN4Napi12CallbackInfoE
alita.node:_ZN5alita15ChatRoomManager23SetSelfDisplayNameAsyncERKN4Napi12CallbackInfoE
alita.node:_ZN5alita15ChatRoomManager24SetRoomAnnouncementAsyncERKN4Napi12CallbackInfoE
alita.node:_ZN5alita15ChatRoomManager24UpdateMemberContactAsyncERKN4Napi12CallbackInfoE
alita.node:_ZN5alita15ChatRoomManager25UpdateChatRoomDetailAsyncERKN4Napi12CallbackInfoE
alita.node:_ZN5alita15ChatRoomManager25UpdateChatRoomMemberAsyncERKN4Napi12CallbackInfoE
alita.node:_ZN5alita15ChatRoomManager29SetDisplayNameVisibilityAsyncERKN4Napi12CallbackInfoE
alita.node:_ZN5alita15ChatRoomManager4InitEN4Napi3EnvENS1_6ObjectE
alita.node:_ZN5alita15ChatRoomManagerC1ERKN4Napi12CallbackInfoE
alita.node:_ZN5alita15ChatRoomManagerC2ERKN4Napi12CallbackInfoE
alita.node:_ZN5alita15CustomEmojiList10SharedCtorEv
alita.node:_ZN5alita15CustomEmojiList10SharedDtorEv
alita.node:_ZN5alita15CustomEmojiList16default_instanceEv
alita.node:_ZN5alita15CustomEmojiList17default_instance_E
alita.node:_ZN5alita15CustomEmojiList21CheckTypeAndMergeFromERKN7tencent8protobuf11MessageLiteE
alita.node:_ZN5alita15CustomEmojiList21InitAsDefaultInstanceEv
alita.node:_ZN5alita15CustomEmojiList23kCustomEmojiFieldNumberE
alita.node:_ZN5alita15CustomEmojiList27MergePartialFromCodedStreamEPN7tencent8protobuf2io16CodedInputStreamE
alita.node:_ZN5alita15CustomEmojiList4SwapEPS0_
alita.node:_ZN5alita15CustomEmojiList5ClearEv
alita.node:_ZN5alita15CustomEmojiList8CopyFromERKS0_
alita.node:_ZN5alita15CustomEmojiList9MergeFromERKS0_
alita.node:_ZN5alita15CustomEmojiListC1ERKS0_
alita.node:_ZN5alita15CustomEmojiListC1Ev
alita.node:_ZN5alita15CustomEmojiListC2ERKS0_
alita.node:_ZN5alita15CustomEmojiListC2Ev
alita.node:_ZN5alita15CustomEmojiListD0Ev
alita.node:_ZN5alita15CustomEmojiListD1Ev
alita.node:_ZN5alita15CustomEmojiListD2Ev
alita.node:_ZN5alita15DisturbTimeSpan10SharedCtorEv
alita.node:_ZN5alita15DisturbTimeSpan10SharedDtorEv
alita.node:_ZN5alita15DisturbTimeSpan16default_instanceEv
alita.node:_ZN5alita15DisturbTimeSpan17default_instance_E
alita.node:_ZN5alita15DisturbTimeSpan19kEndTimeFieldNumberE
alita.node:_ZN5alita15DisturbTimeSpan21CheckTypeAndMergeFromERKN7tencent8protobuf11MessageLiteE
alita.node:_ZN5alita15DisturbTimeSpan21InitAsDefaultInstanceEv
alita.node:_ZN5alita15DisturbTimeSpan21kBeginTimeFieldNumberE
alita.node:_ZN5alita15DisturbTimeSpan27MergePartialFromCodedStreamEPN7tencent8protobuf2io16CodedInputStreamE
alita.node:_ZN5alita15DisturbTimeSpan4SwapEPS0_
alita.node:_ZN5alita15DisturbTimeSpan5ClearEv
alita.node:_ZN5alita15DisturbTimeSpan8CopyFromERKS0_
alita.node:_ZN5alita15DisturbTimeSpan9MergeFromERKS0_
alita.node:_ZN5alita15DisturbTimeSpanC1ERKS0_
alita.node:_ZN5alita15DisturbTimeSpanC1Ev
alita.node:_ZN5alita15DisturbTimeSpanC2ERKS0_
alita.node:_ZN5alita15DisturbTimeSpanC2Ev
alita.node:_ZN5alita15DisturbTimeSpanD0Ev
alita.node:_ZN5alita15DisturbTimeSpanD1Ev
alita.node:_ZN5alita15DisturbTimeSpanD2Ev
alita.node:_ZN5alita15GetInfoResponse10SharedCtorEv
alita.node:_ZN5alita15GetInfoResponse10SharedDtorEv
alita.node:_ZN5alita15GetInfoResponse16default_instanceEv
alita.node:_ZN5alita15GetInfoResponse16kInfoFieldNumberE
alita.node:_ZN5alita15GetInfoResponse17default_instance_E
alita.node:_ZN5alita15GetInfoResponse21CheckTypeAndMergeFromERKN7tencent8protobuf11MessageLiteE
alita.node:_ZN5alita15GetInfoResponse21InitAsDefaultInstanceEv
alita.node:_ZN5alita15GetInfoResponse27MergePartialFromCodedStreamEPN7tencent8protobuf2io16CodedInputStreamE
alita.node:_ZN5alita15GetInfoResponse4SwapEPS0_
alita.node:_ZN5alita15GetInfoResponse5ClearEv
alita.node:_ZN5alita15GetInfoResponse8CopyFromERKS0_
alita.node:_ZN5alita15GetInfoResponse9MergeFromERKS0_
alita.node:_ZN5alita15GetInfoResponseC1ERKS0_
alita.node:_ZN5alita15GetInfoResponseC1Ev
alita.node:_ZN5alita15GetInfoResponseC2ERKS0_
alita.node:_ZN5alita15GetInfoResponseC2Ev
alita.node:_ZN5alita15GetInfoResponseD0Ev
alita.node:_ZN5alita15GetInfoResponseD1Ev
alita.node:_ZN5alita15GetInfoResponseD2Ev
alita.node:_ZN5alita15OauthAvatarInfo10SharedCtorEv
alita.node:_ZN5alita15OauthAvatarInfo10SharedDtorEv
alita.node:_ZN5alita15OauthAvatarInfo14kIdFieldNumberE
alita.node:_ZN5alita15OauthAvatarInfo16default_instanceEv
alita.node:_ZN5alita15OauthAvatarInfo16kDescFieldNumberE
alita.node:_ZN5alita15OauthAvatarInfo17default_instance_E
alita.node:_ZN5alita15OauthAvatarInfo20kNicknameFieldNumberE
alita.node:_ZN5alita15OauthAvatarInfo21CheckTypeAndMergeFromERKN7tencent8protobuf11MessageLiteE
alita.node:_ZN5alita15OauthAvatarInfo21InitAsDefaultInstanceEv
alita.node:_ZN5alita15OauthAvatarInfo21kAvatarurlFieldNumberE
alita.node:_ZN5alita15OauthAvatarInfo27MergePartialFromCodedStreamEPN7tencent8protobuf2io16CodedInputStreamE
alita.node:_ZN5alita15OauthAvatarInfo4SwapEPS0_
alita.node:_ZN5alita15OauthAvatarInfo5ClearEv
alita.node:_ZN5alita15OauthAvatarInfo8CopyFromERKS0_
alita.node:_ZN5alita15OauthAvatarInfo9MergeFromERKS0_
alita.node:_ZN5alita15OauthAvatarInfoC1ERKS0_
alita.node:_ZN5alita15OauthAvatarInfoC1Ev
alita.node:_ZN5alita15OauthAvatarInfoC2ERKS0_
alita.node:_ZN5alita15OauthAvatarInfoC2Ev
alita.node:_ZN5alita15OauthAvatarInfoD0Ev
alita.node:_ZN5alita15OauthAvatarInfoD1Ev
alita.node:_ZN5alita15OauthAvatarInfoD2Ev
alita.node:_ZN5alita15PatternLockInfo10SharedCtorEv
alita.node:_ZN5alita15PatternLockInfo10SharedDtorEv
alita.node:_ZN5alita15PatternLockInfo16default_instanceEv
alita.node:_ZN5alita15PatternLockInfo16kSignFieldNumberE
alita.node:_ZN5alita15PatternLockInfo17default_instance_E
alita.node:_ZN5alita15PatternLockInfo21CheckTypeAndMergeFromERKN7tencent8protobuf11MessageLiteE
alita.node:_ZN5alita15PatternLockInfo21InitAsDefaultInstanceEv
alita.node:_ZN5alita15PatternLockInfo22kLockStatusFieldNumberE
alita.node:_ZN5alita15PatternLockInfo26kPatternVersionFieldNumberE
alita.node:_ZN5alita15PatternLockInfo27MergePartialFromCodedStreamEPN7tencent8protobuf2io16CodedInputStreamE
alita.node:_ZN5alita15PatternLockInfo4SwapEPS0_
alita.node:_ZN5alita15PatternLockInfo5ClearEv
alita.node:_ZN5alita15PatternLockInfo8CopyFromERKS0_
alita.node:_ZN5alita15PatternLockInfo9MergeFromERKS0_
alita.node:_ZN5alita15PatternLockInfoC1ERKS0_
alita.node:_ZN5alita15PatternLockInfoC1Ev
alita.node:_ZN5alita15PatternLockInfoC2ERKS0_
alita.node:_ZN5alita15PatternLockInfoC2Ev
alita.node:_ZN5alita15PatternLockInfoD0Ev
alita.node:_ZN5alita15PatternLockInfoD1Ev
alita.node:_ZN5alita15PatternLockInfoD2Ev
alita.node:_ZN5alita15PushMailContact10SharedCtorEv
alita.node:_ZN5alita15PushMailContact10SharedDtorEv
alita.node:_ZN5alita15PushMailContact16default_instanceEv
alita.node:_ZN5alita15PushMailContact16kAddrFieldNumberE
alita.node:_ZN5alita15PushMailContact16kNameFieldNumberE
alita.node:_ZN5alita15PushMailContact17default_instance_E
alita.node:_ZN5alita15PushMailContact21CheckTypeAndMergeFromERKN7tencent8protobuf11MessageLiteE
alita.node:_ZN5alita15PushMailContact21InitAsDefaultInstanceEv
alita.node:_ZN5alita15PushMailContact27MergePartialFromCodedStreamEPN7tencent8protobuf2io16CodedInputStreamE
alita.node:_ZN5alita15PushMailContact4SwapEPS0_
alita.node:_ZN5alita15PushMailContact5ClearEv
alita.node:_ZN5alita15PushMailContact8CopyFromERKS0_
alita.node:_ZN5alita15PushMailContact9MergeFromERKS0_
alita.node:_ZN5alita15PushMailContactC1ERKS0_
alita.node:_ZN5alita15PushMailContactC1Ev
alita.node:_ZN5alita15PushMailContactC2ERKS0_
alita.node:_ZN5alita15PushMailContactC2Ev
alita.node:_ZN5alita15PushMailContactD0Ev
alita.node:_ZN5alita15PushMailContactD1Ev
alita.node:_ZN5alita15PushMailContactD2Ev
alita.node:_ZN5alita16AutoLoginRequest10SharedCtorEv
alita.node:_ZN5alita16AutoLoginRequest10SharedDtorEv
alita.node:_ZN5alita16AutoLoginRequest16default_instanceEv
alita.node:_ZN5alita16AutoLoginRequest17default_instance_E
alita.node:_ZN5alita16AutoLoginRequest18kTaskIdFieldNumberE
alita.node:_ZN5alita16AutoLoginRequest20kUsernameFieldNumberE
alita.node:_ZN5alita16AutoLoginRequest21CheckTypeAndMergeFromERKN7tencent8protobuf11MessageLiteE
alita.node:_ZN5alita16AutoLoginRequest21InitAsDefaultInstanceEv
alita.node:_ZN5alita16AutoLoginRequest27MergePartialFromCodedStreamEPN7tencent8protobuf2io16CodedInputStreamE
alita.node:_ZN5alita16AutoLoginRequest4SwapEPS0_
alita.node:_ZN5alita16AutoLoginRequest5ClearEv
alita.node:_ZN5alita16AutoLoginRequest8CopyFromERKS0_
alita.node:_ZN5alita16AutoLoginRequest9MergeFromERKS0_
alita.node:_ZN5alita16AutoLoginRequestC1ERKS0_
alita.node:_ZN5alita16AutoLoginRequestC1Ev
alita.node:_ZN5alita16AutoLoginRequestC2ERKS0_
alita.node:_ZN5alita16AutoLoginRequestC2Ev
alita.node:_ZN5alita16AutoLoginRequestD0Ev
alita.node:_ZN5alita16AutoLoginRequestD1Ev
alita.node:_ZN5alita16AutoLoginRequestD2Ev
alita.node:_ZN5alita16BuiltinEmojiList10SharedCtorEv
alita.node:_ZN5alita16BuiltinEmojiList10SharedDtorEv
alita.node:_ZN5alita16BuiltinEmojiList16default_instanceEv
alita.node:_ZN5alita16BuiltinEmojiList17default_instance_E
alita.node:_ZN5alita16BuiltinEmojiList21CheckTypeAndMergeFromERKN7tencent8protobuf11MessageLiteE
alita.node:_ZN5alita16BuiltinEmojiList21InitAsDefaultInstanceEv
alita.node:_ZN5alita16BuiltinEmojiList24kBuiltinEmojiFieldNumberE
alita.node:_ZN5alita16BuiltinEmojiList27MergePartialFromCodedStreamEPN7tencent8protobuf2io16CodedInputStreamE
alita.node:_ZN5alita16BuiltinEmojiList4SwapEPS0_
alita.node:_ZN5alita16BuiltinEmojiList5ClearEv
alita.node:_ZN5alita16BuiltinEmojiList8CopyFromERKS0_
alita.node:_ZN5alita16BuiltinEmojiList9MergeFromERKS0_
alita.node:_ZN5alita16BuiltinEmojiListC1ERKS0_
alita.node:_ZN5alita16BuiltinEmojiListC1Ev
alita.node:_ZN5alita16BuiltinEmojiListC2ERKS0_
alita.node:_ZN5alita16BuiltinEmojiListC2Ev
alita.node:_ZN5alita16BuiltinEmojiListD0Ev
alita.node:_ZN5alita16BuiltinEmojiListD1Ev
alita.node:_ZN5alita16BuiltinEmojiListD2Ev
alita.node:_ZN5alita16ConversationList10SharedCtorEv
alita.node:_ZN5alita16ConversationList10SharedDtorEv
alita.node:_ZN5alita16ConversationList16default_instanceEv
alita.node:_ZN5alita16ConversationList17default_instance_E
alita.node:_ZN5alita16ConversationList21CheckTypeAndMergeFromERKN7tencent8protobuf11MessageLiteE
alita.node:_ZN5alita16ConversationList21InitAsDefaultInstanceEv
alita.node:_ZN5alita16ConversationList24kConversationFieldNumberE
alita.node:_ZN5alita16ConversationList27MergePartialFromCodedStreamEPN7tencent8protobuf2io16CodedInputStreamE
alita.node:_ZN5alita16ConversationList4SwapEPS0_
alita.node:_ZN5alita16ConversationList5ClearEv
alita.node:_ZN5alita16ConversationList8CopyFromERKS0_
alita.node:_ZN5alita16ConversationList9MergeFromERKS0_
alita.node:_ZN5alita16ConversationListC1ERKS0_
alita.node:_ZN5alita16ConversationListC1Ev
alita.node:_ZN5alita16ConversationListC2ERKS0_
alita.node:_ZN5alita16ConversationListC2Ev
alita.node:_ZN5alita16ConversationListD0Ev
alita.node:_ZN5alita16ConversationListD1Ev
alita.node:_ZN5alita16ConversationListD2Ev
alita.node:_ZN5alita16ExtensionManager11CancelTask1ERKN4Napi12CallbackInfoE
alita.node:_ZN5alita16ExtensionManager11SetOnNotifyERKN4Napi12CallbackInfoE
alita.node:_ZN5alita16ExtensionManager16SendRequestAsyncERKN4Napi12CallbackInfoE
alita.node:_ZN5alita16ExtensionManager20EventExecuteCallbackERKN4Napi12CallbackInfoE
alita.node:_ZN5alita16ExtensionManager21SubscribeNotifyCmdIdsERKN4Napi12CallbackInfoE
alita.node:_ZN5alita16ExtensionManager23UnsubscribeNotifyCmdIdsERKN4Napi12CallbackInfoE
alita.node:_ZN5alita16ExtensionManager4InitEN4Napi3EnvENS1_6ObjectE
alita.node:_ZN5alita16ExtensionManagerC1ERKN4Napi12CallbackInfoE
alita.node:_ZN5alita16ExtensionManagerC2ERKN4Napi12CallbackInfoE
alita.node:_ZN5alita16ExtensionRequest10SharedCtorEv
alita.node:_ZN5alita16ExtensionRequest10SharedDtorEv
alita.node:_ZN5alita16ExtensionRequest15kUriFieldNumberE
alita.node:_ZN5alita16ExtensionRequest16default_instanceEv
alita.node:_ZN5alita16ExtensionRequest16kBodyFieldNumberE
alita.node:_ZN5alita16ExtensionRequest16kFlagFieldNumberE
alita.node:_ZN5alita16ExtensionRequest17default_instance_E
alita.node:_ZN5alita16ExtensionRequest17kCmdIdFieldNumberE
alita.node:_ZN5alita16ExtensionRequest21CheckTypeAndMergeFromERKN7tencent8protobuf11MessageLiteE
alita.node:_ZN5alita16ExtensionRequest21InitAsDefaultInstanceEv
alita.node:_ZN5alita16ExtensionRequest23kSessionTypeFieldNumberE
alita.node:_ZN5alita16ExtensionRequest25kNetworkPolicyFieldNumberE
alita.node:_ZN5alita16ExtensionRequest27MergePartialFromCodedStreamEPN7tencent8protobuf2io16CodedInputStreamE
alita.node:_ZN5alita16ExtensionRequest28kExpectFinishTimeFieldNumberE
alita.node:_ZN5alita16ExtensionRequest34kBaseRequestFieldNumberFieldNumberE
alita.node:_ZN5alita16ExtensionRequest4SwapEPS0_
alita.node:_ZN5alita16ExtensionRequest5ClearEv
alita.node:_ZN5alita16ExtensionRequest8CopyFromERKS0_
alita.node:_ZN5alita16ExtensionRequest9MergeFromERKS0_
alita.node:_ZN5alita16ExtensionRequestC1ERKS0_
alita.node:_ZN5alita16ExtensionRequestC1Ev
alita.node:_ZN5alita16ExtensionRequestC2ERKS0_
alita.node:_ZN5alita16ExtensionRequestC2Ev
alita.node:_ZN5alita16ExtensionRequestD0Ev
alita.node:_ZN5alita16ExtensionRequestD1Ev
alita.node:_ZN5alita16ExtensionRequestD2Ev
alita.node:_ZN5alita16GetAvatarRequest10SharedCtorEv
alita.node:_ZN5alita16GetAvatarRequest10SharedDtorEv
alita.node:_ZN5alita16GetAvatarRequest16default_instanceEv
alita.node:_ZN5alita16GetAvatarRequest16kTypeFieldNumberE
alita.node:_ZN5alita16GetAvatarRequest17default_instance_E
alita.node:_ZN5alita16GetAvatarRequest20kUsernameFieldNumberE
alita.node:_ZN5alita16GetAvatarRequest21CheckTypeAndMergeFromERKN7tencent8protobuf11MessageLiteE
alita.node:_ZN5alita16GetAvatarRequest21InitAsDefaultInstanceEv
alita.node:_ZN5alita16GetAvatarRequest27MergePartialFromCodedStreamEPN7tencent8protobuf2io16CodedInputStreamE
alita.node:_ZN5alita16GetAvatarRequest4SwapEPS0_
alita.node:_ZN5alita16GetAvatarRequest5ClearEv
alita.node:_ZN5alita16GetAvatarRequest8CopyFromERKS0_
alita.node:_ZN5alita16GetAvatarRequest9MergeFromERKS0_
alita.node:_ZN5alita16GetAvatarRequestC1ERKS0_
alita.node:_ZN5alita16GetAvatarRequestC1Ev
alita.node:_ZN5alita16GetAvatarRequestC2ERKS0_
alita.node:_ZN5alita16GetAvatarRequestC2Ev
alita.node:_ZN5alita16GetAvatarRequestD0Ev
alita.node:_ZN5alita16GetAvatarRequestD1Ev
alita.node:_ZN5alita16GetAvatarRequestD2Ev
alita.node:_ZN5alita16GetInfo1Response10SharedCtorEv
alita.node:_ZN5alita16GetInfo1Response10SharedDtorEv
alita.node:_ZN5alita16GetInfo1Response16default_instanceEv
alita.node:_ZN5alita16GetInfo1Response16kInfoFieldNumberE
alita.node:_ZN5alita16GetInfo1Response17default_instance_E
alita.node:_ZN5alita16GetInfo1Response21CheckTypeAndMergeFromERKN7tencent8protobuf11MessageLiteE
alita.node:_ZN5alita16GetInfo1Response21InitAsDefaultInstanceEv
alita.node:_ZN5alita16GetInfo1Response27MergePartialFromCodedStreamEPN7tencent8protobuf2io16CodedInputStreamE
alita.node:_ZN5alita16GetInfo1Response4SwapEPS0_
alita.node:_ZN5alita16GetInfo1Response5ClearEv
alita.node:_ZN5alita16GetInfo1Response8CopyFromERKS0_
alita.node:_ZN5alita16GetInfo1Response9MergeFromERKS0_
alita.node:_ZN5alita16GetInfo1ResponseC1ERKS0_
alita.node:_ZN5alita16GetInfo1ResponseC1Ev
alita.node:_ZN5alita16GetInfo1ResponseC2ERKS0_
alita.node:_ZN5alita16GetInfo1ResponseC2Ev
alita.node:_ZN5alita16GetInfo1ResponseD0Ev
alita.node:_ZN5alita16GetInfo1ResponseD1Ev
alita.node:_ZN5alita16GetInfo1ResponseD2Ev
alita.node:_ZN5alita16HandOffMasterUrl10SharedCtorEv
alita.node:_ZN5alita16HandOffMasterUrl10SharedDtorEv
alita.node:_ZN5alita16HandOffMasterUrl15kUrlFieldNumberE
alita.node:_ZN5alita16HandOffMasterUrl16default_instanceEv
alita.node:_ZN5alita16HandOffMasterUrl16kIconFieldNumberE
alita.node:_ZN5alita16HandOffMasterUrl17default_instance_E
alita.node:_ZN5alita16HandOffMasterUrl17kTitleFieldNumberE
alita.node:_ZN5alita16HandOffMasterUrl21CheckTypeAndMergeFromERKN7tencent8protobuf11MessageLiteE
alita.node:_ZN5alita16HandOffMasterUrl21InitAsDefaultInstanceEv
alita.node:_ZN5alita16HandOffMasterUrl23kHandoffTypeFieldNumberE
alita.node:_ZN5alita16HandOffMasterUrl27MergePartialFromCodedStreamEPN7tencent8protobuf2io16CodedInputStreamE
alita.node:_ZN5alita16HandOffMasterUrl4SwapEPS0_
alita.node:_ZN5alita16HandOffMasterUrl5ClearEv
alita.node:_ZN5alita16HandOffMasterUrl8CopyFromERKS0_
alita.node:_ZN5alita16HandOffMasterUrl9MergeFromERKS0_
alita.node:_ZN5alita16HandOffMasterUrlC1ERKS0_
alita.node:_ZN5alita16HandOffMasterUrlC1Ev
alita.node:_ZN5alita16HandOffMasterUrlC2ERKS0_
alita.node:_ZN5alita16HandOffMasterUrlC2Ev
alita.node:_ZN5alita16HandOffMasterUrlD0Ev
alita.node:_ZN5alita16HandOffMasterUrlD1Ev
alita.node:_ZN5alita16HandOffMasterUrlD2Ev
alita.node:_ZN5alita16InitEmojiRequest10SharedCtorEv
alita.node:_ZN5alita16InitEmojiRequest10SharedDtorEv
alita.node:_ZN5alita16InitEmojiRequest16default_instanceEv
alita.node:_ZN5alita16InitEmojiRequest17default_instance_E
alita.node:_ZN5alita16InitEmojiRequest18kTaskIdFieldNumberE
alita.node:_ZN5alita16InitEmojiRequest20kEmojiMd5FieldNumberE
alita.node:_ZN5alita16InitEmojiRequest21CheckTypeAndMergeFromERKN7tencent8protobuf11MessageLiteE
alita.node:_ZN5alita16InitEmojiRequest21InitAsDefaultInstanceEv
alita.node:_ZN5alita16InitEmojiRequest21kPanelTypeFieldNumberE
alita.node:_ZN5alita16InitEmojiRequest27MergePartialFromCodedStreamEPN7tencent8protobuf2io16CodedInputStreamE
alita.node:_ZN5alita16InitEmojiRequest4SwapEPS0_
alita.node:_ZN5alita16InitEmojiRequest5ClearEv
alita.node:_ZN5alita16InitEmojiRequest8CopyFromERKS0_
alita.node:_ZN5alita16InitEmojiRequest9MergeFromERKS0_
alita.node:_ZN5alita16InitEmojiRequestC1ERKS0_
alita.node:_ZN5alita16InitEmojiRequestC1Ev
alita.node:_ZN5alita16InitEmojiRequestC2ERKS0_
alita.node:_ZN5alita16InitEmojiRequestC2Ev
alita.node:_ZN5alita16InitEmojiRequestD0Ev
alita.node:_ZN5alita16InitEmojiRequestD1Ev
alita.node:_ZN5alita16InitEmojiRequestD2Ev
alita.node:_ZN5alita16LogLevel_IsValidEi
alita.node:_ZN5alita16NewVerifyRequest10SharedCtorEv
alita.node:_ZN5alita16NewVerifyRequest10SharedDtorEv
alita.node:_ZN5alita16NewVerifyRequest16default_instanceEv
alita.node:_ZN5alita16NewVerifyRequest17default_instance_E
alita.node:_ZN5alita16NewVerifyRequest18kOpCodeFieldNumberE
alita.node:_ZN5alita16NewVerifyRequest21CheckTypeAndMergeFromERKN7tencent8protobuf11MessageLiteE
alita.node:_ZN5alita16NewVerifyRequest21InitAsDefaultInstanceEv
alita.node:_ZN5alita16NewVerifyRequest25kVerifySummaryFieldNumberE
alita.node:_ZN5alita16NewVerifyRequest27MergePartialFromCodedStreamEPN7tencent8protobuf2io16CodedInputStreamE
alita.node:_ZN5alita16NewVerifyRequest4SwapEPS0_
alita.node:_ZN5alita16NewVerifyRequest5ClearEv
alita.node:_ZN5alita16NewVerifyRequest8CopyFromERKS0_
alita.node:_ZN5alita16NewVerifyRequest9MergeFromERKS0_
alita.node:_ZN5alita16NewVerifyRequestC1ERKS0_
alita.node:_ZN5alita16NewVerifyRequestC1Ev
alita.node:_ZN5alita16NewVerifyRequestC2ERKS0_
alita.node:_ZN5alita16NewVerifyRequestC2Ev
alita.node:_ZN5alita16NewVerifyRequestD0Ev
alita.node:_ZN5alita16NewVerifyRequestD1Ev
alita.node:_ZN5alita16NewVerifyRequestD2Ev
alita.node:_ZN5alita16PushLoginExtInfo10SharedCtorEv
alita.node:_ZN5alita16PushLoginExtInfo10SharedDtorEv
alita.node:_ZN5alita16PushLoginExtInfo16default_instanceEv
alita.node:_ZN5alita16PushLoginExtInfo17default_instance_E
alita.node:_ZN5alita16PushLoginExtInfo17kSceneFieldNumberE
alita.node:_ZN5alita16PushLoginExtInfo21CheckTypeAndMergeFromERKN7tencent8protobuf11MessageLiteE
alita.node:_ZN5alita16PushLoginExtInfo21InitAsDefaultInstanceEv
alita.node:_ZN5alita16PushLoginExtInfo21kAlertCodeFieldNumberE
alita.node:_ZN5alita16PushLoginExtInfo24kAlertWordingFieldNumberE
alita.node:_ZN5alita16PushLoginExtInfo27MergePartialFromCodedStreamEPN7tencent8protobuf2io16CodedInputStreamE
alita.node:_ZN5alita16PushLoginExtInfo4SwapEPS0_
alita.node:_ZN5alita16PushLoginExtInfo5ClearEv
alita.node:_ZN5alita16PushLoginExtInfo8CopyFromERKS0_
alita.node:_ZN5alita16PushLoginExtInfo9MergeFromERKS0_
alita.node:_ZN5alita16PushLoginExtInfoC1ERKS0_
alita.node:_ZN5alita16PushLoginExtInfoC1Ev
alita.node:_ZN5alita16PushLoginExtInfoC2ERKS0_
alita.node:_ZN5alita16PushLoginExtInfoC2Ev
alita.node:_ZN5alita16PushLoginExtInfoD0Ev
alita.node:_ZN5alita16PushLoginExtInfoD1Ev
alita.node:_ZN5alita16PushLoginExtInfoD2Ev
alita.node:_ZN5alita16PushLoginRequest10SharedCtorEv
alita.node:_ZN5alita16PushLoginRequest10SharedDtorEv
alita.node:_ZN5alita16PushLoginRequest16default_instanceEv
alita.node:_ZN5alita16PushLoginRequest17default_instance_E
alita.node:_ZN5alita16PushLoginRequest18kTaskIdFieldNumberE
alita.node:_ZN5alita16PushLoginRequest20kUsernameFieldNumberE
alita.node:_ZN5alita16PushLoginRequest21CheckTypeAndMergeFromERKN7tencent8protobuf11MessageLiteE
alita.node:_ZN5alita16PushLoginRequest21InitAsDefaultInstanceEv
alita.node:_ZN5alita16PushLoginRequest27MergePartialFromCodedStreamEPN7tencent8protobuf2io16CodedInputStreamE
alita.node:_ZN5alita16PushLoginRequest4SwapEPS0_
alita.node:_ZN5alita16PushLoginRequest5ClearEv
alita.node:_ZN5alita16PushLoginRequest8CopyFromERKS0_
alita.node:_ZN5alita16PushLoginRequest9MergeFromERKS0_
alita.node:_ZN5alita16PushLoginRequestC1ERKS0_
alita.node:_ZN5alita16PushLoginRequestC1Ev
alita.node:_ZN5alita16PushLoginRequestC2ERKS0_
alita.node:_ZN5alita16PushLoginRequestC2Ev
alita.node:_ZN5alita16PushLoginRequestD0Ev
alita.node:_ZN5alita16PushLoginRequestD1Ev
alita.node:_ZN5alita16PushLoginRequestD2Ev
alita.node:_ZN5alita16ShareAppDataInfo10SharedCtorEv
alita.node:_ZN5alita16ShareAppDataInfo10SharedDtorEv
alita.node:_ZN5alita16ShareAppDataInfo16default_instanceEv
alita.node:_ZN5alita16ShareAppDataInfo17default_instance_E
alita.node:_ZN5alita16ShareAppDataInfo19kExtInfoFieldNumberE
alita.node:_ZN5alita16ShareAppDataInfo20kFilePathFieldNumberE
alita.node:_ZN5alita16ShareAppDataInfo21CheckTypeAndMergeFromERKN7tencent8protobuf11MessageLiteE
alita.node:_ZN5alita16ShareAppDataInfo21InitAsDefaultInstanceEv
alita.node:_ZN5alita16ShareAppDataInfo27MergePartialFromCodedStreamEPN7tencent8protobuf2io16CodedInputStreamE
alita.node:_ZN5alita16ShareAppDataInfo4SwapEPS0_
alita.node:_ZN5alita16ShareAppDataInfo5ClearEv
alita.node:_ZN5alita16ShareAppDataInfo8CopyFromERKS0_
alita.node:_ZN5alita16ShareAppDataInfo9MergeFromERKS0_
alita.node:_ZN5alita16ShareAppDataInfoC1ERKS0_
alita.node:_ZN5alita16ShareAppDataInfoC1Ev
alita.node:_ZN5alita16ShareAppDataInfoC2ERKS0_
alita.node:_ZN5alita16ShareAppDataInfoC2Ev
alita.node:_ZN5alita16ShareAppDataInfoD0Ev
alita.node:_ZN5alita16ShareAppDataInfoD1Ev
alita.node:_ZN5alita16ShareAppDataInfoD2Ev
alita.node:_ZN5alita16ShareMessageInfo10SharedCtorEv
alita.node:_ZN5alita16ShareMessageInfo10SharedDtorEv
alita.node:_ZN5alita16ShareMessageInfo16default_instanceEv
alita.node:_ZN5alita16ShareMessageInfo17default_instance_E
alita.node:_ZN5alita16ShareMessageInfo17kTitleFieldNumberE
alita.node:_ZN5alita16ShareMessageInfo21CheckTypeAndMergeFromERKN7tencent8protobuf11MessageLiteE
alita.node:_ZN5alita16ShareMessageInfo21InitAsDefaultInstanceEv
alita.node:_ZN5alita16ShareMessageInfo23kDescriptionFieldNumberE
alita.node:_ZN5alita16ShareMessageInfo24kMediaTagNameFieldNumberE
alita.node:_ZN5alita16ShareMessageInfo25kMessageActionFieldNumberE
alita.node:_ZN5alita16ShareMessageInfo26kThumbImagePathFieldNumberE
alita.node:_ZN5alita16ShareMessageInfo27MergePartialFromCodedStreamEPN7tencent8protobuf2io16CodedInputStreamE
alita.node:_ZN5alita16ShareMessageInfo4SwapEPS0_
alita.node:_ZN5alita16ShareMessageInfo5ClearEv
alita.node:_ZN5alita16ShareMessageInfo8CopyFromERKS0_
alita.node:_ZN5alita16ShareMessageInfo9MergeFromERKS0_
alita.node:_ZN5alita16ShareMessageInfoC1ERKS0_
alita.node:_ZN5alita16ShareMessageInfoC1Ev
alita.node:_ZN5alita16ShareMessageInfoC2ERKS0_
alita.node:_ZN5alita16ShareMessageInfoC2Ev
alita.node:_ZN5alita16ShareMessageInfoD0Ev
alita.node:_ZN5alita16ShareMessageInfoD1Ev
alita.node:_ZN5alita16ShareMessageInfoD2Ev
alita.node:_ZN5alita16UploadLogRequest10SharedCtorEv
alita.node:_ZN5alita16UploadLogRequest10SharedDtorEv
alita.node:_ZN5alita16UploadLogRequest16default_instanceEv
alita.node:_ZN5alita16UploadLogRequest17default_instance_E
alita.node:_ZN5alita16UploadLogRequest18kTaskIdFieldNumberE
alita.node:_ZN5alita16UploadLogRequest21CheckTypeAndMergeFromERKN7tencent8protobuf11MessageLiteE
alita.node:_ZN5alita16UploadLogRequest21InitAsDefaultInstanceEv
alita.node:_ZN5alita16UploadLogRequest22kUploadInfoFieldNumberE
alita.node:_ZN5alita16UploadLogRequest27MergePartialFromCodedStreamEPN7tencent8protobuf2io16CodedInputStreamE
alita.node:_ZN5alita16UploadLogRequest4SwapEPS0_
alita.node:_ZN5alita16UploadLogRequest5ClearEv
alita.node:_ZN5alita16UploadLogRequest8CopyFromERKS0_
alita.node:_ZN5alita16UploadLogRequest9MergeFromERKS0_
alita.node:_ZN5alita16UploadLogRequestC1ERKS0_
alita.node:_ZN5alita16UploadLogRequestC1Ev
alita.node:_ZN5alita16UploadLogRequestC2ERKS0_
alita.node:_ZN5alita16UploadLogRequestC2Ev
alita.node:_ZN5alita16UploadLogRequestD0Ev
alita.node:_ZN5alita16UploadLogRequestD1Ev
alita.node:_ZN5alita16UploadLogRequestD2Ev
alita.node:_ZN5alita16WxcodepayManager11HidePayCodeERKN4Napi12CallbackInfoE
alita.node:_ZN5alita16WxcodepayManager11SetOnNotifyERKN4Napi12CallbackInfoE
alita.node:_ZN5alita16WxcodepayManager11ShowPayCodeERKN4Napi12CallbackInfoE
alita.node:_ZN5alita16WxcodepayManager11UnbindAsyncERKN4Napi12CallbackInfoE
alita.node:_ZN5alita16WxcodepayManager12GetBindStateERKN4Napi12CallbackInfoE
alita.node:_ZN5alita16WxcodepayManager14GetBalanceInfoERKN4Napi12CallbackInfoE
alita.node:_ZN5alita16WxcodepayManager14GetBindingCodeERKN4Napi12CallbackInfoE
alita.node:_ZN5alita16WxcodepayManager14StartBindAsyncERKN4Napi12CallbackInfoE
alita.node:_ZN5alita16WxcodepayManager18StopPollingMessageERKN4Napi12CallbackInfoE
alita.node:_ZN5alita16WxcodepayManager19RefreshBalanceAsyncERKN4Napi12CallbackInfoE
alita.node:_ZN5alita16WxcodepayManager19StartPollingMessageERKN4Napi12CallbackInfoE
alita.node:_ZN5alita16WxcodepayManager20EventExecuteCallbackERKN4Napi12CallbackInfoE
alita.node:_ZN5alita16WxcodepayManager4InitEN4Napi3EnvENS1_6ObjectE
alita.node:_ZN5alita16WxcodepayManager8GetInfo1ERKN4Napi12CallbackInfoE
alita.node:_ZN5alita16WxcodepayManager8StopBindERKN4Napi12CallbackInfoE
alita.node:_ZN5alita16WxcodepayManagerC1ERKN4Napi12CallbackInfoE
alita.node:_ZN5alita16WxcodepayManagerC2ERKN4Napi12CallbackInfoE
alita.node:_ZN5alita16WxcodepayPayCode10SharedCtorEv
alita.node:_ZN5alita16WxcodepayPayCode10SharedDtorEv
alita.node:_ZN5alita16WxcodepayPayCode16default_instanceEv
alita.node:_ZN5alita16WxcodepayPayCode17default_instance_E
alita.node:_ZN5alita16WxcodepayPayCode19kErrCodeFieldNumberE
alita.node:_ZN5alita16WxcodepayPayCode19kExpTimeFieldNumberE
alita.node:_ZN5alita16WxcodepayPayCode19kPayCodeFieldNumberE
alita.node:_ZN5alita16WxcodepayPayCode21CheckTypeAndMergeFromERKN7tencent8protobuf11MessageLiteE
alita.node:_ZN5alita16WxcodepayPayCode21InitAsDefaultInstanceEv
alita.node:_ZN5alita16WxcodepayPayCode27MergePartialFromCodedStreamEPN7tencent8protobuf2io16CodedInputStreamE
alita.node:_ZN5alita16WxcodepayPayCode4SwapEPS0_
alita.node:_ZN5alita16WxcodepayPayCode5ClearEv
alita.node:_ZN5alita16WxcodepayPayCode8CopyFromERKS0_
alita.node:_ZN5alita16WxcodepayPayCode9MergeFromERKS0_
alita.node:_ZN5alita16WxcodepayPayCodeC1ERKS0_
alita.node:_ZN5alita16WxcodepayPayCodeC1Ev
alita.node:_ZN5alita16WxcodepayPayCodeC2ERKS0_
alita.node:_ZN5alita16WxcodepayPayCodeC2Ev
alita.node:_ZN5alita16WxcodepayPayCodeD0Ev
alita.node:_ZN5alita16WxcodepayPayCodeD1Ev
alita.node:_ZN5alita16WxcodepayPayCodeD2Ev
alita.node:_ZN5alita17AppAppDataMessage10SharedCtorEv
alita.node:_ZN5alita17AppAppDataMessage10SharedDtorEv
alita.node:_ZN5alita17AppAppDataMessage15kDesFieldNumberE
alita.node:_ZN5alita17AppAppDataMessage15kMd5FieldNumberE
alita.node:_ZN5alita17AppAppDataMessage16default_instanceEv
alita.node:_ZN5alita17AppAppDataMessage17default_instance_E
alita.node:_ZN5alita17AppAppDataMessage17kTitleFieldNumberE
alita.node:_ZN5alita17AppAppDataMessage18kActionFieldNumberE
alita.node:_ZN5alita17AppAppDataMessage19kExtInfoFieldNumberE
alita.node:_ZN5alita17AppAppDataMessage20kFilePathFieldNumberE
alita.node:_ZN5alita17AppAppDataMessage21CheckTypeAndMergeFromERKN7tencent8protobuf11MessageLiteE
alita.node:_ZN5alita17AppAppDataMessage21InitAsDefaultInstanceEv
alita.node:_ZN5alita17AppAppDataMessage23kStateExtStrFieldNumberE
alita.node:_ZN5alita17AppAppDataMessage25kAndroidSourceFieldNumberE
alita.node:_ZN5alita17AppAppDataMessage27MergePartialFromCodedStreamEPN7tencent8protobuf2io16CodedInputStreamE
alita.node:_ZN5alita17AppAppDataMessage4SwapEPS0_
alita.node:_ZN5alita17AppAppDataMessage5ClearEv
alita.node:_ZN5alita17AppAppDataMessage8CopyFromERKS0_
alita.node:_ZN5alita17AppAppDataMessage9MergeFromERKS0_
alita.node:_ZN5alita17AppAppDataMessageC1ERKS0_
alita.node:_ZN5alita17AppAppDataMessageC1Ev
alita.node:_ZN5alita17AppAppDataMessageC2ERKS0_
alita.node:_ZN5alita17AppAppDataMessageC2Ev
alita.node:_ZN5alita17AppAppDataMessageD0Ev
alita.node:_ZN5alita17AppAppDataMessageD1Ev
alita.node:_ZN5alita17AppAppDataMessageD2Ev
alita.node:_ZN5alita17AppMessageContent10SharedCtorEv
alita.node:_ZN5alita17AppMessageContent10SharedDtorEv
alita.node:_ZN5alita17AppMessageContent16default_instanceEv
alita.node:_ZN5alita17AppMessageContent17default_instance_E
alita.node:_ZN5alita17AppMessageContent18kUrlMsgFieldNumberE
alita.node:_ZN5alita17AppMessageContent19kAppInfoFieldNumberE
alita.node:_ZN5alita17AppMessageContent19kFileMsgFieldNumberE
alita.node:_ZN5alita17AppMessageContent20kCommInfoFieldNumberE
alita.node:_ZN5alita17AppMessageContent20kEmojiMsgFieldNumberE
alita.node:_ZN5alita17AppMessageContent21CheckTypeAndMergeFromERKN7tencent8protobuf11MessageLiteE
alita.node:_ZN5alita17AppMessageContent21InitAsDefaultInstanceEv
alita.node:_ZN5alita17AppMessageContent22kAppMsgTypeFieldNumberE
alita.node:_ZN5alita17AppMessageContent22kC2CMessageFieldNumberE
alita.node:_ZN5alita17AppMessageContent23kAppBrandMsgFieldNumberE
alita.node:_ZN5alita17AppMessageContent23kTextMessageFieldNumberE
alita.node:_ZN5alita17AppMessageContent24kMusicMessageFieldNumberE
alita.node:_ZN5alita17AppMessageContent24kQuoteMessageFieldNumberE
alita.node:_ZN5alita17AppMessageContent24kVideoMessageFieldNumberE
alita.node:_ZN5alita17AppMessageContent25kRecordMessageFieldNumberE
alita.node:_ZN5alita17AppMessageContent26kAppDataMessageFieldNumberE
alita.node:_ZN5alita17AppMessageContent27MergePartialFromCodedStreamEPN7tencent8protobuf2io16CodedInputStreamE
alita.node:_ZN5alita17AppMessageContent4SwapEPS0_
alita.node:_ZN5alita17AppMessageContent5ClearEv
alita.node:_ZN5alita17AppMessageContent8CopyFromERKS0_
alita.node:_ZN5alita17AppMessageContent9MergeFromERKS0_
alita.node:_ZN5alita17AppMessageContentC1ERKS0_
alita.node:_ZN5alita17AppMessageContentC1Ev
alita.node:_ZN5alita17AppMessageContentC2ERKS0_
alita.node:_ZN5alita17AppMessageContentC2Ev
alita.node:_ZN5alita17AppMessageContentD0Ev
alita.node:_ZN5alita17AppMessageContentD1Ev
alita.node:_ZN5alita17AppMessageContentD2Ev
alita.node:_ZN5alita17AutoLoginResponse10SharedCtorEv
alita.node:_ZN5alita17AutoLoginResponse10SharedDtorEv
alita.node:_ZN5alita17AutoLoginResponse16default_instanceEv
alita.node:_ZN5alita17AutoLoginResponse17default_instance_E
alita.node:_ZN5alita17AutoLoginResponse18kTaskIdFieldNumberE
alita.node:_ZN5alita17AutoLoginResponse21CheckTypeAndMergeFromERKN7tencent8protobuf11MessageLiteE
alita.node:_ZN5alita17AutoLoginResponse21InitAsDefaultInstanceEv
alita.node:_ZN5alita17AutoLoginResponse22kUnifyErrorFieldNumberE
alita.node:_ZN5alita17AutoLoginResponse27MergePartialFromCodedStreamEPN7tencent8protobuf2io16CodedInputStreamE
alita.node:_ZN5alita17AutoLoginResponse4SwapEPS0_
alita.node:_ZN5alita17AutoLoginResponse5ClearEv
alita.node:_ZN5alita17AutoLoginResponse8CopyFromERKS0_
alita.node:_ZN5alita17AutoLoginResponse9MergeFromERKS0_
alita.node:_ZN5alita17AutoLoginResponseC1ERKS0_
alita.node:_ZN5alita17AutoLoginResponseC1Ev
alita.node:_ZN5alita17AutoLoginResponseC2ERKS0_
alita.node:_ZN5alita17AutoLoginResponseC2Ev
alita.node:_ZN5alita17AutoLoginResponseD0Ev
alita.node:_ZN5alita17AutoLoginResponseD1Ev
alita.node:_ZN5alita17AutoLoginResponseD2Ev
alita.node:_ZN5alita17CancelTaskRequest10SharedCtorEv
alita.node:_ZN5alita17CancelTaskRequest10SharedDtorEv
alita.node:_ZN5alita17CancelTaskRequest16default_instanceEv
alita.node:_ZN5alita17CancelTaskRequest17default_instance_E
alita.node:_ZN5alita17CancelTaskRequest18kTaskIdFieldNumberE
alita.node:_ZN5alita17CancelTaskRequest21CheckTypeAndMergeFromERKN7tencent8protobuf11MessageLiteE
alita.node:_ZN5alita17CancelTaskRequest21InitAsDefaultInstanceEv
alita.node:_ZN5alita17CancelTaskRequest27MergePartialFromCodedStreamEPN7tencent8protobuf2io16CodedInputStreamE
alita.node:_ZN5alita17CancelTaskRequest4SwapEPS0_
alita.node:_ZN5alita17CancelTaskRequest5ClearEv
alita.node:_ZN5alita17CancelTaskRequest8CopyFromERKS0_
alita.node:_ZN5alita17CancelTaskRequest9MergeFromERKS0_
alita.node:_ZN5alita17CancelTaskRequestC1ERKS0_
alita.node:_ZN5alita17CancelTaskRequestC1Ev
alita.node:_ZN5alita17CancelTaskRequestC2ERKS0_
alita.node:_ZN5alita17CancelTaskRequestC2Ev
alita.node:_ZN5alita17CancelTaskRequestD0Ev
alita.node:_ZN5alita17CancelTaskRequestD1Ev
alita.node:_ZN5alita17CancelTaskRequestD2Ev
alita.node:_ZN5alita17CleanCacheRequest10SharedCtorEv
alita.node:_ZN5alita17CleanCacheRequest10SharedDtorEv
alita.node:_ZN5alita17CleanCacheRequest16default_instanceEv
alita.node:_ZN5alita17CleanCacheRequest16kSizeFieldNumberE
alita.node:_ZN5alita17CleanCacheRequest17default_instance_E
alita.node:_ZN5alita17CleanCacheRequest18kTaskIdFieldNumberE
alita.node:_ZN5alita17CleanCacheRequest21CheckTypeAndMergeFromERKN7tencent8protobuf11MessageLiteE
alita.node:_ZN5alita17CleanCacheRequest21InitAsDefaultInstanceEv
alita.node:_ZN5alita17CleanCacheRequest27MergePartialFromCodedStreamEPN7tencent8protobuf2io16CodedInputStreamE
alita.node:_ZN5alita17CleanCacheRequest4SwapEPS0_
alita.node:_ZN5alita17CleanCacheRequest5ClearEv
alita.node:_ZN5alita17CleanCacheRequest8CopyFromERKS0_
alita.node:_ZN5alita17CleanCacheRequest9MergeFromERKS0_
alita.node:_ZN5alita17CleanCacheRequestC1ERKS0_
alita.node:_ZN5alita17CleanCacheRequestC1Ev
alita.node:_ZN5alita17CleanCacheRequestC2ERKS0_
alita.node:_ZN5alita17CleanCacheRequestC2Ev
alita.node:_ZN5alita17CleanCacheRequestD0Ev
alita.node:_ZN5alita17CleanCacheRequestD1Ev
alita.node:_ZN5alita17CleanCacheRequestD2Ev
alita.node:_ZN5alita17DeleteUserRequest10SharedCtorEv
alita.node:_ZN5alita17DeleteUserRequest10SharedDtorEv
alita.node:_ZN5alita17DeleteUserRequest16default_instanceEv
alita.node:_ZN5alita17DeleteUserRequest17default_instance_E
alita.node:_ZN5alita17DeleteUserRequest20kUsernameFieldNumberE
alita.node:_ZN5alita17DeleteUserRequest21CheckTypeAndMergeFromERKN7tencent8protobuf11MessageLiteE
alita.node:_ZN5alita17DeleteUserRequest21InitAsDefaultInstanceEv
alita.node:_ZN5alita17DeleteUserRequest27MergePartialFromCodedStreamEPN7tencent8protobuf2io16CodedInputStreamE
alita.node:_ZN5alita17DeleteUserRequest4SwapEPS0_
alita.node:_ZN5alita17DeleteUserRequest5ClearEv
alita.node:_ZN5alita17DeleteUserRequest8CopyFromERKS0_
alita.node:_ZN5alita17DeleteUserRequest9MergeFromERKS0_
alita.node:_ZN5alita17DeleteUserRequestC1ERKS0_
alita.node:_ZN5alita17DeleteUserRequestC1Ev
alita.node:_ZN5alita17DeleteUserRequestC2ERKS0_
alita.node:_ZN5alita17DeleteUserRequestC2Ev
alita.node:_ZN5alita17DeleteUserRequestD0Ev
alita.node:_ZN5alita17DeleteUserRequestD1Ev
alita.node:_ZN5alita17DeleteUserRequestD2Ev
alita.node:_ZN5alita17DynamicConfigList10SharedCtorEv
alita.node:_ZN5alita17DynamicConfigList10SharedDtorEv
alita.node:_ZN5alita17DynamicConfigList16default_instanceEv
alita.node:_ZN5alita17DynamicConfigList17default_instance_E
alita.node:_ZN5alita17DynamicConfigList18kConfigFieldNumberE
alita.node:_ZN5alita17DynamicConfigList21CheckTypeAndMergeFromERKN7tencent8protobuf11MessageLiteE
alita.node:_ZN5alita17DynamicConfigList21InitAsDefaultInstanceEv
alita.node:_ZN5alita17DynamicConfigList27MergePartialFromCodedStreamEPN7tencent8protobuf2io16CodedInputStreamE
alita.node:_ZN5alita17DynamicConfigList4SwapEPS0_
alita.node:_ZN5alita17DynamicConfigList5ClearEv
alita.node:_ZN5alita17DynamicConfigList8CopyFromERKS0_
alita.node:_ZN5alita17DynamicConfigList9MergeFromERKS0_
alita.node:_ZN5alita17DynamicConfigListC1ERKS0_
alita.node:_ZN5alita17DynamicConfigListC1Ev
alita.node:_ZN5alita17DynamicConfigListC2ERKS0_
alita.node:_ZN5alita17DynamicConfigListC2Ev
alita.node:_ZN5alita17DynamicConfigListD0Ev
alita.node:_ZN5alita17DynamicConfigListD1Ev
alita.node:_ZN5alita17DynamicConfigListD2Ev
alita.node:_ZN5alita17EmojiType_IsValidEi
alita.node:_ZN5alita17EnvironmentConfig10SharedCtorEv
alita.node:_ZN5alita17EnvironmentConfig10SharedDtorEv
alita.node:_ZN5alita17EnvironmentConfig16default_instanceEv
alita.node:_ZN5alita17EnvironmentConfig17default_instance_E
alita.node:_ZN5alita17EnvironmentConfig18kLocaleFieldNumberE
alita.node:_ZN5alita17EnvironmentConfig18kOsNameFieldNumberE
alita.node:_ZN5alita17EnvironmentConfig20kLanguageFieldNumberE
alita.node:_ZN5alita17EnvironmentConfig21CheckTypeAndMergeFromERKN7tencent8protobuf11MessageLiteE
alita.node:_ZN5alita17EnvironmentConfig21InitAsDefaultInstanceEv
alita.node:_ZN5alita17EnvironmentConfig21kOsVersionFieldNumberE
alita.node:_ZN5alita17EnvironmentConfig23kDeviceBrandFieldNumberE
alita.node:_ZN5alita17EnvironmentConfig23kDeviceModelFieldNumberE
alita.node:_ZN5alita17EnvironmentConfig24kHwDeviceTypeFieldNumberE
alita.node:_ZN5alita17EnvironmentConfig26kDisplayVersionFieldNumberE
alita.node:_ZN5alita17EnvironmentConfig27MergePartialFromCodedStreamEPN7tencent8protobuf2io16CodedInputStreamE
alita.node:_ZN5alita17EnvironmentConfig27kHwClientVersionFieldNumberE
alita.node:_ZN5alita17EnvironmentConfig4SwapEPS0_
alita.node:_ZN5alita17EnvironmentConfig5ClearEv
alita.node:_ZN5alita17EnvironmentConfig8CopyFromERKS0_
alita.node:_ZN5alita17EnvironmentConfig9MergeFromERKS0_
alita.node:_ZN5alita17EnvironmentConfigC1ERKS0_
alita.node:_ZN5alita17EnvironmentConfigC1Ev
alita.node:_ZN5alita17EnvironmentConfigC2ERKS0_
alita.node:_ZN5alita17EnvironmentConfigC2Ev
alita.node:_ZN5alita17EnvironmentConfigD0Ev
alita.node:_ZN5alita17EnvironmentConfigD1Ev
alita.node:_ZN5alita17EnvironmentConfigD2Ev
alita.node:_ZN5alita17GetAvatarResponse10SharedCtorEv
alita.node:_ZN5alita17GetAvatarResponse10SharedDtorEv
alita.node:_ZN5alita17GetAvatarResponse16default_instanceEv
alita.node:_ZN5alita17GetAvatarResponse17default_instance_E
alita.node:_ZN5alita17GetAvatarResponse18kAvatarFieldNumberE
alita.node:_ZN5alita17GetAvatarResponse21CheckTypeAndMergeFromERKN7tencent8protobuf11MessageLiteE
alita.node:_ZN5alita17GetAvatarResponse21InitAsDefaultInstanceEv
alita.node:_ZN5alita17GetAvatarResponse27MergePartialFromCodedStreamEPN7tencent8protobuf2io16CodedInputStreamE
alita.node:_ZN5alita17GetAvatarResponse4SwapEPS0_
alita.node:_ZN5alita17GetAvatarResponse5ClearEv
alita.node:_ZN5alita17GetAvatarResponse8CopyFromERKS0_
alita.node:_ZN5alita17GetAvatarResponse9MergeFromERKS0_
alita.node:_ZN5alita17GetAvatarResponseC1ERKS0_
alita.node:_ZN5alita17GetAvatarResponseC1Ev
alita.node:_ZN5alita17GetAvatarResponseC2ERKS0_
alita.node:_ZN5alita17GetAvatarResponseC2Ev
alita.node:_ZN5alita17GetAvatarResponseD0Ev
alita.node:_ZN5alita17GetAvatarResponseD1Ev
alita.node:_ZN5alita17GetAvatarResponseD2Ev
alita.node:_ZN5alita17GetContactRequest10SharedCtorEv
alita.node:_ZN5alita17GetContactRequest10SharedDtorEv
alita.node:_ZN5alita17GetContactRequest16default_instanceEv
alita.node:_ZN5alita17GetContactRequest17default_instance_E
alita.node:_ZN5alita17GetContactRequest20kUsernameFieldNumberE
alita.node:_ZN5alita17GetContactRequest21CheckTypeAndMergeFromERKN7tencent8protobuf11MessageLiteE
alita.node:_ZN5alita17GetContactRequest21InitAsDefaultInstanceEv
alita.node:_ZN5alita17GetContactRequest27MergePartialFromCodedStreamEPN7tencent8protobuf2io16CodedInputStreamE
alita.node:_ZN5alita17GetContactRequest4SwapEPS0_
alita.node:_ZN5alita17GetContactRequest5ClearEv
alita.node:_ZN5alita17GetContactRequest8CopyFromERKS0_
alita.node:_ZN5alita17GetContactRequest9MergeFromERKS0_
alita.node:_ZN5alita17GetContactRequestC1ERKS0_
alita.node:_ZN5alita17GetContactRequestC1Ev
alita.node:_ZN5alita17GetContactRequestC2ERKS0_
alita.node:_ZN5alita17GetContactRequestC2Ev
alita.node:_ZN5alita17GetContactRequestD0Ev
alita.node:_ZN5alita17GetContactRequestD1Ev
alita.node:_ZN5alita17GetContactRequestD2Ev
alita.node:_ZN5alita17GetMessageRequest10SharedCtorEv
alita.node:_ZN5alita17GetMessageRequest10SharedDtorEv
alita.node:_ZN5alita17GetMessageRequest16default_instanceEv
alita.node:_ZN5alita17GetMessageRequest17default_instance_E
alita.node:_ZN5alita17GetMessageRequest17kMsgIdFieldNumberE
alita.node:_ZN5alita17GetMessageRequest21CheckTypeAndMergeFromERKN7tencent8protobuf11MessageLiteE
alita.node:_ZN5alita17GetMessageRequest21InitAsDefaultInstanceEv
alita.node:_ZN5alita17GetMessageRequest27MergePartialFromCodedStreamEPN7tencent8protobuf2io16CodedInputStreamE
alita.node:_ZN5alita17GetMessageRequest4SwapEPS0_
alita.node:_ZN5alita17GetMessageRequest5ClearEv
alita.node:_ZN5alita17GetMessageRequest8CopyFromERKS0_
alita.node:_ZN5alita17GetMessageRequest9MergeFromERKS0_
alita.node:_ZN5alita17GetMessageRequestC1ERKS0_
alita.node:_ZN5alita17GetMessageRequestC1Ev
alita.node:_ZN5alita17GetMessageRequestC2ERKS0_
alita.node:_ZN5alita17GetMessageRequestC2Ev
alita.node:_ZN5alita17GetMessageRequestD0Ev
alita.node:_ZN5alita17GetMessageRequestD1Ev
alita.node:_ZN5alita17GetMessageRequestD2Ev
alita.node:_ZN5alita17HandOffMasterFile10SharedCtorEv
alita.node:_ZN5alita17HandOffMasterFile10SharedDtorEv
alita.node:_ZN5alita17HandOffMasterFile14kIdFieldNumberE
alita.node:_ZN5alita17HandOffMasterFile15kMd5FieldNumberE
alita.node:_ZN5alita17HandOffMasterFile16default_instanceEv
alita.node:_ZN5alita17HandOffMasterFile16kSizeFieldNumberE
alita.node:_ZN5alita17HandOffMasterFile17default_instance_E
alita.node:_ZN5alita17HandOffMasterFile17kAppIdFieldNumberE
alita.node:_ZN5alita17HandOffMasterFile17kExtIdFieldNumberE
alita.node:_ZN5alita17HandOffMasterFile17kTitleFieldNumberE
alita.node:_ZN5alita17HandOffMasterFile18kAesKeyFieldNumberE
alita.node:_ZN5alita17HandOffMasterFile18kCdnUrlFieldNumberE
alita.node:_ZN5alita17HandOffMasterFile18kSourceFieldNumberE
alita.node:_ZN5alita17HandOffMasterFile19kAuthKeyFieldNumberE
alita.node:_ZN5alita17HandOffMasterFile19kMediaIdFieldNumberE
alita.node:_ZN5alita17HandOffMasterFile20kFileTypeFieldNumberE
alita.node:_ZN5alita17HandOffMasterFile21CheckTypeAndMergeFromERKN7tencent8protobuf11MessageLiteE
alita.node:_ZN5alita17HandOffMasterFile21InitAsDefaultInstanceEv
alita.node:_ZN5alita17HandOffMasterFile22kFileStatusFieldNumberE
alita.node:_ZN5alita17HandOffMasterFile22kSdkVersionFieldNumberE
alita.node:_ZN5alita17HandOffMasterFile23kHandoffTypeFieldNumberE
alita.node:_ZN5alita17HandOffMasterFile27MergePartialFromCodedStreamEPN7tencent8protobuf2io16CodedInputStreamE
alita.node:_ZN5alita17HandOffMasterFile4SwapEPS0_
alita.node:_ZN5alita17HandOffMasterFile5ClearEv
alita.node:_ZN5alita17HandOffMasterFile8CopyFromERKS0_
alita.node:_ZN5alita17HandOffMasterFile9MergeFromERKS0_
alita.node:_ZN5alita17HandOffMasterFileC1ERKS0_
alita.node:_ZN5alita17HandOffMasterFileC1Ev
alita.node:_ZN5alita17HandOffMasterFileC2ERKS0_
alita.node:_ZN5alita17HandOffMasterFileC2Ev
alita.node:_ZN5alita17HandOffMasterFileD0Ev
alita.node:_ZN5alita17HandOffMasterFileD1Ev
alita.node:_ZN5alita17HandOffMasterFileD2Ev
alita.node:_ZN5alita17InitEmojiProgress10SharedCtorEv
alita.node:_ZN5alita17InitEmojiProgress10SharedDtorEv
alita.node:_ZN5alita17InitEmojiProgress16default_instanceEv
alita.node:_ZN5alita17InitEmojiProgress17default_instance_E
alita.node:_ZN5alita17InitEmojiProgress17kTotalFieldNumberE
alita.node:_ZN5alita17InitEmojiProgress18kTaskIdFieldNumberE
alita.node:_ZN5alita17InitEmojiProgress19kCurrentFieldNumberE
alita.node:_ZN5alita17InitEmojiProgress20kEmojiMd5FieldNumberE
alita.node:_ZN5alita17InitEmojiProgress21CheckTypeAndMergeFromERKN7tencent8protobuf11MessageLiteE
alita.node:_ZN5alita17InitEmojiProgress21InitAsDefaultInstanceEv
alita.node:_ZN5alita17InitEmojiProgress27MergePartialFromCodedStreamEPN7tencent8protobuf2io16CodedInputStreamE
alita.node:_ZN5alita17InitEmojiProgress4SwapEPS0_
alita.node:_ZN5alita17InitEmojiProgress5ClearEv
alita.node:_ZN5alita17InitEmojiProgress8CopyFromERKS0_
alita.node:_ZN5alita17InitEmojiProgress9MergeFromERKS0_
alita.node:_ZN5alita17InitEmojiProgressC1ERKS0_
alita.node:_ZN5alita17InitEmojiProgressC1Ev
alita.node:_ZN5alita17InitEmojiProgressC2ERKS0_
alita.node:_ZN5alita17InitEmojiProgressC2Ev
alita.node:_ZN5alita17InitEmojiProgressD0Ev
alita.node:_ZN5alita17InitEmojiProgressD1Ev
alita.node:_ZN5alita17InitEmojiProgressD2Ev
alita.node:_ZN5alita17InitEmojiResponse10SharedCtorEv
alita.node:_ZN5alita17InitEmojiResponse10SharedDtorEv
alita.node:_ZN5alita17InitEmojiResponse16default_instanceEv
alita.node:_ZN5alita17InitEmojiResponse16kPathFieldNumberE
alita.node:_ZN5alita17InitEmojiResponse17default_instance_E
alita.node:_ZN5alita17InitEmojiResponse18kErrMsgFieldNumberE
alita.node:_ZN5alita17InitEmojiResponse18kTaskIdFieldNumberE
alita.node:_ZN5alita17InitEmojiResponse19kErrCodeFieldNumberE
alita.node:_ZN5alita17InitEmojiResponse20kEmojiMd5FieldNumberE
alita.node:_ZN5alita17InitEmojiResponse21CheckTypeAndMergeFromERKN7tencent8protobuf11MessageLiteE
alita.node:_ZN5alita17InitEmojiResponse21InitAsDefaultInstanceEv
alita.node:_ZN5alita17InitEmojiResponse21kThumbPathFieldNumberE
alita.node:_ZN5alita17InitEmojiResponse27MergePartialFromCodedStreamEPN7tencent8protobuf2io16CodedInputStreamE
alita.node:_ZN5alita17InitEmojiResponse4SwapEPS0_
alita.node:_ZN5alita17InitEmojiResponse5ClearEv
alita.node:_ZN5alita17InitEmojiResponse8CopyFromERKS0_
alita.node:_ZN5alita17InitEmojiResponse9MergeFromERKS0_
alita.node:_ZN5alita17InitEmojiResponseC1ERKS0_
alita.node:_ZN5alita17InitEmojiResponseC1Ev
alita.node:_ZN5alita17InitEmojiResponseC2ERKS0_
alita.node:_ZN5alita17InitEmojiResponseC2Ev
alita.node:_ZN5alita17InitEmojiResponseD0Ev
alita.node:_ZN5alita17InitEmojiResponseD1Ev
alita.node:_ZN5alita17InitEmojiResponseD2Ev
alita.node:_ZN5alita17OrderType_IsValidEi
alita.node:_ZN5alita17PushLoginResponse10SharedCtorEv
alita.node:_ZN5alita17PushLoginResponse10SharedDtorEv
alita.node:_ZN5alita17PushLoginResponse16default_instanceEv
alita.node:_ZN5alita17PushLoginResponse17default_instance_E
alita.node:_ZN5alita17PushLoginResponse18kTaskIdFieldNumberE
alita.node:_ZN5alita17PushLoginResponse19kExtInfoFieldNumberE
alita.node:_ZN5alita17PushLoginResponse21CheckTypeAndMergeFromERKN7tencent8protobuf11MessageLiteE
alita.node:_ZN5alita17PushLoginResponse21InitAsDefaultInstanceEv
alita.node:_ZN5alita17PushLoginResponse22kUnifyErrorFieldNumberE
alita.node:_ZN5alita17PushLoginResponse27MergePartialFromCodedStreamEPN7tencent8protobuf2io16CodedInputStreamE
alita.node:_ZN5alita17PushLoginResponse4SwapEPS0_
alita.node:_ZN5alita17PushLoginResponse5ClearEv
alita.node:_ZN5alita17PushLoginResponse8CopyFromERKS0_
alita.node:_ZN5alita17PushLoginResponse9MergeFromERKS0_
alita.node:_ZN5alita17PushLoginResponseC1ERKS0_
alita.node:_ZN5alita17PushLoginResponseC1Ev
alita.node:_ZN5alita17PushLoginResponseC2ERKS0_
alita.node:_ZN5alita17PushLoginResponseC2Ev
alita.node:_ZN5alita17PushLoginResponseD0Ev
alita.node:_ZN5alita17PushLoginResponseD1Ev
alita.node:_ZN5alita17PushLoginResponseD2Ev
alita.node:_ZN5alita17SKBuiltinBuffer_t10SharedCtorEv
alita.node:_ZN5alita17SKBuiltinBuffer_t10SharedDtorEv
alita.node:_ZN5alita17SKBuiltinBuffer_t16default_instanceEv
alita.node:_ZN5alita17SKBuiltinBuffer_t16kILenFieldNumberE
alita.node:_ZN5alita17SKBuiltinBuffer_t17default_instance_E
alita.node:_ZN5alita17SKBuiltinBuffer_t18kBufferFieldNumberE
alita.node:_ZN5alita17SKBuiltinBuffer_t21CheckTypeAndMergeFromERKN7tencent8protobuf11MessageLiteE
alita.node:_ZN5alita17SKBuiltinBuffer_t21InitAsDefaultInstanceEv
alita.node:_ZN5alita17SKBuiltinBuffer_t27MergePartialFromCodedStreamEPN7tencent8protobuf2io16CodedInputStreamE
alita.node:_ZN5alita17SKBuiltinBuffer_t4SwapEPS0_
alita.node:_ZN5alita17SKBuiltinBuffer_t5ClearEv
alita.node:_ZN5alita17SKBuiltinBuffer_t8CopyFromERKS0_
alita.node:_ZN5alita17SKBuiltinBuffer_t9MergeFromERKS0_
alita.node:_ZN5alita17SKBuiltinBuffer_tC1ERKS0_
alita.node:_ZN5alita17SKBuiltinBuffer_tC1Ev
alita.node:_ZN5alita17SKBuiltinBuffer_tC2ERKS0_
alita.node:_ZN5alita17SKBuiltinBuffer_tC2Ev
alita.node:_ZN5alita17SKBuiltinBuffer_tD0Ev
alita.node:_ZN5alita17SKBuiltinBuffer_tD1Ev
alita.node:_ZN5alita17SKBuiltinBuffer_tD2Ev
alita.node:_ZN5alita17SKBuiltinString_t10SharedCtorEv
alita.node:_ZN5alita17SKBuiltinString_t10SharedDtorEv
alita.node:_ZN5alita17SKBuiltinString_t16default_instanceEv
alita.node:_ZN5alita17SKBuiltinString_t17default_instance_E
alita.node:_ZN5alita17SKBuiltinString_t18kStringFieldNumberE
alita.node:_ZN5alita17SKBuiltinString_t21CheckTypeAndMergeFromERKN7tencent8protobuf11MessageLiteE
alita.node:_ZN5alita17SKBuiltinString_t21InitAsDefaultInstanceEv
alita.node:_ZN5alita17SKBuiltinString_t27MergePartialFromCodedStreamEPN7tencent8protobuf2io16CodedInputStreamE
alita.node:_ZN5alita17SKBuiltinString_t4SwapEPS0_
alita.node:_ZN5alita17SKBuiltinString_t5ClearEv
alita.node:_ZN5alita17SKBuiltinString_t8CopyFromERKS0_
alita.node:_ZN5alita17SKBuiltinString_t9MergeFromERKS0_
alita.node:_ZN5alita17SKBuiltinString_tC1ERKS0_
alita.node:_ZN5alita17SKBuiltinString_tC1Ev
alita.node:_ZN5alita17SKBuiltinString_tC2ERKS0_
alita.node:_ZN5alita17SKBuiltinString_tC2Ev
alita.node:_ZN5alita17SKBuiltinString_tD0Ev
alita.node:_ZN5alita17SKBuiltinString_tD1Ev
alita.node:_ZN5alita17SKBuiltinString_tD2Ev
alita.node:_ZN5alita17SKBuiltinUint32_t10SharedCtorEv
alita.node:_ZN5alita17SKBuiltinUint32_t10SharedDtorEv
alita.node:_ZN5alita17SKBuiltinUint32_t16default_instanceEv
alita.node:_ZN5alita17SKBuiltinUint32_t17default_instance_E
alita.node:_ZN5alita17SKBuiltinUint32_t17kUiValFieldNumberE
alita.node:_ZN5alita17SKBuiltinUint32_t21CheckTypeAndMergeFromERKN7tencent8protobuf11MessageLiteE
alita.node:_ZN5alita17SKBuiltinUint32_t21InitAsDefaultInstanceEv
alita.node:_ZN5alita17SKBuiltinUint32_t27MergePartialFromCodedStreamEPN7tencent8protobuf2io16CodedInputStreamE
alita.node:_ZN5alita17SKBuiltinUint32_t4SwapEPS0_
alita.node:_ZN5alita17SKBuiltinUint32_t5ClearEv
alita.node:_ZN5alita17SKBuiltinUint32_t8CopyFromERKS0_
alita.node:_ZN5alita17SKBuiltinUint32_t9MergeFromERKS0_
alita.node:_ZN5alita17SKBuiltinUint32_tC1ERKS0_
alita.node:_ZN5alita17SKBuiltinUint32_tC1Ev
alita.node:_ZN5alita17SKBuiltinUint32_tC2ERKS0_
alita.node:_ZN5alita17SKBuiltinUint32_tC2Ev
alita.node:_ZN5alita17SKBuiltinUint32_tD0Ev
alita.node:_ZN5alita17SKBuiltinUint32_tD1Ev
alita.node:_ZN5alita17SKBuiltinUint32_tD2Ev
alita.node:_ZN5alita17SearchContactItem10SharedCtorEv
alita.node:_ZN5alita17SearchContactItem10SharedDtorEv
alita.node:_ZN5alita17SearchContactItem15kSexFieldNumberE
alita.node:_ZN5alita17SearchContactItem16default_instanceEv
alita.node:_ZN5alita17SearchContactItem16kCityFieldNumberE
alita.node:_ZN5alita17SearchContactItem17default_instance_E
alita.node:_ZN5alita17SearchContactItem17kAliasFieldNumberE
alita.node:_ZN5alita17SearchContactItem17kWeiboFieldNumberE
alita.node:_ZN5alita17SearchContactItem18kImgBufFieldNumberE
alita.node:_ZN5alita17SearchContactItem19kCountryFieldNumberE
alita.node:_ZN5alita17SearchContactItem19kQuanPinFieldNumberE
alita.node:_ZN5alita17SearchContactItem20kNickNameFieldNumberE
alita.node:_ZN5alita17SearchContactItem20kProvinceFieldNumberE
alita.node:_ZN5alita17SearchContactItem20kUserNameFieldNumberE
alita.node:_ZN5alita17SearchContactItem21CheckTypeAndMergeFromERKN7tencent8protobuf11MessageLiteE
alita.node:_ZN5alita17SearchContactItem21InitAsDefaultInstanceEv
alita.node:_ZN5alita17SearchContactItem21kAlbumFlagFieldNumberE
alita.node:_ZN5alita17SearchContactItem21kMatchTypeFieldNumberE
alita.node:_ZN5alita17SearchContactItem21kPYInitialFieldNumberE
alita.node:_ZN5alita17SearchContactItem21kSignatureFieldNumberE
alita.node:_ZN5alita17SearchContactItem21kWeiboFlagFieldNumberE
alita.node:_ZN5alita17SearchContactItem22kAlbumStyleFieldNumberE
alita.node:_ZN5alita17SearchContactItem22kVerifyFlagFieldNumberE
alita.node:_ZN5alita17SearchContactItem22kVerifyInfoFieldNumberE
alita.node:_ZN5alita17SearchContactItem23kMyBrandListFieldNumberE
alita.node:_ZN5alita17SearchContactItem23kSnsUserInfoFieldNumberE
alita.node:_ZN5alita17SearchContactItem24kAlbumBGImgIDFieldNumberE
alita.node:_ZN5alita17SearchContactItem24kPersonalCardFieldNumberE
alita.node:_ZN5alita17SearchContactItem25kBigHeadImgUrlFieldNumberE
alita.node:_ZN5alita17SearchContactItem25kWeiboNicknameFieldNumberE
alita.node:_ZN5alita17SearchContactItem26kAntispamTicketFieldNumberE
alita.node:_ZN5alita17SearchContactItem26kCustomizedInfoFieldNumberE
alita.node:_ZN5alita17SearchContactItem27MergePartialFromCodedStreamEPN7tencent8protobuf2io16CodedInputStreamE
alita.node:_ZN5alita17SearchContactItem27kSmallHeadImgUrlFieldNumberE
alita.node:_ZN5alita17SearchContactItem4SwapEPS0_
alita.node:_ZN5alita17SearchContactItem5ClearEv
alita.node:_ZN5alita17SearchContactItem8CopyFromERKS0_
alita.node:_ZN5alita17SearchContactItem9MergeFromERKS0_
alita.node:_ZN5alita17SearchContactItemC1ERKS0_
alita.node:_ZN5alita17SearchContactItemC1Ev
alita.node:_ZN5alita17SearchContactItemC2ERKS0_
alita.node:_ZN5alita17SearchContactItemC2Ev
alita.node:_ZN5alita17SearchContactItemD0Ev
alita.node:_ZN5alita17SearchContactItemD1Ev
alita.node:_ZN5alita17SearchContactItemD2Ev
alita.node:_ZN5alita17ShareAppBrandInfo10SharedCtorEv
alita.node:_ZN5alita17ShareAppBrandInfo10SharedDtorEv
alita.node:_ZN5alita17ShareAppBrandInfo16default_instanceEv
alita.node:_ZN5alita17ShareAppBrandInfo16kPathFieldNumberE
alita.node:_ZN5alita17ShareAppBrandInfo17default_instance_E
alita.node:_ZN5alita17ShareAppBrandInfo20kUsernameFieldNumberE
alita.node:_ZN5alita17ShareAppBrandInfo21CheckTypeAndMergeFromERKN7tencent8protobuf11MessageLiteE
alita.node:_ZN5alita17ShareAppBrandInfo21InitAsDefaultInstanceEv
alita.node:_ZN5alita17ShareAppBrandInfo22kWebpageUrlFieldNumberE
alita.node:_ZN5alita17ShareAppBrandInfo27MergePartialFromCodedStreamEPN7tencent8protobuf2io16CodedInputStreamE
alita.node:_ZN5alita17ShareAppBrandInfo27kMiniprogramTypeFieldNumberE
alita.node:_ZN5alita17ShareAppBrandInfo27kWithShareTicketFieldNumberE
alita.node:_ZN5alita17ShareAppBrandInfo4SwapEPS0_
alita.node:_ZN5alita17ShareAppBrandInfo5ClearEv
alita.node:_ZN5alita17ShareAppBrandInfo8CopyFromERKS0_
alita.node:_ZN5alita17ShareAppBrandInfo9MergeFromERKS0_
alita.node:_ZN5alita17ShareAppBrandInfoC1ERKS0_
alita.node:_ZN5alita17ShareAppBrandInfoC1Ev
alita.node:_ZN5alita17ShareAppBrandInfoC2ERKS0_
alita.node:_ZN5alita17ShareAppBrandInfoC2Ev
alita.node:_ZN5alita17ShareAppBrandInfoD0Ev
alita.node:_ZN5alita17ShareAppBrandInfoD1Ev
alita.node:_ZN5alita17ShareAppBrandInfoD2Ev
alita.node:_ZN5alita17StartBindResponse10SharedCtorEv
alita.node:_ZN5alita17StartBindResponse10SharedDtorEv
alita.node:_ZN5alita17StartBindResponse16default_instanceEv
alita.node:_ZN5alita17StartBindResponse17default_instance_E
alita.node:_ZN5alita17StartBindResponse18kErrMsgFieldNumberE
alita.node:_ZN5alita17StartBindResponse18kTaskIdFieldNumberE
alita.node:_ZN5alita17StartBindResponse19kErrCodeFieldNumberE
alita.node:_ZN5alita17StartBindResponse21CheckTypeAndMergeFromERKN7tencent8protobuf11MessageLiteE
alita.node:_ZN5alita17StartBindResponse21InitAsDefaultInstanceEv
alita.node:_ZN5alita17StartBindResponse27MergePartialFromCodedStreamEPN7tencent8protobuf2io16CodedInputStreamE
alita.node:_ZN5alita17StartBindResponse4SwapEPS0_
alita.node:_ZN5alita17StartBindResponse5ClearEv
alita.node:_ZN5alita17StartBindResponse8CopyFromERKS0_
alita.node:_ZN5alita17StartBindResponse9MergeFromERKS0_
alita.node:_ZN5alita17StartBindResponseC1ERKS0_
alita.node:_ZN5alita17StartBindResponseC1Ev
alita.node:_ZN5alita17StartBindResponseC2ERKS0_
alita.node:_ZN5alita17StartBindResponseC2Ev
alita.node:_ZN5alita17StartBindResponseD0Ev
alita.node:_ZN5alita17StartBindResponseD1Ev
alita.node:_ZN5alita17StartBindResponseD2Ev
alita.node:_ZN5alita17UploadLogProgress10SharedCtorEv
alita.node:_ZN5alita17UploadLogProgress10SharedDtorEv
alita.node:_ZN5alita17UploadLogProgress16default_instanceEv
alita.node:_ZN5alita17UploadLogProgress17default_instance_E
alita.node:_ZN5alita17UploadLogProgress17kTotalFieldNumberE
alita.node:_ZN5alita17UploadLogProgress18kTaskIdFieldNumberE
alita.node:_ZN5alita17UploadLogProgress19kCurrentFieldNumberE
alita.node:_ZN5alita17UploadLogProgress21CheckTypeAndMergeFromERKN7tencent8protobuf11MessageLiteE
alita.node:_ZN5alita17UploadLogProgress21InitAsDefaultInstanceEv
alita.node:_ZN5alita17UploadLogProgress27MergePartialFromCodedStreamEPN7tencent8protobuf2io16CodedInputStreamE
alita.node:_ZN5alita17UploadLogProgress4SwapEPS0_
alita.node:_ZN5alita17UploadLogProgress5ClearEv
alita.node:_ZN5alita17UploadLogProgress8CopyFromERKS0_
alita.node:_ZN5alita17UploadLogProgress9MergeFromERKS0_
alita.node:_ZN5alita17UploadLogProgressC1ERKS0_
alita.node:_ZN5alita17UploadLogProgressC1Ev
alita.node:_ZN5alita17UploadLogProgressC2ERKS0_
alita.node:_ZN5alita17UploadLogProgressC2Ev
alita.node:_ZN5alita17UploadLogProgressD0Ev
alita.node:_ZN5alita17UploadLogProgressD1Ev
alita.node:_ZN5alita17UploadLogProgressD2Ev
alita.node:_ZN5alita17UploadLogResponse10SharedCtorEv
alita.node:_ZN5alita17UploadLogResponse10SharedDtorEv
alita.node:_ZN5alita17UploadLogResponse16default_instanceEv
alita.node:_ZN5alita17UploadLogResponse17default_instance_E
alita.node:_ZN5alita17UploadLogResponse18kErrMsgFieldNumberE
alita.node:_ZN5alita17UploadLogResponse18kTaskIdFieldNumberE
alita.node:_ZN5alita17UploadLogResponse19kErrCodeFieldNumberE
alita.node:_ZN5alita17UploadLogResponse21CheckTypeAndMergeFromERKN7tencent8protobuf11MessageLiteE
alita.node:_ZN5alita17UploadLogResponse21InitAsDefaultInstanceEv
alita.node:_ZN5alita17UploadLogResponse27MergePartialFromCodedStreamEPN7tencent8protobuf2io16CodedInputStreamE
alita.node:_ZN5alita17UploadLogResponse4SwapEPS0_
alita.node:_ZN5alita17UploadLogResponse5ClearEv
alita.node:_ZN5alita17UploadLogResponse8CopyFromERKS0_
alita.node:_ZN5alita17UploadLogResponse9MergeFromERKS0_
alita.node:_ZN5alita17UploadLogResponseC1ERKS0_
alita.node:_ZN5alita17UploadLogResponseC1Ev
alita.node:_ZN5alita17UploadLogResponseC2ERKS0_
alita.node:_ZN5alita17UploadLogResponseC2Ev
alita.node:_ZN5alita17UploadLogResponseD0Ev
alita.node:_ZN5alita17UploadLogResponseD1Ev
alita.node:_ZN5alita17UploadLogResponseD2Ev
alita.node:_ZN5alita17UserUpdateRequest10SharedCtorEv
alita.node:_ZN5alita17UserUpdateRequest10SharedDtorEv
alita.node:_ZN5alita17UserUpdateRequest16default_instanceEv
alita.node:_ZN5alita17UserUpdateRequest16kUserFieldNumberE
alita.node:_ZN5alita17UserUpdateRequest17default_instance_E
alita.node:_ZN5alita17UserUpdateRequest18kOpCodeFieldNumberE
alita.node:_ZN5alita17UserUpdateRequest21CheckTypeAndMergeFromERKN7tencent8protobuf11MessageLiteE
alita.node:_ZN5alita17UserUpdateRequest21InitAsDefaultInstanceEv
alita.node:_ZN5alita17UserUpdateRequest27MergePartialFromCodedStreamEPN7tencent8protobuf2io16CodedInputStreamE
alita.node:_ZN5alita17UserUpdateRequest4SwapEPS0_
alita.node:_ZN5alita17UserUpdateRequest5ClearEv
alita.node:_ZN5alita17UserUpdateRequest8CopyFromERKS0_
alita.node:_ZN5alita17UserUpdateRequest9MergeFromERKS0_
alita.node:_ZN5alita17UserUpdateRequestC1ERKS0_
alita.node:_ZN5alita17UserUpdateRequestC1Ev
alita.node:_ZN5alita17UserUpdateRequestC2ERKS0_
alita.node:_ZN5alita17UserUpdateRequestC2Ev
alita.node:_ZN5alita17UserUpdateRequestD0Ev
alita.node:_ZN5alita17UserUpdateRequestD1Ev
alita.node:_ZN5alita17UserUpdateRequestD2Ev
alita.node:_ZN5alita17VerifyContactList10SharedCtorEv
alita.node:_ZN5alita17VerifyContactList10SharedDtorEv
alita.node:_ZN5alita17VerifyContactList16default_instanceEv
alita.node:_ZN5alita17VerifyContactList17default_instance_E
alita.node:_ZN5alita17VerifyContactList21CheckTypeAndMergeFromERKN7tencent8protobuf11MessageLiteE
alita.node:_ZN5alita17VerifyContactList21InitAsDefaultInstanceEv
alita.node:_ZN5alita17VerifyContactList25kVerifyContactFieldNumberE
alita.node:_ZN5alita17VerifyContactList27MergePartialFromCodedStreamEPN7tencent8protobuf2io16CodedInputStreamE
alita.node:_ZN5alita17VerifyContactList4SwapEPS0_
alita.node:_ZN5alita17VerifyContactList5ClearEv
alita.node:_ZN5alita17VerifyContactList8CopyFromERKS0_
alita.node:_ZN5alita17VerifyContactList9MergeFromERKS0_
alita.node:_ZN5alita17VerifyContactListC1ERKS0_
alita.node:_ZN5alita17VerifyContactListC1Ev
alita.node:_ZN5alita17VerifyContactListC2ERKS0_
alita.node:_ZN5alita17VerifyContactListC2Ev
alita.node:_ZN5alita17VerifyContactListD0Ev
alita.node:_ZN5alita17VerifyContactListD1Ev
alita.node:_ZN5alita17VerifyContactListD2Ev
alita.node:_ZN5alita17VoIPState_IsValidEi
alita.node:_ZN5alita17VoipFinishRequest10SharedCtorEv
alita.node:_ZN5alita17VoipFinishRequest10SharedDtorEv
alita.node:_ZN5alita17VoipFinishRequest16default_instanceEv
alita.node:_ZN5alita17VoipFinishRequest17default_instance_E
alita.node:_ZN5alita17VoipFinishRequest21CheckTypeAndMergeFromERKN7tencent8protobuf11MessageLiteE
alita.node:_ZN5alita17VoipFinishRequest21InitAsDefaultInstanceEv
alita.node:_ZN5alita17VoipFinishRequest22kFinishTypeFieldNumberE
alita.node:_ZN5alita17VoipFinishRequest27MergePartialFromCodedStreamEPN7tencent8protobuf2io16CodedInputStreamE
alita.node:_ZN5alita17VoipFinishRequest4SwapEPS0_
alita.node:_ZN5alita17VoipFinishRequest5ClearEv
alita.node:_ZN5alita17VoipFinishRequest8CopyFromERKS0_
alita.node:_ZN5alita17VoipFinishRequest9MergeFromERKS0_
alita.node:_ZN5alita17VoipFinishRequestC1ERKS0_
alita.node:_ZN5alita17VoipFinishRequestC1Ev
alita.node:_ZN5alita17VoipFinishRequestC2ERKS0_
alita.node:_ZN5alita17VoipFinishRequestC2Ev
alita.node:_ZN5alita17VoipFinishRequestD0Ev
alita.node:_ZN5alita17VoipFinishRequestD1Ev
alita.node:_ZN5alita17VoipFinishRequestD2Ev
alita.node:_ZN5alita17WxcodepayBindInfo10SharedCtorEv
alita.node:_ZN5alita17WxcodepayBindInfo10SharedDtorEv
alita.node:_ZN5alita17WxcodepayBindInfo16default_instanceEv
alita.node:_ZN5alita17WxcodepayBindInfo17default_instance_E
alita.node:_ZN5alita17WxcodepayBindInfo20kUserInfoFieldNumberE
alita.node:_ZN5alita17WxcodepayBindInfo21CheckTypeAndMergeFromERKN7tencent8protobuf11MessageLiteE
alita.node:_ZN5alita17WxcodepayBindInfo21InitAsDefaultInstanceEv
alita.node:_ZN5alita17WxcodepayBindInfo27MergePartialFromCodedStreamEPN7tencent8protobuf2io16CodedInputStreamE
alita.node:_ZN5alita17WxcodepayBindInfo28kBindOnSdkVersionFieldNumberE
alita.node:_ZN5alita17WxcodepayBindInfo4SwapEPS0_
alita.node:_ZN5alita17WxcodepayBindInfo5ClearEv
alita.node:_ZN5alita17WxcodepayBindInfo8CopyFromERKS0_
alita.node:_ZN5alita17WxcodepayBindInfo9MergeFromERKS0_
alita.node:_ZN5alita17WxcodepayBindInfoC1ERKS0_
alita.node:_ZN5alita17WxcodepayBindInfoC1Ev
alita.node:_ZN5alita17WxcodepayBindInfoC2ERKS0_
alita.node:_ZN5alita17WxcodepayBindInfoC2Ev
alita.node:_ZN5alita17WxcodepayBindInfoD0Ev
alita.node:_ZN5alita17WxcodepayBindInfoD1Ev
alita.node:_ZN5alita17WxcodepayBindInfoD2Ev
alita.node:_ZN5alita18AppMessageCommInfo10SharedCtorEv
alita.node:_ZN5alita18AppMessageCommInfo10SharedDtorEv
alita.node:_ZN5alita18AppMessageCommInfo15kDesFieldNumberE
alita.node:_ZN5alita18AppMessageCommInfo15kUrlFieldNumberE
alita.node:_ZN5alita18AppMessageCommInfo16default_instanceEv
alita.node:_ZN5alita18AppMessageCommInfo17default_instance_E
alita.node:_ZN5alita18AppMessageCommInfo17kTitleFieldNumberE
alita.node:_ZN5alita18AppMessageCommInfo20kThumbUrlFieldNumberE
alita.node:_ZN5alita18AppMessageCommInfo21CheckTypeAndMergeFromERKN7tencent8protobuf11MessageLiteE
alita.node:_ZN5alita18AppMessageCommInfo21InitAsDefaultInstanceEv
alita.node:_ZN5alita18AppMessageCommInfo27MergePartialFromCodedStreamEPN7tencent8protobuf2io16CodedInputStreamE
alita.node:_ZN5alita18AppMessageCommInfo4SwapEPS0_
alita.node:_ZN5alita18AppMessageCommInfo5ClearEv
alita.node:_ZN5alita18AppMessageCommInfo8CopyFromERKS0_
alita.node:_ZN5alita18AppMessageCommInfo9MergeFromERKS0_
alita.node:_ZN5alita18AppMessageCommInfoC1ERKS0_
alita.node:_ZN5alita18AppMessageCommInfoC1Ev
alita.node:_ZN5alita18AppMessageCommInfoC2ERKS0_
alita.node:_ZN5alita18AppMessageCommInfoC2Ev
alita.node:_ZN5alita18AppMessageCommInfoD0Ev
alita.node:_ZN5alita18AppMessageCommInfoD1Ev
alita.node:_ZN5alita18AppMessageCommInfoD2Ev
alita.node:_ZN5alita18BuiltinEmojiConfig10SharedCtorEv
alita.node:_ZN5alita18BuiltinEmojiConfig10SharedDtorEv
alita.node:_ZN5alita18BuiltinEmojiConfig15kMd5FieldNumberE
alita.node:_ZN5alita18BuiltinEmojiConfig15kUrlFieldNumberE
alita.node:_ZN5alita18BuiltinEmojiConfig16default_instanceEv
alita.node:_ZN5alita18BuiltinEmojiConfig17default_instance_E
alita.node:_ZN5alita18BuiltinEmojiConfig20kThumbUrlFieldNumberE
alita.node:_ZN5alita18BuiltinEmojiConfig21CheckTypeAndMergeFromERKN7tencent8protobuf11MessageLiteE
alita.node:_ZN5alita18BuiltinEmojiConfig21InitAsDefaultInstanceEv
alita.node:_ZN5alita18BuiltinEmojiConfig27MergePartialFromCodedStreamEPN7tencent8protobuf2io16CodedInputStreamE
alita.node:_ZN5alita18BuiltinEmojiConfig4SwapEPS0_
alita.node:_ZN5alita18BuiltinEmojiConfig5ClearEv
alita.node:_ZN5alita18BuiltinEmojiConfig8CopyFromERKS0_
alita.node:_ZN5alita18BuiltinEmojiConfig9MergeFromERKS0_
alita.node:_ZN5alita18BuiltinEmojiConfigC1ERKS0_
alita.node:_ZN5alita18BuiltinEmojiConfigC1Ev
alita.node:_ZN5alita18BuiltinEmojiConfigC2ERKS0_
alita.node:_ZN5alita18BuiltinEmojiConfigC2Ev
alita.node:_ZN5alita18BuiltinEmojiConfigD0Ev
alita.node:_ZN5alita18BuiltinEmojiConfigD1Ev
alita.node:_ZN5alita18BuiltinEmojiConfigD2Ev
alita.node:_ZN5alita18CancelTask1Request10SharedCtorEv
alita.node:_ZN5alita18CancelTask1Request10SharedDtorEv
alita.node:_ZN5alita18CancelTask1Request16default_instanceEv
alita.node:_ZN5alita18CancelTask1Request17default_instance_E
alita.node:_ZN5alita18CancelTask1Request18kTaskIdFieldNumberE
alita.node:_ZN5alita18CancelTask1Request21CheckTypeAndMergeFromERKN7tencent8protobuf11MessageLiteE
alita.node:_ZN5alita18CancelTask1Request21InitAsDefaultInstanceEv
alita.node:_ZN5alita18CancelTask1Request27MergePartialFromCodedStreamEPN7tencent8protobuf2io16CodedInputStreamE
alita.node:_ZN5alita18CancelTask1Request4SwapEPS0_
alita.node:_ZN5alita18CancelTask1Request5ClearEv
alita.node:_ZN5alita18CancelTask1Request8CopyFromERKS0_
alita.node:_ZN5alita18CancelTask1Request9MergeFromERKS0_
alita.node:_ZN5alita18CancelTask1RequestC1ERKS0_
alita.node:_ZN5alita18CancelTask1RequestC1Ev
alita.node:_ZN5alita18CancelTask1RequestC2ERKS0_
alita.node:_ZN5alita18CancelTask1RequestC2Ev
alita.node:_ZN5alita18CancelTask1RequestD0Ev
alita.node:_ZN5alita18CancelTask1RequestD1Ev
alita.node:_ZN5alita18CancelTask1RequestD2Ev
alita.node:_ZN5alita18CancelTaskResponse10SharedCtorEv
alita.node:_ZN5alita18CancelTaskResponse10SharedDtorEv
alita.node:_ZN5alita18CancelTaskResponse16default_instanceEv
alita.node:_ZN5alita18CancelTaskResponse17default_instance_E
alita.node:_ZN5alita18CancelTaskResponse19kErrCodeFieldNumberE
alita.node:_ZN5alita18CancelTaskResponse21CheckTypeAndMergeFromERKN7tencent8protobuf11MessageLiteE
alita.node:_ZN5alita18CancelTaskResponse21InitAsDefaultInstanceEv
alita.node:_ZN5alita18CancelTaskResponse27MergePartialFromCodedStreamEPN7tencent8protobuf2io16CodedInputStreamE
alita.node:_ZN5alita18CancelTaskResponse4SwapEPS0_
alita.node:_ZN5alita18CancelTaskResponse5ClearEv
alita.node:_ZN5alita18CancelTaskResponse8CopyFromERKS0_
alita.node:_ZN5alita18CancelTaskResponse9MergeFromERKS0_
alita.node:_ZN5alita18CancelTaskResponseC1ERKS0_
alita.node:_ZN5alita18CancelTaskResponseC1Ev
alita.node:_ZN5alita18CancelTaskResponseC2ERKS0_
alita.node:_ZN5alita18CancelTaskResponseC2Ev
alita.node:_ZN5alita18CancelTaskResponseD0Ev
alita.node:_ZN5alita18CancelTaskResponseD1Ev
alita.node:_ZN5alita18CancelTaskResponseD2Ev
alita.node:_ZN5alita18CdnImageUploadInfo10SharedCtorEv
alita.node:_ZN5alita18CdnImageUploadInfo10SharedDtorEv
alita.node:_ZN5alita18CdnImageUploadInfo16default_instanceEv
alita.node:_ZN5alita18CdnImageUploadInfo17default_instance_E
alita.node:_ZN5alita18CdnImageUploadInfo18kAesKeyFieldNumberE
alita.node:_ZN5alita18CdnImageUploadInfo18kFileIdFieldNumberE
alita.node:_ZN5alita18CdnImageUploadInfo18kMidMd5FieldNumberE
alita.node:_ZN5alita18CdnImageUploadInfo19kFileMd5FieldNumberE
alita.node:_ZN5alita18CdnImageUploadInfo19kMidPathFieldNumberE
alita.node:_ZN5alita18CdnImageUploadInfo20kFileTypeFieldNumberE
alita.node:_ZN5alita18CdnImageUploadInfo20kMsgSvrIdFieldNumberE
alita.node:_ZN5alita18CdnImageUploadInfo20kThumbMd5FieldNumberE
alita.node:_ZN5alita18CdnImageUploadInfo20kThumbUrlFieldNumberE
alita.node:_ZN5alita18CdnImageUploadInfo21CheckTypeAndMergeFromERKN7tencent8protobuf11MessageLiteE
alita.node:_ZN5alita18CdnImageUploadInfo21InitAsDefaultInstanceEv
alita.node:_ZN5alita18CdnImageUploadInfo21kMidLengthFieldNumberE
alita.node:_ZN5alita18CdnImageUploadInfo21kThumbPathFieldNumberE
alita.node:_ZN5alita18CdnImageUploadInfo22kCreateTimeFieldNumberE
alita.node:_ZN5alita18CdnImageUploadInfo22kFileLengthFieldNumberE
alita.node:_ZN5alita18CdnImageUploadInfo22kMsgLocalIdFieldNumberE
alita.node:_ZN5alita18CdnImageUploadInfo22kNormalPathFieldNumberE
alita.node:_ZN5alita18CdnImageUploadInfo22kToUsernameFieldNumberE
alita.node:_ZN5alita18CdnImageUploadInfo23kThumbAesKeyFieldNumberE
alita.node:_ZN5alita18CdnImageUploadInfo23kThumbLengthFieldNumberE
alita.node:_ZN5alita18CdnImageUploadInfo24kFromUsernameFieldNumberE
alita.node:_ZN5alita18CdnImageUploadInfo27MergePartialFromCodedStreamEPN7tencent8protobuf2io16CodedInputStreamE
alita.node:_ZN5alita18CdnImageUploadInfo4SwapEPS0_
alita.node:_ZN5alita18CdnImageUploadInfo5ClearEv
alita.node:_ZN5alita18CdnImageUploadInfo8CopyFromERKS0_
alita.node:_ZN5alita18CdnImageUploadInfo9MergeFromERKS0_
alita.node:_ZN5alita18CdnImageUploadInfoC1ERKS0_
alita.node:_ZN5alita18CdnImageUploadInfoC1Ev
alita.node:_ZN5alita18CdnImageUploadInfoC2ERKS0_
alita.node:_ZN5alita18CdnImageUploadInfoC2Ev
alita.node:_ZN5alita18CdnImageUploadInfoD0Ev
alita.node:_ZN5alita18CdnImageUploadInfoD1Ev
alita.node:_ZN5alita18CdnImageUploadInfoD2Ev
alita.node:_ZN5alita18ChatRoomMemberList10SharedCtorEv
alita.node:_ZN5alita18ChatRoomMemberList10SharedDtorEv
alita.node:_ZN5alita18ChatRoomMemberList16default_instanceEv
alita.node:_ZN5alita18ChatRoomMemberList17default_instance_E
alita.node:_ZN5alita18ChatRoomMemberList20kInfoMaskFieldNumberE
alita.node:_ZN5alita18ChatRoomMemberList21CheckTypeAndMergeFromERKN7tencent8protobuf11MessageLiteE
alita.node:_ZN5alita18ChatRoomMemberList21InitAsDefaultInstanceEv
alita.node:_ZN5alita18ChatRoomMemberList22kSvrVersionFieldNumberE
alita.node:_ZN5alita18ChatRoomMemberList25kClientVersionFieldNumberE
alita.node:_ZN5alita18ChatRoomMemberList26kChatroomMemberFieldNumberE
alita.node:_ZN5alita18ChatRoomMemberList27MergePartialFromCodedStreamEPN7tencent8protobuf2io16CodedInputStreamE
alita.node:_ZN5alita18ChatRoomMemberList4SwapEPS0_
alita.node:_ZN5alita18ChatRoomMemberList5ClearEv
alita.node:_ZN5alita18ChatRoomMemberList8CopyFromERKS0_
alita.node:_ZN5alita18ChatRoomMemberList9MergeFromERKS0_
alita.node:_ZN5alita18ChatRoomMemberListC1ERKS0_
alita.node:_ZN5alita18ChatRoomMemberListC1Ev
alita.node:_ZN5alita18ChatRoomMemberListC2ERKS0_
alita.node:_ZN5alita18ChatRoomMemberListC2Ev
alita.node:_ZN5alita18ChatRoomMemberListD0Ev
alita.node:_ZN5alita18ChatRoomMemberListD1Ev
alita.node:_ZN5alita18ChatRoomMemberListD2Ev
alita.node:_ZN5alita18CleanCacheResponse10SharedCtorEv
alita.node:_ZN5alita18CleanCacheResponse10SharedDtorEv
alita.node:_ZN5alita18CleanCacheResponse16default_instanceEv
alita.node:_ZN5alita18CleanCacheResponse16kSizeFieldNumberE
alita.node:_ZN5alita18CleanCacheResponse17default_instance_E
alita.node:_ZN5alita18CleanCacheResponse18kErrMsgFieldNumberE
alita.node:_ZN5alita18CleanCacheResponse18kTaskIdFieldNumberE
alita.node:_ZN5alita18CleanCacheResponse19kErrCodeFieldNumberE
alita.node:_ZN5alita18CleanCacheResponse21CheckTypeAndMergeFromERKN7tencent8protobuf11MessageLiteE
alita.node:_ZN5alita18CleanCacheResponse21InitAsDefaultInstanceEv
alita.node:_ZN5alita18CleanCacheResponse27MergePartialFromCodedStreamEPN7tencent8protobuf2io16CodedInputStreamE
alita.node:_ZN5alita18CleanCacheResponse4SwapEPS0_
alita.node:_ZN5alita18CleanCacheResponse5ClearEv
alita.node:_ZN5alita18CleanCacheResponse8CopyFromERKS0_
alita.node:_ZN5alita18CleanCacheResponse9MergeFromERKS0_
alita.node:_ZN5alita18CleanCacheResponseC1ERKS0_
alita.node:_ZN5alita18CleanCacheResponseC1Ev
alita.node:_ZN5alita18CleanCacheResponseC2ERKS0_
alita.node:_ZN5alita18CleanCacheResponseC2Ev
alita.node:_ZN5alita18CleanCacheResponseD0Ev
alita.node:_ZN5alita18CleanCacheResponseD1Ev
alita.node:_ZN5alita18CleanCacheResponseD2Ev
alita.node:_ZN5alita18ConversationConfig10SharedCtorEv
alita.node:_ZN5alita18ConversationConfig10SharedDtorEv
alita.node:_ZN5alita18ConversationConfig16default_instanceEv
alita.node:_ZN5alita18ConversationConfig17default_instance_E
alita.node:_ZN5alita18ConversationConfig21CheckTypeAndMergeFromERKN7tencent8protobuf11MessageLiteE
alita.node:_ZN5alita18ConversationConfig21InitAsDefaultInstanceEv
alita.node:_ZN5alita18ConversationConfig27MergePartialFromCodedStreamEPN7tencent8protobuf2io16CodedInputStreamE
alita.node:_ZN5alita18ConversationConfig33kSyncConversationCountFieldNumberE
alita.node:_ZN5alita18ConversationConfig4SwapEPS0_
alita.node:_ZN5alita18ConversationConfig5ClearEv
alita.node:_ZN5alita18ConversationConfig8CopyFromERKS0_
alita.node:_ZN5alita18ConversationConfig9MergeFromERKS0_
alita.node:_ZN5alita18ConversationConfigC1ERKS0_
alita.node:_ZN5alita18ConversationConfigC1Ev
alita.node:_ZN5alita18ConversationConfigC2ERKS0_
alita.node:_ZN5alita18ConversationConfigC2Ev
alita.node:_ZN5alita18ConversationConfigD0Ev
alita.node:_ZN5alita18ConversationConfigD1Ev
alita.node:_ZN5alita18ConversationConfigD2Ev
alita.node:_ZN5alita18CreateTaskResponse10SharedCtorEv
alita.node:_ZN5alita18CreateTaskResponse10SharedDtorEv
alita.node:_ZN5alita18CreateTaskResponse16default_instanceEv
alita.node:_ZN5alita18CreateTaskResponse17default_instance_E
alita.node:_ZN5alita18CreateTaskResponse18kTaskIdFieldNumberE
alita.node:_ZN5alita18CreateTaskResponse21CheckTypeAndMergeFromERKN7tencent8protobuf11MessageLiteE
alita.node:_ZN5alita18CreateTaskResponse21InitAsDefaultInstanceEv
alita.node:_ZN5alita18CreateTaskResponse27MergePartialFromCodedStreamEPN7tencent8protobuf2io16CodedInputStreamE
alita.node:_ZN5alita18CreateTaskResponse4SwapEPS0_
alita.node:_ZN5alita18CreateTaskResponse5ClearEv
alita.node:_ZN5alita18CreateTaskResponse8CopyFromERKS0_
alita.node:_ZN5alita18CreateTaskResponse9MergeFromERKS0_
alita.node:_ZN5alita18CreateTaskResponseC1ERKS0_
alita.node:_ZN5alita18CreateTaskResponseC1Ev
alita.node:_ZN5alita18CreateTaskResponseC2ERKS0_
alita.node:_ZN5alita18CreateTaskResponseC2Ev
alita.node:_ZN5alita18CreateTaskResponseD0Ev
alita.node:_ZN5alita18CreateTaskResponseD1Ev
alita.node:_ZN5alita18CreateTaskResponseD2Ev
alita.node:_ZN5alita18CreateTokenRequest10SharedCtorEv
alita.node:_ZN5alita18CreateTokenRequest10SharedDtorEv
alita.node:_ZN5alita18CreateTokenRequest16default_instanceEv
alita.node:_ZN5alita18CreateTokenRequest17default_instance_E
alita.node:_ZN5alita18CreateTokenRequest17kAppidFieldNumberE
alita.node:_ZN5alita18CreateTokenRequest21CheckTypeAndMergeFromERKN7tencent8protobuf11MessageLiteE
alita.node:_ZN5alita18CreateTokenRequest21InitAsDefaultInstanceEv
alita.node:_ZN5alita18CreateTokenRequest22kSdkversionFieldNumberE
alita.node:_ZN5alita18CreateTokenRequest23kPackageNameFieldNumberE
alita.node:_ZN5alita18CreateTokenRequest27MergePartialFromCodedStreamEPN7tencent8protobuf2io16CodedInputStreamE
alita.node:_ZN5alita18CreateTokenRequest4SwapEPS0_
alita.node:_ZN5alita18CreateTokenRequest5ClearEv
alita.node:_ZN5alita18CreateTokenRequest8CopyFromERKS0_
alita.node:_ZN5alita18CreateTokenRequest9MergeFromERKS0_
alita.node:_ZN5alita18CreateTokenRequestC1ERKS0_
alita.node:_ZN5alita18CreateTokenRequestC1Ev
alita.node:_ZN5alita18CreateTokenRequestC2ERKS0_
alita.node:_ZN5alita18CreateTokenRequestC2Ev
alita.node:_ZN5alita18CreateTokenRequestD0Ev
alita.node:_ZN5alita18CreateTokenRequestD1Ev
alita.node:_ZN5alita18CreateTokenRequestD2Ev
alita.node:_ZN5alita18DeleteUserResponse10SharedCtorEv
alita.node:_ZN5alita18DeleteUserResponse10SharedDtorEv
alita.node:_ZN5alita18DeleteUserResponse16default_instanceEv
alita.node:_ZN5alita18DeleteUserResponse17default_instance_E
alita.node:_ZN5alita18DeleteUserResponse19kErrCodeFieldNumberE
alita.node:_ZN5alita18DeleteUserResponse21CheckTypeAndMergeFromERKN7tencent8protobuf11MessageLiteE
alita.node:_ZN5alita18DeleteUserResponse21InitAsDefaultInstanceEv
alita.node:_ZN5alita18DeleteUserResponse27MergePartialFromCodedStreamEPN7tencent8protobuf2io16CodedInputStreamE
alita.node:_ZN5alita18DeleteUserResponse4SwapEPS0_
alita.node:_ZN5alita18DeleteUserResponse5ClearEv
alita.node:_ZN5alita18DeleteUserResponse8CopyFromERKS0_
alita.node:_ZN5alita18DeleteUserResponse9MergeFromERKS0_
alita.node:_ZN5alita18DeleteUserResponseC1ERKS0_
alita.node:_ZN5alita18DeleteUserResponseC1Ev
alita.node:_ZN5alita18DeleteUserResponseC2ERKS0_
alita.node:_ZN5alita18DeleteUserResponseC2Ev
alita.node:_ZN5alita18DeleteUserResponseD0Ev
alita.node:_ZN5alita18DeleteUserResponseD1Ev
alita.node:_ZN5alita18DeleteUserResponseD2Ev
alita.node:_ZN5alita18EmojiUpdateRequest10SharedCtorEv
alita.node:_ZN5alita18EmojiUpdateRequest10SharedDtorEv
alita.node:_ZN5alita18EmojiUpdateRequest16default_instanceEv
alita.node:_ZN5alita18EmojiUpdateRequest16kTypeFieldNumberE
alita.node:_ZN5alita18EmojiUpdateRequest17default_instance_E
alita.node:_ZN5alita18EmojiUpdateRequest18kOpCodeFieldNumberE
alita.node:_ZN5alita18EmojiUpdateRequest21CheckTypeAndMergeFromERKN7tencent8protobuf11MessageLiteE
alita.node:_ZN5alita18EmojiUpdateRequest21InitAsDefaultInstanceEv
alita.node:_ZN5alita18EmojiUpdateRequest27MergePartialFromCodedStreamEPN7tencent8protobuf2io16CodedInputStreamE
alita.node:_ZN5alita18EmojiUpdateRequest4SwapEPS0_
alita.node:_ZN5alita18EmojiUpdateRequest5ClearEv
alita.node:_ZN5alita18EmojiUpdateRequest8CopyFromERKS0_
alita.node:_ZN5alita18EmojiUpdateRequest9MergeFromERKS0_
alita.node:_ZN5alita18EmojiUpdateRequestC1ERKS0_
alita.node:_ZN5alita18EmojiUpdateRequestC1Ev
alita.node:_ZN5alita18EmojiUpdateRequestC2ERKS0_
alita.node:_ZN5alita18EmojiUpdateRequestC2Ev
alita.node:_ZN5alita18EmojiUpdateRequestD0Ev
alita.node:_ZN5alita18EmojiUpdateRequestD1Ev
alita.node:_ZN5alita18EmojiUpdateRequestD2Ev
alita.node:_ZN5alita18GetContactResponse10SharedCtorEv
alita.node:_ZN5alita18GetContactResponse10SharedDtorEv
alita.node:_ZN5alita18GetContactResponse16default_instanceEv
alita.node:_ZN5alita18GetContactResponse17default_instance_E
alita.node:_ZN5alita18GetContactResponse19kContactFieldNumberE
alita.node:_ZN5alita18GetContactResponse21CheckTypeAndMergeFromERKN7tencent8protobuf11MessageLiteE
alita.node:_ZN5alita18GetContactResponse21InitAsDefaultInstanceEv
alita.node:_ZN5alita18GetContactResponse27MergePartialFromCodedStreamEPN7tencent8protobuf2io16CodedInputStreamE
alita.node:_ZN5alita18GetContactResponse4SwapEPS0_
alita.node:_ZN5alita18GetContactResponse5ClearEv
alita.node:_ZN5alita18GetContactResponse8CopyFromERKS0_
alita.node:_ZN5alita18GetContactResponse9MergeFromERKS0_
alita.node:_ZN5alita18GetContactResponseC1ERKS0_
alita.node:_ZN5alita18GetContactResponseC1Ev
alita.node:_ZN5alita18GetContactResponseC2ERKS0_
alita.node:_ZN5alita18GetContactResponseC2Ev
alita.node:_ZN5alita18GetContactResponseD0Ev
alita.node:_ZN5alita18GetContactResponseD1Ev
alita.node:_ZN5alita18GetContactResponseD2Ev
alita.node:_ZN5alita18GetMessageResponse10SharedCtorEv
alita.node:_ZN5alita18GetMessageResponse10SharedDtorEv
alita.node:_ZN5alita18GetMessageResponse15kMsgFieldNumberE
alita.node:_ZN5alita18GetMessageResponse16default_instanceEv
alita.node:_ZN5alita18GetMessageResponse17default_instance_E
alita.node:_ZN5alita18GetMessageResponse21CheckTypeAndMergeFromERKN7tencent8protobuf11MessageLiteE
alita.node:_ZN5alita18GetMessageResponse21InitAsDefaultInstanceEv
alita.node:_ZN5alita18GetMessageResponse27MergePartialFromCodedStreamEPN7tencent8protobuf2io16CodedInputStreamE
alita.node:_ZN5alita18GetMessageResponse4SwapEPS0_
alita.node:_ZN5alita18GetMessageResponse5ClearEv
alita.node:_ZN5alita18GetMessageResponse8CopyFromERKS0_
alita.node:_ZN5alita18GetMessageResponse9MergeFromERKS0_
alita.node:_ZN5alita18GetMessageResponseC1ERKS0_
alita.node:_ZN5alita18GetMessageResponseC1Ev
alita.node:_ZN5alita18GetMessageResponseC2ERKS0_
alita.node:_ZN5alita18GetMessageResponseC2Ev
alita.node:_ZN5alita18GetMessageResponseD0Ev
alita.node:_ZN5alita18GetMessageResponseD1Ev
alita.node:_ZN5alita18GetMessageResponseD2Ev
alita.node:_ZN5alita18LoginState_IsValidEi
alita.node:_ZN5alita18OauthState_IsValidEi
alita.node:_ZN5alita18PatMessageTemplate10SharedCtorEv
alita.node:_ZN5alita18PatMessageTemplate10SharedDtorEv
alita.node:_ZN5alita18PatMessageTemplate16default_instanceEv
alita.node:_ZN5alita18PatMessageTemplate17default_instance_E
alita.node:_ZN5alita18PatMessageTemplate21CheckTypeAndMergeFromERKN7tencent8protobuf11MessageLiteE
alita.node:_ZN5alita18PatMessageTemplate21InitAsDefaultInstanceEv
alita.node:_ZN5alita18PatMessageTemplate21kPatSuffixFieldNumberE
alita.node:_ZN5alita18PatMessageTemplate21kPlaintextFieldNumberE
alita.node:_ZN5alita18PatMessageTemplate24kChatUsernameFieldNumberE
alita.node:_ZN5alita18PatMessageTemplate24kFromUsernameFieldNumberE
alita.node:_ZN5alita18PatMessageTemplate24kTemplateTextFieldNumberE
alita.node:_ZN5alita18PatMessageTemplate26kPattedUsernameFieldNumberE
alita.node:_ZN5alita18PatMessageTemplate27MergePartialFromCodedStreamEPN7tencent8protobuf2io16CodedInputStreamE
alita.node:_ZN5alita18PatMessageTemplate28kPatSuffixVersionFieldNumberE
alita.node:_ZN5alita18PatMessageTemplate4SwapEPS0_
alita.node:_ZN5alita18PatMessageTemplate5ClearEv
alita.node:_ZN5alita18PatMessageTemplate8CopyFromERKS0_
alita.node:_ZN5alita18PatMessageTemplate9MergeFromERKS0_
alita.node:_ZN5alita18PatMessageTemplateC1ERKS0_
alita.node:_ZN5alita18PatMessageTemplateC1Ev
alita.node:_ZN5alita18PatMessageTemplateC2ERKS0_
alita.node:_ZN5alita18PatMessageTemplateC2Ev
alita.node:_ZN5alita18PatMessageTemplateD0Ev
alita.node:_ZN5alita18PatMessageTemplateD1Ev
alita.node:_ZN5alita18PatMessageTemplateD2Ev
alita.node:_ZN5alita18RegisterAppRequest10SharedCtorEv
alita.node:_ZN5alita18RegisterAppRequest10SharedDtorEv
alita.node:_ZN5alita18RegisterAppRequest16default_instanceEv
alita.node:_ZN5alita18RegisterAppRequest17default_instance_E
alita.node:_ZN5alita18RegisterAppRequest17kAppidFieldNumberE
alita.node:_ZN5alita18RegisterAppRequest18kTaskIdFieldNumberE
alita.node:_ZN5alita18RegisterAppRequest21CheckTypeAndMergeFromERKN7tencent8protobuf11MessageLiteE
alita.node:_ZN5alita18RegisterAppRequest21InitAsDefaultInstanceEv
alita.node:_ZN5alita18RegisterAppRequest21kSignatureFieldNumberE
alita.node:_ZN5alita18RegisterAppRequest23kPackageNameFieldNumberE
alita.node:_ZN5alita18RegisterAppRequest27MergePartialFromCodedStreamEPN7tencent8protobuf2io16CodedInputStreamE
alita.node:_ZN5alita18RegisterAppRequest4SwapEPS0_
alita.node:_ZN5alita18RegisterAppRequest5ClearEv
alita.node:_ZN5alita18RegisterAppRequest8CopyFromERKS0_
alita.node:_ZN5alita18RegisterAppRequest9MergeFromERKS0_
alita.node:_ZN5alita18RegisterAppRequestC1ERKS0_
alita.node:_ZN5alita18RegisterAppRequestC1Ev
alita.node:_ZN5alita18RegisterAppRequestC2ERKS0_
alita.node:_ZN5alita18RegisterAppRequestC2Ev
alita.node:_ZN5alita18RegisterAppRequestD0Ev
alita.node:_ZN5alita18RegisterAppRequestD1Ev
alita.node:_ZN5alita18RegisterAppRequestD2Ev
alita.node:_ZN5alita18SendRequestRequest10SharedCtorEv
alita.node:_ZN5alita18SendRequestRequest10SharedDtorEv
alita.node:_ZN5alita18SendRequestRequest16default_instanceEv
alita.node:_ZN5alita18SendRequestRequest17default_instance_E
alita.node:_ZN5alita18SendRequestRequest18kTaskIdFieldNumberE
alita.node:_ZN5alita18SendRequestRequest19kRequestFieldNumberE
alita.node:_ZN5alita18SendRequestRequest21CheckTypeAndMergeFromERKN7tencent8protobuf11MessageLiteE
alita.node:_ZN5alita18SendRequestRequest21InitAsDefaultInstanceEv
alita.node:_ZN5alita18SendRequestRequest27MergePartialFromCodedStreamEPN7tencent8protobuf2io16CodedInputStreamE
alita.node:_ZN5alita18SendRequestRequest4SwapEPS0_
alita.node:_ZN5alita18SendRequestRequest5ClearEv
alita.node:_ZN5alita18SendRequestRequest8CopyFromERKS0_
alita.node:_ZN5alita18SendRequestRequest9MergeFromERKS0_
alita.node:_ZN5alita18SendRequestRequestC1ERKS0_
alita.node:_ZN5alita18SendRequestRequestC1Ev
alita.node:_ZN5alita18SendRequestRequestC2ERKS0_
alita.node:_ZN5alita18SendRequestRequestC2Ev
alita.node:_ZN5alita18SendRequestRequestD0Ev
alita.node:_ZN5alita18SendRequestRequestD1Ev
alita.node:_ZN5alita18SendRequestRequestD2Ev
alita.node:_ZN5alita18ShareMusicVoipInfo10SharedCtorEv
alita.node:_ZN5alita18ShareMusicVoipInfo10SharedDtorEv
alita.node:_ZN5alita18ShareMusicVoipInfo16default_instanceEv
alita.node:_ZN5alita18ShareMusicVoipInfo17default_instance_E
alita.node:_ZN5alita18ShareMusicVoipInfo19kMusicIdFieldNumberE
alita.node:_ZN5alita18ShareMusicVoipInfo21CheckTypeAndMergeFromERKN7tencent8protobuf11MessageLiteE
alita.node:_ZN5alita18ShareMusicVoipInfo21InitAsDefaultInstanceEv
alita.node:_ZN5alita18ShareMusicVoipInfo27MergePartialFromCodedStreamEPN7tencent8protobuf2io16CodedInputStreamE
alita.node:_ZN5alita18ShareMusicVoipInfo4SwapEPS0_
alita.node:_ZN5alita18ShareMusicVoipInfo5ClearEv
alita.node:_ZN5alita18ShareMusicVoipInfo8CopyFromERKS0_
alita.node:_ZN5alita18ShareMusicVoipInfo9MergeFromERKS0_
alita.node:_ZN5alita18ShareMusicVoipInfoC1ERKS0_
alita.node:_ZN5alita18ShareMusicVoipInfoC1Ev
alita.node:_ZN5alita18ShareMusicVoipInfoC2ERKS0_
alita.node:_ZN5alita18ShareMusicVoipInfoC2Ev
alita.node:_ZN5alita18ShareMusicVoipInfoD0Ev
alita.node:_ZN5alita18ShareMusicVoipInfoD1Ev
alita.node:_ZN5alita18ShareMusicVoipInfoD2Ev
alita.node:_ZN5alita18TriggerSyncRequest10SharedCtorEv
alita.node:_ZN5alita18TriggerSyncRequest10SharedDtorEv
alita.node:_ZN5alita18TriggerSyncRequest16default_instanceEv
alita.node:_ZN5alita18TriggerSyncRequest17default_instance_E
alita.node:_ZN5alita18TriggerSyncRequest20kSelectorFieldNumberE
alita.node:_ZN5alita18TriggerSyncRequest21CheckTypeAndMergeFromERKN7tencent8protobuf11MessageLiteE
alita.node:_ZN5alita18TriggerSyncRequest21InitAsDefaultInstanceEv
alita.node:_ZN5alita18TriggerSyncRequest27MergePartialFromCodedStreamEPN7tencent8protobuf2io16CodedInputStreamE
alita.node:_ZN5alita18TriggerSyncRequest4SwapEPS0_
alita.node:_ZN5alita18TriggerSyncRequest5ClearEv
alita.node:_ZN5alita18TriggerSyncRequest8CopyFromERKS0_
alita.node:_ZN5alita18TriggerSyncRequest9MergeFromERKS0_
alita.node:_ZN5alita18TriggerSyncRequestC1ERKS0_
alita.node:_ZN5alita18TriggerSyncRequestC1Ev
alita.node:_ZN5alita18TriggerSyncRequestC2ERKS0_
alita.node:_ZN5alita18TriggerSyncRequestC2Ev
alita.node:_ZN5alita18TriggerSyncRequestD0Ev
alita.node:_ZN5alita18TriggerSyncRequestD1Ev
alita.node:_ZN5alita18TriggerSyncRequestD2Ev
alita.node:_ZN5alita18UnverifyMemberList10SharedCtorEv
alita.node:_ZN5alita18UnverifyMemberList10SharedDtorEv
alita.node:_ZN5alita18UnverifyMemberList16default_instanceEv
alita.node:_ZN5alita18UnverifyMemberList17default_instance_E
alita.node:_ZN5alita18UnverifyMemberList18kMemberFieldNumberE
alita.node:_ZN5alita18UnverifyMemberList21CheckTypeAndMergeFromERKN7tencent8protobuf11MessageLiteE
alita.node:_ZN5alita18UnverifyMemberList21InitAsDefaultInstanceEv
alita.node:_ZN5alita18UnverifyMemberList27MergePartialFromCodedStreamEPN7tencent8protobuf2io16CodedInputStreamE
alita.node:_ZN5alita18UnverifyMemberList4SwapEPS0_
alita.node:_ZN5alita18UnverifyMemberList5ClearEv
alita.node:_ZN5alita18UnverifyMemberList8CopyFromERKS0_
alita.node:_ZN5alita18UnverifyMemberList9MergeFromERKS0_
alita.node:_ZN5alita18UnverifyMemberListC1ERKS0_
alita.node:_ZN5alita18UnverifyMemberListC1Ev
alita.node:_ZN5alita18UnverifyMemberListC2ERKS0_
alita.node:_ZN5alita18UnverifyMemberListC2Ev
alita.node:_ZN5alita18UnverifyMemberListD0Ev
alita.node:_ZN5alita18UnverifyMemberListD1Ev
alita.node:_ZN5alita18UnverifyMemberListD2Ev
alita.node:_ZN5alita18UploadImageRequest10SharedCtorEv
alita.node:_ZN5alita18UploadImageRequest10SharedDtorEv
alita.node:_ZN5alita18UploadImageRequest16default_instanceEv
alita.node:_ZN5alita18UploadImageRequest17default_instance_E
alita.node:_ZN5alita18UploadImageRequest18kTaskIdFieldNumberE
alita.node:_ZN5alita18UploadImageRequest21CheckTypeAndMergeFromERKN7tencent8protobuf11MessageLiteE
alita.node:_ZN5alita18UploadImageRequest21InitAsDefaultInstanceEv
alita.node:_ZN5alita18UploadImageRequest27MergePartialFromCodedStreamEPN7tencent8protobuf2io16CodedInputStreamE
alita.node:_ZN5alita18UploadImageRequest30kCdnImageUploadInfoFieldNumberE
alita.node:_ZN5alita18UploadImageRequest4SwapEPS0_
alita.node:_ZN5alita18UploadImageRequest5ClearEv
alita.node:_ZN5alita18UploadImageRequest8CopyFromERKS0_
alita.node:_ZN5alita18UploadImageRequest9MergeFromERKS0_
alita.node:_ZN5alita18UploadImageRequestC1ERKS0_
alita.node:_ZN5alita18UploadImageRequestC1Ev
alita.node:_ZN5alita18UploadImageRequestC2ERKS0_
alita.node:_ZN5alita18UploadImageRequestC2Ev
alita.node:_ZN5alita18UploadImageRequestD0Ev
alita.node:_ZN5alita18UploadImageRequestD1Ev
alita.node:_ZN5alita18UploadImageRequestD2Ev
alita.node:_ZN5alita18VoiceTranceRequest10SharedCtorEv
alita.node:_ZN5alita18VoiceTranceRequest10SharedDtorEv
alita.node:_ZN5alita18VoiceTranceRequest16default_instanceEv
alita.node:_ZN5alita18VoiceTranceRequest17default_instance_E
alita.node:_ZN5alita18VoiceTranceRequest18kTaskIdFieldNumberE
alita.node:_ZN5alita18VoiceTranceRequest21CheckTypeAndMergeFromERKN7tencent8protobuf11MessageLiteE
alita.node:_ZN5alita18VoiceTranceRequest21InitAsDefaultInstanceEv
alita.node:_ZN5alita18VoiceTranceRequest22kEncodeTypeFieldNumberE
alita.node:_ZN5alita18VoiceTranceRequest25kVoiceFilePathFieldNumberE
alita.node:_ZN5alita18VoiceTranceRequest27MergePartialFromCodedStreamEPN7tencent8protobuf2io16CodedInputStreamE
alita.node:_ZN5alita18VoiceTranceRequest4SwapEPS0_
alita.node:_ZN5alita18VoiceTranceRequest5ClearEv
alita.node:_ZN5alita18VoiceTranceRequest8CopyFromERKS0_
alita.node:_ZN5alita18VoiceTranceRequest9MergeFromERKS0_
alita.node:_ZN5alita18VoiceTranceRequestC1ERKS0_
alita.node:_ZN5alita18VoiceTranceRequestC1Ev
alita.node:_ZN5alita18VoiceTranceRequestC2ERKS0_
alita.node:_ZN5alita18VoiceTranceRequestC2Ev
alita.node:_ZN5alita18VoiceTranceRequestD0Ev
alita.node:_ZN5alita18VoiceTranceRequestD1Ev
alita.node:_ZN5alita18VoiceTranceRequestD2Ev
alita.node:_ZN5alita18VoipMessageContent10SharedCtorEv
alita.node:_ZN5alita18VoipMessageContent10SharedDtorEv
alita.node:_ZN5alita18VoipMessageContent16default_instanceEv
alita.node:_ZN5alita18VoipMessageContent16kTimeFieldNumberE
alita.node:_ZN5alita18VoipMessageContent17default_instance_E
alita.node:_ZN5alita18VoipMessageContent17kStateFieldNumberE
alita.node:_ZN5alita18VoipMessageContent20kVoipTypeFieldNumberE
alita.node:_ZN5alita18VoipMessageContent21CheckTypeAndMergeFromERKN7tencent8protobuf11MessageLiteE
alita.node:_ZN5alita18VoipMessageContent21InitAsDefaultInstanceEv
alita.node:_ZN5alita18VoipMessageContent21kErrorCodeFieldNumberE
alita.node:_ZN5alita18VoipMessageContent27MergePartialFromCodedStreamEPN7tencent8protobuf2io16CodedInputStreamE
alita.node:_ZN5alita18VoipMessageContent4SwapEPS0_
alita.node:_ZN5alita18VoipMessageContent5ClearEv
alita.node:_ZN5alita18VoipMessageContent8CopyFromERKS0_
alita.node:_ZN5alita18VoipMessageContent9MergeFromERKS0_
alita.node:_ZN5alita18VoipMessageContentC1ERKS0_
alita.node:_ZN5alita18VoipMessageContentC1Ev
alita.node:_ZN5alita18VoipMessageContentC2ERKS0_
alita.node:_ZN5alita18VoipMessageContentC2Ev
alita.node:_ZN5alita18VoipMessageContentD0Ev
alita.node:_ZN5alita18VoipMessageContentD1Ev
alita.node:_ZN5alita18VoipMessageContentD2Ev
alita.node:_ZN5alita19AccountType_IsValidEi
alita.node:_ZN5alita19AddToContactRequest10SharedCtorEv
alita.node:_ZN5alita19AddToContactRequest10SharedDtorEv
alita.node:_ZN5alita19AddToContactRequest16default_instanceEv
alita.node:_ZN5alita19AddToContactRequest17default_instance_E
alita.node:_ZN5alita19AddToContactRequest18kTaskIdFieldNumberE
alita.node:_ZN5alita19AddToContactRequest20kAddSceneFieldNumberE
alita.node:_ZN5alita19AddToContactRequest20kUsernameFieldNumberE
alita.node:_ZN5alita19AddToContactRequest21CheckTypeAndMergeFromERKN7tencent8protobuf11MessageLiteE
alita.node:_ZN5alita19AddToContactRequest21InitAsDefaultInstanceEv
alita.node:_ZN5alita19AddToContactRequest27MergePartialFromCodedStreamEPN7tencent8protobuf2io16CodedInputStreamE
alita.node:_ZN5alita19AddToContactRequest4SwapEPS0_
alita.node:_ZN5alita19AddToContactRequest5ClearEv
alita.node:_ZN5alita19AddToContactRequest8CopyFromERKS0_
alita.node:_ZN5alita19AddToContactRequest9MergeFromERKS0_
alita.node:_ZN5alita19AddToContactRequestC1ERKS0_
alita.node:_ZN5alita19AddToContactRequestC1Ev
alita.node:_ZN5alita19AddToContactRequestC2ERKS0_
alita.node:_ZN5alita19AddToContactRequestC2Ev
alita.node:_ZN5alita19AddToContactRequestD0Ev
alita.node:_ZN5alita19AddToContactRequestD1Ev
alita.node:_ZN5alita19AddToContactRequestD2Ev
alita.node:_ZN5alita19AvatarUpdateRequest10SharedCtorEv
alita.node:_ZN5alita19AvatarUpdateRequest10SharedDtorEv
alita.node:_ZN5alita19AvatarUpdateRequest16default_instanceEv
alita.node:_ZN5alita19AvatarUpdateRequest17default_instance_E
alita.node:_ZN5alita19AvatarUpdateRequest20kUsernameFieldNumberE
alita.node:_ZN5alita19AvatarUpdateRequest21CheckTypeAndMergeFromERKN7tencent8protobuf11MessageLiteE
alita.node:_ZN5alita19AvatarUpdateRequest21InitAsDefaultInstanceEv
alita.node:_ZN5alita19AvatarUpdateRequest27MergePartialFromCodedStreamEPN7tencent8protobuf2io16CodedInputStreamE
alita.node:_ZN5alita19AvatarUpdateRequest4SwapEPS0_
alita.node:_ZN5alita19AvatarUpdateRequest5ClearEv
alita.node:_ZN5alita19AvatarUpdateRequest8CopyFromERKS0_
alita.node:_ZN5alita19AvatarUpdateRequest9MergeFromERKS0_
alita.node:_ZN5alita19AvatarUpdateRequestC1ERKS0_
alita.node:_ZN5alita19AvatarUpdateRequestC1Ev
alita.node:_ZN5alita19AvatarUpdateRequestC2ERKS0_
alita.node:_ZN5alita19AvatarUpdateRequestC2Ev
alita.node:_ZN5alita19AvatarUpdateRequestD0Ev
alita.node:_ZN5alita19AvatarUpdateRequestD1Ev
alita.node:_ZN5alita19AvatarUpdateRequestD2Ev
alita.node:_ZN5alita19CancelLoginResponse10SharedCtorEv
alita.node:_ZN5alita19CancelLoginResponse10SharedDtorEv
alita.node:_ZN5alita19CancelLoginResponse16default_instanceEv
alita.node:_ZN5alita19CancelLoginResponse17default_instance_E
alita.node:_ZN5alita19CancelLoginResponse19kErrCodeFieldNumberE
alita.node:_ZN5alita19CancelLoginResponse21CheckTypeAndMergeFromERKN7tencent8protobuf11MessageLiteE
alita.node:_ZN5alita19CancelLoginResponse21InitAsDefaultInstanceEv
alita.node:_ZN5alita19CancelLoginResponse27MergePartialFromCodedStreamEPN7tencent8protobuf2io16CodedInputStreamE
alita.node:_ZN5alita19CancelLoginResponse4SwapEPS0_
alita.node:_ZN5alita19CancelLoginResponse5ClearEv
alita.node:_ZN5alita19CancelLoginResponse8CopyFromERKS0_
alita.node:_ZN5alita19CancelLoginResponse9MergeFromERKS0_
alita.node:_ZN5alita19CancelLoginResponseC1ERKS0_
alita.node:_ZN5alita19CancelLoginResponseC1Ev
alita.node:_ZN5alita19CancelLoginResponseC2ERKS0_
alita.node:_ZN5alita19CancelLoginResponseC2Ev
alita.node:_ZN5alita19CancelLoginResponseD0Ev
alita.node:_ZN5alita19CancelLoginResponseD1Ev
alita.node:_ZN5alita19CancelLoginResponseD2Ev
alita.node:_ZN5alita19CancelTask1Response10SharedCtorEv
alita.node:_ZN5alita19CancelTask1Response10SharedDtorEv
alita.node:_ZN5alita19CancelTask1Response16default_instanceEv
alita.node:_ZN5alita19CancelTask1Response17default_instance_E
alita.node:_ZN5alita19CancelTask1Response19kErrCodeFieldNumberE
alita.node:_ZN5alita19CancelTask1Response21CheckTypeAndMergeFromERKN7tencent8protobuf11MessageLiteE
alita.node:_ZN5alita19CancelTask1Response21InitAsDefaultInstanceEv
alita.node:_ZN5alita19CancelTask1Response27MergePartialFromCodedStreamEPN7tencent8protobuf2io16CodedInputStreamE
alita.node:_ZN5alita19CancelTask1Response4SwapEPS0_
alita.node:_ZN5alita19CancelTask1Response5ClearEv
alita.node:_ZN5alita19CancelTask1Response8CopyFromERKS0_
alita.node:_ZN5alita19CancelTask1Response9MergeFromERKS0_
alita.node:_ZN5alita19CancelTask1ResponseC1ERKS0_
alita.node:_ZN5alita19CancelTask1ResponseC1Ev
alita.node:_ZN5alita19CancelTask1ResponseC2ERKS0_
alita.node:_ZN5alita19CancelTask1ResponseC2Ev
alita.node:_ZN5alita19CancelTask1ResponseD0Ev
alita.node:_ZN5alita19CancelTask1ResponseD1Ev
alita.node:_ZN5alita19CancelTask1ResponseD2Ev
alita.node:_ZN5alita19CdnFileType_IsValidEi
alita.node:_ZN5alita19ContactFlag_IsValidEi
alita.node:_ZN5alita19ContactType_IsValidEi
alita.node:_ZN5alita19ConversationManager11SetOnNotifyERKN4Napi12CallbackInfoE
alita.node:_ZN5alita19ConversationManager15GetConversationERKN4Napi12CallbackInfoE
alita.node:_ZN5alita19ConversationManager17EnterConversationERKN4Napi12CallbackInfoE
alita.node:_ZN5alita19ConversationManager18DeleteConversationERKN4Napi12CallbackInfoE
alita.node:_ZN5alita19ConversationManager19GetConversationListERKN4Napi12CallbackInfoE
alita.node:_ZN5alita19ConversationManager20EventExecuteCallbackERKN4Napi12CallbackInfoE
alita.node:_ZN5alita19ConversationManager20MarkConversationReadERKN4Napi12CallbackInfoE
alita.node:_ZN5alita19ConversationManager20SetConversationFlagsERKN4Napi12CallbackInfoE
alita.node:_ZN5alita19ConversationManager21MarkConversationRead1ERKN4Napi12CallbackInfoE
alita.node:_ZN5alita19ConversationManager22DeleteAllConversationsERKN4Napi12CallbackInfoE
alita.node:_ZN5alita19ConversationManager22MarkConversationUnreadERKN4Napi12CallbackInfoE
alita.node:_ZN5alita19ConversationManager29SyncConversationSequenceAsyncERKN4Napi12CallbackInfoE
alita.node:_ZN5alita19ConversationManager4InitEN4Napi3EnvENS1_6ObjectE
alita.node:_ZN5alita19ConversationManagerC1ERKN4Napi12CallbackInfoE
alita.node:_ZN5alita19ConversationManagerC2ERKN4Napi12CallbackInfoE
alita.node:_ZN5alita19CreateTokenResponse10SharedCtorEv
alita.node:_ZN5alita19CreateTokenResponse10SharedDtorEv
alita.node:_ZN5alita19CreateTokenResponse16default_instanceEv
alita.node:_ZN5alita19CreateTokenResponse17default_instance_E
alita.node:_ZN5alita19CreateTokenResponse17kTokenFieldNumberE
alita.node:_ZN5alita19CreateTokenResponse21CheckTypeAndMergeFromERKN7tencent8protobuf11MessageLiteE
alita.node:_ZN5alita19CreateTokenResponse21InitAsDefaultInstanceEv
alita.node:_ZN5alita19CreateTokenResponse27MergePartialFromCodedStreamEPN7tencent8protobuf2io16CodedInputStreamE
alita.node:_ZN5alita19CreateTokenResponse4SwapEPS0_
alita.node:_ZN5alita19CreateTokenResponse5ClearEv
alita.node:_ZN5alita19CreateTokenResponse8CopyFromERKS0_
alita.node:_ZN5alita19CreateTokenResponse9MergeFromERKS0_
alita.node:_ZN5alita19CreateTokenResponseC1ERKS0_
alita.node:_ZN5alita19CreateTokenResponseC1Ev
alita.node:_ZN5alita19CreateTokenResponseC2ERKS0_
alita.node:_ZN5alita19CreateTokenResponseC2Ev
alita.node:_ZN5alita19CreateTokenResponseD0Ev
alita.node:_ZN5alita19CreateTokenResponseD1Ev
alita.node:_ZN5alita19CreateTokenResponseD2Ev
alita.node:_ZN5alita19DownloadFileRequest10SharedCtorEv
alita.node:_ZN5alita19DownloadFileRequest10SharedDtorEv
alita.node:_ZN5alita19DownloadFileRequest16default_instanceEv
alita.node:_ZN5alita19DownloadFileRequest17default_instance_E
alita.node:_ZN5alita19DownloadFileRequest18kTaskIdFieldNumberE
alita.node:_ZN5alita19DownloadFileRequest21CheckTypeAndMergeFromERKN7tencent8protobuf11MessageLiteE
alita.node:_ZN5alita19DownloadFileRequest21InitAsDefaultInstanceEv
alita.node:_ZN5alita19DownloadFileRequest23kCdnFileInfoFieldNumberE
alita.node:_ZN5alita19DownloadFileRequest27MergePartialFromCodedStreamEPN7tencent8protobuf2io16CodedInputStreamE
alita.node:_ZN5alita19DownloadFileRequest4SwapEPS0_
alita.node:_ZN5alita19DownloadFileRequest5ClearEv
alita.node:_ZN5alita19DownloadFileRequest8CopyFromERKS0_
alita.node:_ZN5alita19DownloadFileRequest9MergeFromERKS0_
alita.node:_ZN5alita19DownloadFileRequestC1ERKS0_
alita.node:_ZN5alita19DownloadFileRequestC1Ev
alita.node:_ZN5alita19DownloadFileRequestC2ERKS0_
alita.node:_ZN5alita19DownloadFileRequestC2Ev
alita.node:_ZN5alita19DownloadFileRequestD0Ev
alita.node:_ZN5alita19DownloadFileRequestD1Ev
alita.node:_ZN5alita19DownloadFileRequestD2Ev
alita.node:_ZN5alita19EmojiMessageContent10SharedCtorEv
alita.node:_ZN5alita19EmojiMessageContent10SharedDtorEv
alita.node:_ZN5alita19EmojiMessageContent15kMd5FieldNumberE
alita.node:_ZN5alita19EmojiMessageContent16default_instanceEv
alita.node:_ZN5alita19EmojiMessageContent16kTypeFieldNumberE
alita.node:_ZN5alita19EmojiMessageContent17default_instance_E
alita.node:_ZN5alita19EmojiMessageContent17kWidthFieldNumberE
alita.node:_ZN5alita19EmojiMessageContent18kHeightFieldNumberE
alita.node:_ZN5alita19EmojiMessageContent19kGameExtFieldNumberE
alita.node:_ZN5alita19EmojiMessageContent21CheckTypeAndMergeFromERKN7tencent8protobuf11MessageLiteE
alita.node:_ZN5alita19EmojiMessageContent21InitAsDefaultInstanceEv
alita.node:_ZN5alita19EmojiMessageContent21kProductIdFieldNumberE
alita.node:_ZN5alita19EmojiMessageContent22kDesignerIdFieldNumberE
alita.node:_ZN5alita19EmojiMessageContent22kFileLengthFieldNumberE
alita.node:_ZN5alita19EmojiMessageContent27MergePartialFromCodedStreamEPN7tencent8protobuf2io16CodedInputStreamE
alita.node:_ZN5alita19EmojiMessageContent4SwapEPS0_
alita.node:_ZN5alita19EmojiMessageContent5ClearEv
alita.node:_ZN5alita19EmojiMessageContent8CopyFromERKS0_
alita.node:_ZN5alita19EmojiMessageContent9MergeFromERKS0_
alita.node:_ZN5alita19EmojiMessageContentC1ERKS0_
alita.node:_ZN5alita19EmojiMessageContentC1Ev
alita.node:_ZN5alita19EmojiMessageContentC2ERKS0_
alita.node:_ZN5alita19EmojiMessageContentC2Ev
alita.node:_ZN5alita19EmojiMessageContentD0Ev
alita.node:_ZN5alita19EmojiMessageContentD1Ev
alita.node:_ZN5alita19EmojiMessageContentD2Ev
alita.node:_ZN5alita19FavDataType_IsValidEi
alita.node:_ZN5alita19GetAudioDataRequest10SharedCtorEv
alita.node:_ZN5alita19GetAudioDataRequest10SharedDtorEv
alita.node:_ZN5alita19GetAudioDataRequest16default_instanceEv
alita.node:_ZN5alita19GetAudioDataRequest17default_instance_E
alita.node:_ZN5alita19GetAudioDataRequest21CheckTypeAndMergeFromERKN7tencent8protobuf11MessageLiteE
alita.node:_ZN5alita19GetAudioDataRequest21InitAsDefaultInstanceEv
alita.node:_ZN5alita19GetAudioDataRequest21kPcmBufferFieldNumberE
alita.node:_ZN5alita19GetAudioDataRequest22kGetDataLenFieldNumberE
alita.node:_ZN5alita19GetAudioDataRequest27MergePartialFromCodedStreamEPN7tencent8protobuf2io16CodedInputStreamE
alita.node:_ZN5alita19GetAudioDataRequest4SwapEPS0_
alita.node:_ZN5alita19GetAudioDataRequest5ClearEv
alita.node:_ZN5alita19GetAudioDataRequest8CopyFromERKS0_
alita.node:_ZN5alita19GetAudioDataRequest9MergeFromERKS0_
alita.node:_ZN5alita19GetAudioDataRequestC1ERKS0_
alita.node:_ZN5alita19GetAudioDataRequestC1Ev
alita.node:_ZN5alita19GetAudioDataRequestC2ERKS0_
alita.node:_ZN5alita19GetAudioDataRequestC2Ev
alita.node:_ZN5alita19GetAudioDataRequestD0Ev
alita.node:_ZN5alita19GetAudioDataRequestD1Ev
alita.node:_ZN5alita19GetAudioDataRequestD2Ev
alita.node:_ZN5alita19GetUserListResponse10SharedCtorEv
alita.node:_ZN5alita19GetUserListResponse10SharedDtorEv
alita.node:_ZN5alita19GetUserListResponse16default_instanceEv
alita.node:_ZN5alita19GetUserListResponse17default_instance_E
alita.node:_ZN5alita19GetUserListResponse20kUserListFieldNumberE
alita.node:_ZN5alita19GetUserListResponse21CheckTypeAndMergeFromERKN7tencent8protobuf11MessageLiteE
alita.node:_ZN5alita19GetUserListResponse21InitAsDefaultInstanceEv
alita.node:_ZN5alita19GetUserListResponse27MergePartialFromCodedStreamEPN7tencent8protobuf2io16CodedInputStreamE
alita.node:_ZN5alita19GetUserListResponse4SwapEPS0_
alita.node:_ZN5alita19GetUserListResponse5ClearEv
alita.node:_ZN5alita19GetUserListResponse8CopyFromERKS0_
alita.node:_ZN5alita19GetUserListResponse9MergeFromERKS0_
alita.node:_ZN5alita19GetUserListResponseC1ERKS0_
alita.node:_ZN5alita19GetUserListResponseC1Ev
alita.node:_ZN5alita19GetUserListResponseC2ERKS0_
alita.node:_ZN5alita19GetUserListResponseC2Ev
alita.node:_ZN5alita19GetUserListResponseD0Ev
alita.node:_ZN5alita19GetUserListResponseD1Ev
alita.node:_ZN5alita19GetUserListResponseD2Ev
alita.node:_ZN5alita19GetVideoDataRequest10SharedCtorEv
alita.node:_ZN5alita19GetVideoDataRequest10SharedDtorEv
alita.node:_ZN5alita19GetVideoDataRequest16default_instanceEv
alita.node:_ZN5alita19GetVideoDataRequest17default_instance_E
alita.node:_ZN5alita19GetVideoDataRequest17kWidthFieldNumberE
alita.node:_ZN5alita19GetVideoDataRequest18kHeightFieldNumberE
alita.node:_ZN5alita19GetVideoDataRequest19kDataLenFieldNumberE
alita.node:_ZN5alita19GetVideoDataRequest21CheckTypeAndMergeFromERKN7tencent8protobuf11MessageLiteE
alita.node:_ZN5alita19GetVideoDataRequest21InitAsDefaultInstanceEv
alita.node:_ZN5alita19GetVideoDataRequest21kPcmBufferFieldNumberE
alita.node:_ZN5alita19GetVideoDataRequest27MergePartialFromCodedStreamEPN7tencent8protobuf2io16CodedInputStreamE
alita.node:_ZN5alita19GetVideoDataRequest4SwapEPS0_
alita.node:_ZN5alita19GetVideoDataRequest5ClearEv
alita.node:_ZN5alita19GetVideoDataRequest8CopyFromERKS0_
alita.node:_ZN5alita19GetVideoDataRequest9MergeFromERKS0_
alita.node:_ZN5alita19GetVideoDataRequestC1ERKS0_
alita.node:_ZN5alita19GetVideoDataRequestC1Ev
alita.node:_ZN5alita19GetVideoDataRequestC2ERKS0_
alita.node:_ZN5alita19GetVideoDataRequestC2Ev
alita.node:_ZN5alita19GetVideoDataRequestD0Ev
alita.node:_ZN5alita19GetVideoDataRequestD1Ev
alita.node:_ZN5alita19GetVideoDataRequestD2Ev
alita.node:_ZN5alita19HandleVerifyRequest10SharedCtorEv
alita.node:_ZN5alita19HandleVerifyRequest10SharedDtorEv
alita.node:_ZN5alita19HandleVerifyRequest16default_instanceEv
alita.node:_ZN5alita19HandleVerifyRequest17default_instance_E
alita.node:_ZN5alita19HandleVerifyRequest18kOpCodeFieldNumberE
alita.node:_ZN5alita19HandleVerifyRequest18kTaskIdFieldNumberE
alita.node:_ZN5alita19HandleVerifyRequest20kUsernameFieldNumberE
alita.node:_ZN5alita19HandleVerifyRequest21CheckTypeAndMergeFromERKN7tencent8protobuf11MessageLiteE
alita.node:_ZN5alita19HandleVerifyRequest21InitAsDefaultInstanceEv
alita.node:_ZN5alita19HandleVerifyRequest27MergePartialFromCodedStreamEPN7tencent8protobuf2io16CodedInputStreamE
alita.node:_ZN5alita19HandleVerifyRequest4SwapEPS0_
alita.node:_ZN5alita19HandleVerifyRequest5ClearEv
alita.node:_ZN5alita19HandleVerifyRequest8CopyFromERKS0_
alita.node:_ZN5alita19HandleVerifyRequest9MergeFromERKS0_
alita.node:_ZN5alita19HandleVerifyRequestC1ERKS0_
alita.node:_ZN5alita19HandleVerifyRequestC1Ev
alita.node:_ZN5alita19HandleVerifyRequestC2ERKS0_
alita.node:_ZN5alita19HandleVerifyRequestC2Ev
alita.node:_ZN5alita19HandleVerifyRequestD0Ev
alita.node:_ZN5alita19HandleVerifyRequestD1Ev
alita.node:_ZN5alita19HandleVerifyRequestD2Ev
alita.node:_ZN5alita19ImageMessageContent10SharedCtorEv
alita.node:_ZN5alita19ImageMessageContent10SharedDtorEv
alita.node:_ZN5alita19ImageMessageContent15kMd5FieldNumberE
alita.node:_ZN5alita19ImageMessageContent16default_instanceEv
alita.node:_ZN5alita19ImageMessageContent17default_instance_E
alita.node:_ZN5alita19ImageMessageContent21CheckTypeAndMergeFromERKN7tencent8protobuf11MessageLiteE
alita.node:_ZN5alita19ImageMessageContent21InitAsDefaultInstanceEv
alita.node:_ZN5alita19ImageMessageContent22kThumbWidthFieldNumberE
alita.node:_ZN5alita19ImageMessageContent23kImageLengthFieldNumberE
alita.node:_ZN5alita19ImageMessageContent23kThumbHeightFieldNumberE
alita.node:_ZN5alita19ImageMessageContent23kThumbLengthFieldNumberE
alita.node:_ZN5alita19ImageMessageContent26kRawImageLengthFieldNumberE
alita.node:_ZN5alita19ImageMessageContent27MergePartialFromCodedStreamEPN7tencent8protobuf2io16CodedInputStreamE
alita.node:_ZN5alita19ImageMessageContent4SwapEPS0_
alita.node:_ZN5alita19ImageMessageContent5ClearEv
alita.node:_ZN5alita19ImageMessageContent8CopyFromERKS0_
alita.node:_ZN5alita19ImageMessageContent9MergeFromERKS0_
alita.node:_ZN5alita19ImageMessageContentC1ERKS0_
alita.node:_ZN5alita19ImageMessageContentC1Ev
alita.node:_ZN5alita19ImageMessageContentC2ERKS0_
alita.node:_ZN5alita19ImageMessageContentC2Ev
alita.node:_ZN5alita19ImageMessageContentD0Ev
alita.node:_ZN5alita19ImageMessageContentD1Ev
alita.node:_ZN5alita19ImageMessageContentD2Ev
alita.node:_ZN5alita19LinkedinContactItem10SharedCtorEv
alita.node:_ZN5alita19LinkedinContactItem10SharedDtorEv
alita.node:_ZN5alita19LinkedinContactItem16default_instanceEv
alita.node:_ZN5alita19LinkedinContactItem17default_instance_E
alita.node:_ZN5alita19LinkedinContactItem21CheckTypeAndMergeFromERKN7tencent8protobuf11MessageLiteE
alita.node:_ZN5alita19LinkedinContactItem21InitAsDefaultInstanceEv
alita.node:_ZN5alita19LinkedinContactItem24kLinkedinNameFieldNumberE
alita.node:_ZN5alita19LinkedinContactItem27MergePartialFromCodedStreamEPN7tencent8protobuf2io16CodedInputStreamE
alita.node:_ZN5alita19LinkedinContactItem28kLinkedinMemberIDFieldNumberE
alita.node:_ZN5alita19LinkedinContactItem29kLinkedinPublicUrlFieldNumberE
alita.node:_ZN5alita19LinkedinContactItem4SwapEPS0_
alita.node:_ZN5alita19LinkedinContactItem5ClearEv
alita.node:_ZN5alita19LinkedinContactItem8CopyFromERKS0_
alita.node:_ZN5alita19LinkedinContactItem9MergeFromERKS0_
alita.node:_ZN5alita19LinkedinContactItemC1ERKS0_
alita.node:_ZN5alita19LinkedinContactItemC1Ev
alita.node:_ZN5alita19LinkedinContactItemC2ERKS0_
alita.node:_ZN5alita19LinkedinContactItemC2Ev
alita.node:_ZN5alita19LinkedinContactItemD0Ev
alita.node:_ZN5alita19LinkedinContactItemD1Ev
alita.node:_ZN5alita19LinkedinContactItemD2Ev
alita.node:_ZN5alita19LoginByIlinkRequest10SharedCtorEv
alita.node:_ZN5alita19LoginByIlinkRequest10SharedDtorEv
alita.node:_ZN5alita19LoginByIlinkRequest16default_instanceEv
alita.node:_ZN5alita19LoginByIlinkRequest17default_instance_E
alita.node:_ZN5alita19LoginByIlinkRequest18kTaskIdFieldNumberE
alita.node:_ZN5alita19LoginByIlinkRequest20kUsernameFieldNumberE
alita.node:_ZN5alita19LoginByIlinkRequest21CheckTypeAndMergeFromERKN7tencent8protobuf11MessageLiteE
alita.node:_ZN5alita19LoginByIlinkRequest21InitAsDefaultInstanceEv
alita.node:_ZN5alita19LoginByIlinkRequest23kOauthTicketFieldNumberE
alita.node:_ZN5alita19LoginByIlinkRequest27MergePartialFromCodedStreamEPN7tencent8protobuf2io16CodedInputStreamE
alita.node:_ZN5alita19LoginByIlinkRequest4SwapEPS0_
alita.node:_ZN5alita19LoginByIlinkRequest5ClearEv
alita.node:_ZN5alita19LoginByIlinkRequest8CopyFromERKS0_
alita.node:_ZN5alita19LoginByIlinkRequest9MergeFromERKS0_
alita.node:_ZN5alita19LoginByIlinkRequestC1ERKS0_
alita.node:_ZN5alita19LoginByIlinkRequestC1Ev
alita.node:_ZN5alita19LoginByIlinkRequestC2ERKS0_
alita.node:_ZN5alita19LoginByIlinkRequestC2Ev
alita.node:_ZN5alita19LoginByIlinkRequestD0Ev
alita.node:_ZN5alita19LoginByIlinkRequestD1Ev
alita.node:_ZN5alita19LoginByIlinkRequestD2Ev
alita.node:_ZN5alita19MessageFlag_IsValidEi
alita.node:_ZN5alita19OAuthConfirmRequest10SharedCtorEv
alita.node:_ZN5alita19OAuthConfirmRequest10SharedDtorEv
alita.node:_ZN5alita19OAuthConfirmRequest16default_instanceEv
alita.node:_ZN5alita19OAuthConfirmRequest17default_instance_E
alita.node:_ZN5alita19OAuthConfirmRequest17kAppidFieldNumberE
alita.node:_ZN5alita19OAuthConfirmRequest17kScopeFieldNumberE
alita.node:_ZN5alita19OAuthConfirmRequest18kTaskIdFieldNumberE
alita.node:_ZN5alita19OAuthConfirmRequest20kAvatarIdFieldNumberE
alita.node:_ZN5alita19OAuthConfirmRequest21CheckTypeAndMergeFromERKN7tencent8protobuf11MessageLiteE
alita.node:_ZN5alita19OAuthConfirmRequest21InitAsDefaultInstanceEv
alita.node:_ZN5alita19OAuthConfirmRequest21kOperationFieldNumberE
alita.node:_ZN5alita19OAuthConfirmRequest27MergePartialFromCodedStreamEPN7tencent8protobuf2io16CodedInputStreamE
alita.node:_ZN5alita19OAuthConfirmRequest4SwapEPS0_
alita.node:_ZN5alita19OAuthConfirmRequest5ClearEv
alita.node:_ZN5alita19OAuthConfirmRequest8CopyFromERKS0_
alita.node:_ZN5alita19OAuthConfirmRequest9MergeFromERKS0_
alita.node:_ZN5alita19OAuthConfirmRequestC1ERKS0_
alita.node:_ZN5alita19OAuthConfirmRequestC1Ev
alita.node:_ZN5alita19OAuthConfirmRequestC2ERKS0_
alita.node:_ZN5alita19OAuthConfirmRequestC2Ev
alita.node:_ZN5alita19OAuthConfirmRequestD0Ev
alita.node:_ZN5alita19OAuthConfirmRequestD1Ev
alita.node:_ZN5alita19OAuthConfirmRequestD2Ev
alita.node:_ZN5alita19PushMailContactList10SharedCtorEv
alita.node:_ZN5alita19PushMailContactList10SharedDtorEv
alita.node:_ZN5alita19PushMailContactList16default_instanceEv
alita.node:_ZN5alita19PushMailContactList17default_instance_E
alita.node:_ZN5alita19PushMailContactList20kContactsFieldNumberE
alita.node:_ZN5alita19PushMailContactList21CheckTypeAndMergeFromERKN7tencent8protobuf11MessageLiteE
alita.node:_ZN5alita19PushMailContactList21InitAsDefaultInstanceEv
alita.node:_ZN5alita19PushMailContactList27MergePartialFromCodedStreamEPN7tencent8protobuf2io16CodedInputStreamE
alita.node:_ZN5alita19PushMailContactList4SwapEPS0_
alita.node:_ZN5alita19PushMailContactList5ClearEv
alita.node:_ZN5alita19PushMailContactList8CopyFromERKS0_
alita.node:_ZN5alita19PushMailContactList9MergeFromERKS0_
alita.node:_ZN5alita19PushMailContactListC1ERKS0_
alita.node:_ZN5alita19PushMailContactListC1Ev
alita.node:_ZN5alita19PushMailContactListC2ERKS0_
alita.node:_ZN5alita19PushMailContactListC2Ev
alita.node:_ZN5alita19PushMailContactListD0Ev
alita.node:_ZN5alita19PushMailContactListD1Ev
alita.node:_ZN5alita19PushMailContactListD2Ev
alita.node:_ZN5alita19QuitChatRoomRequest10SharedCtorEv
alita.node:_ZN5alita19QuitChatRoomRequest10SharedDtorEv
alita.node:_ZN5alita19QuitChatRoomRequest16default_instanceEv
alita.node:_ZN5alita19QuitChatRoomRequest17default_instance_E
alita.node:_ZN5alita19QuitChatRoomRequest18kTaskIdFieldNumberE
alita.node:_ZN5alita19QuitChatRoomRequest21CheckTypeAndMergeFromERKN7tencent8protobuf11MessageLiteE
alita.node:_ZN5alita19QuitChatRoomRequest21InitAsDefaultInstanceEv
alita.node:_ZN5alita19QuitChatRoomRequest24kRoomUsernameFieldNumberE
alita.node:_ZN5alita19QuitChatRoomRequest27MergePartialFromCodedStreamEPN7tencent8protobuf2io16CodedInputStreamE
alita.node:_ZN5alita19QuitChatRoomRequest4SwapEPS0_
alita.node:_ZN5alita19QuitChatRoomRequest5ClearEv
alita.node:_ZN5alita19QuitChatRoomRequest8CopyFromERKS0_
alita.node:_ZN5alita19QuitChatRoomRequest9MergeFromERKS0_
alita.node:_ZN5alita19QuitChatRoomRequestC1ERKS0_
alita.node:_ZN5alita19QuitChatRoomRequestC1Ev
alita.node:_ZN5alita19QuitChatRoomRequestC2ERKS0_
alita.node:_ZN5alita19QuitChatRoomRequestC2Ev
alita.node:_ZN5alita19QuitChatRoomRequestD0Ev
alita.node:_ZN5alita19QuitChatRoomRequestD1Ev
alita.node:_ZN5alita19QuitChatRoomRequestD2Ev
alita.node:_ZN5alita19RegisterAppResponse10SharedCtorEv
alita.node:_ZN5alita19RegisterAppResponse10SharedDtorEv
alita.node:_ZN5alita19RegisterAppResponse16default_instanceEv
alita.node:_ZN5alita19RegisterAppResponse17default_instance_E
alita.node:_ZN5alita19RegisterAppResponse18kErrMsgFieldNumberE
alita.node:_ZN5alita19RegisterAppResponse18kTaskIdFieldNumberE
alita.node:_ZN5alita19RegisterAppResponse19kErrCodeFieldNumberE
alita.node:_ZN5alita19RegisterAppResponse21CheckTypeAndMergeFromERKN7tencent8protobuf11MessageLiteE
alita.node:_ZN5alita19RegisterAppResponse21InitAsDefaultInstanceEv
alita.node:_ZN5alita19RegisterAppResponse27MergePartialFromCodedStreamEPN7tencent8protobuf2io16CodedInputStreamE
alita.node:_ZN5alita19RegisterAppResponse4SwapEPS0_
alita.node:_ZN5alita19RegisterAppResponse5ClearEv
alita.node:_ZN5alita19RegisterAppResponse8CopyFromERKS0_
alita.node:_ZN5alita19RegisterAppResponse9MergeFromERKS0_
alita.node:_ZN5alita19RegisterAppResponseC1ERKS0_
alita.node:_ZN5alita19RegisterAppResponseC1Ev
alita.node:_ZN5alita19RegisterAppResponseC2ERKS0_
alita.node:_ZN5alita19RegisterAppResponseC2Ev
alita.node:_ZN5alita19RegisterAppResponseD0Ev
alita.node:_ZN5alita19RegisterAppResponseD1Ev
alita.node:_ZN5alita19RegisterAppResponseD2Ev
alita.node:_ZN5alita19ReportKvDataRequest10SharedCtorEv
alita.node:_ZN5alita19ReportKvDataRequest10SharedDtorEv
alita.node:_ZN5alita19ReportKvDataRequest16default_instanceEv
alita.node:_ZN5alita19ReportKvDataRequest17default_instance_E
alita.node:_ZN5alita19ReportKvDataRequest17kLogIdFieldNumberE
alita.node:_ZN5alita19ReportKvDataRequest17kValueFieldNumberE
alita.node:_ZN5alita19ReportKvDataRequest21CheckTypeAndMergeFromERKN7tencent8protobuf11MessageLiteE
alita.node:_ZN5alita19ReportKvDataRequest21InitAsDefaultInstanceEv
alita.node:_ZN5alita19ReportKvDataRequest21kReportNowFieldNumberE
alita.node:_ZN5alita19ReportKvDataRequest27MergePartialFromCodedStreamEPN7tencent8protobuf2io16CodedInputStreamE
alita.node:_ZN5alita19ReportKvDataRequest29kIsIgnoreFreqCheckFieldNumberE
alita.node:_ZN5alita19ReportKvDataRequest4SwapEPS0_
alita.node:_ZN5alita19ReportKvDataRequest5ClearEv
alita.node:_ZN5alita19ReportKvDataRequest8CopyFromERKS0_
alita.node:_ZN5alita19ReportKvDataRequest9MergeFromERKS0_
alita.node:_ZN5alita19ReportKvDataRequestC1ERKS0_
alita.node:_ZN5alita19ReportKvDataRequestC1Ev
alita.node:_ZN5alita19ReportKvDataRequestC2ERKS0_
alita.node:_ZN5alita19ReportKvDataRequestC2Ev
alita.node:_ZN5alita19ReportKvDataRequestD0Ev
alita.node:_ZN5alita19ReportKvDataRequestD1Ev
alita.node:_ZN5alita19ReportKvDataRequestD2Ev
alita.node:_ZN5alita19SendRequestResponse10SharedCtorEv
alita.node:_ZN5alita19SendRequestResponse10SharedDtorEv
alita.node:_ZN5alita19SendRequestResponse16default_instanceEv
alita.node:_ZN5alita19SendRequestResponse16kBodyFieldNumberE
alita.node:_ZN5alita19SendRequestResponse17default_instance_E
alita.node:_ZN5alita19SendRequestResponse17kCmdIdFieldNumberE
alita.node:_ZN5alita19SendRequestResponse18kTaskIdFieldNumberE
alita.node:_ZN5alita19SendRequestResponse19kErrCodeFieldNumberE
alita.node:_ZN5alita19SendRequestResponse21CheckTypeAndMergeFromERKN7tencent8protobuf11MessageLiteE
alita.node:_ZN5alita19SendRequestResponse21InitAsDefaultInstanceEv
alita.node:_ZN5alita19SendRequestResponse27MergePartialFromCodedStreamEPN7tencent8protobuf2io16CodedInputStreamE
alita.node:_ZN5alita19SendRequestResponse4SwapEPS0_
alita.node:_ZN5alita19SendRequestResponse5ClearEv
alita.node:_ZN5alita19SendRequestResponse8CopyFromERKS0_
alita.node:_ZN5alita19SendRequestResponse9MergeFromERKS0_
alita.node:_ZN5alita19SendRequestResponseC1ERKS0_
alita.node:_ZN5alita19SendRequestResponseC1Ev
alita.node:_ZN5alita19SendRequestResponseC2ERKS0_
alita.node:_ZN5alita19SendRequestResponseC2Ev
alita.node:_ZN5alita19SendRequestResponseD0Ev
alita.node:_ZN5alita19SendRequestResponseD1Ev
alita.node:_ZN5alita19SendRequestResponseD2Ev
alita.node:_ZN5alita19SessionType_IsValidEi
alita.node:_ZN5alita19ShowPayCodeResponse10SharedCtorEv
alita.node:_ZN5alita19ShowPayCodeResponse10SharedDtorEv
alita.node:_ZN5alita19ShowPayCodeResponse16default_instanceEv
alita.node:_ZN5alita19ShowPayCodeResponse17default_instance_E
alita.node:_ZN5alita19ShowPayCodeResponse19kPayCodeFieldNumberE
alita.node:_ZN5alita19ShowPayCodeResponse21CheckTypeAndMergeFromERKN7tencent8protobuf11MessageLiteE
alita.node:_ZN5alita19ShowPayCodeResponse21InitAsDefaultInstanceEv
alita.node:_ZN5alita19ShowPayCodeResponse27MergePartialFromCodedStreamEPN7tencent8protobuf2io16CodedInputStreamE
alita.node:_ZN5alita19ShowPayCodeResponse4SwapEPS0_
alita.node:_ZN5alita19ShowPayCodeResponse5ClearEv
alita.node:_ZN5alita19ShowPayCodeResponse8CopyFromERKS0_
alita.node:_ZN5alita19ShowPayCodeResponse9MergeFromERKS0_
alita.node:_ZN5alita19ShowPayCodeResponseC1ERKS0_
alita.node:_ZN5alita19ShowPayCodeResponseC1Ev
alita.node:_ZN5alita19ShowPayCodeResponseC2ERKS0_
alita.node:_ZN5alita19ShowPayCodeResponseC2Ev
alita.node:_ZN5alita19ShowPayCodeResponseD0Ev
alita.node:_ZN5alita19ShowPayCodeResponseD1Ev
alita.node:_ZN5alita19ShowPayCodeResponseD2Ev
alita.node:_ZN5alita19StatusNotifyMessage10SharedCtorEv
alita.node:_ZN5alita19StatusNotifyMessage10SharedDtorEv
alita.node:_ZN5alita19StatusNotifyMessage16default_instanceEv
alita.node:_ZN5alita19StatusNotifyMessage16kTypeFieldNumberE
alita.node:_ZN5alita19StatusNotifyMessage17default_instance_E
alita.node:_ZN5alita19StatusNotifyMessage21CheckTypeAndMergeFromERKN7tencent8protobuf11MessageLiteE
alita.node:_ZN5alita19StatusNotifyMessage21InitAsDefaultInstanceEv
alita.node:_ZN5alita19StatusNotifyMessage23kSendCommandFieldNumberE
alita.node:_ZN5alita19StatusNotifyMessage27MergePartialFromCodedStreamEPN7tencent8protobuf2io16CodedInputStreamE
alita.node:_ZN5alita19StatusNotifyMessage4SwapEPS0_
alita.node:_ZN5alita19StatusNotifyMessage5ClearEv
alita.node:_ZN5alita19StatusNotifyMessage8CopyFromERKS0_
alita.node:_ZN5alita19StatusNotifyMessage9MergeFromERKS0_
alita.node:_ZN5alita19StatusNotifyMessageC1ERKS0_
alita.node:_ZN5alita19StatusNotifyMessageC1Ev
alita.node:_ZN5alita19StatusNotifyMessageC2ERKS0_
alita.node:_ZN5alita19StatusNotifyMessageC2Ev
alita.node:_ZN5alita19StatusNotifyMessageD0Ev
alita.node:_ZN5alita19StatusNotifyMessageD1Ev
alita.node:_ZN5alita19StatusNotifyMessageD2Ev
alita.node:_ZN5alita19TransMessageRequest10SharedCtorEv
alita.node:_ZN5alita19TransMessageRequest10SharedDtorEv
alita.node:_ZN5alita19TransMessageRequest16default_instanceEv
alita.node:_ZN5alita19TransMessageRequest17default_instance_E
alita.node:_ZN5alita19TransMessageRequest17kMsgIdFieldNumberE
alita.node:_ZN5alita19TransMessageRequest18kTaskIdFieldNumberE
alita.node:_ZN5alita19TransMessageRequest21CheckTypeAndMergeFromERKN7tencent8protobuf11MessageLiteE
alita.node:_ZN5alita19TransMessageRequest21InitAsDefaultInstanceEv
alita.node:_ZN5alita19TransMessageRequest27MergePartialFromCodedStreamEPN7tencent8protobuf2io16CodedInputStreamE
alita.node:_ZN5alita19TransMessageRequest4SwapEPS0_
alita.node:_ZN5alita19TransMessageRequest5ClearEv
alita.node:_ZN5alita19TransMessageRequest8CopyFromERKS0_
alita.node:_ZN5alita19TransMessageRequest9MergeFromERKS0_
alita.node:_ZN5alita19TransMessageRequestC1ERKS0_
alita.node:_ZN5alita19TransMessageRequestC1Ev
alita.node:_ZN5alita19TransMessageRequestC2ERKS0_
alita.node:_ZN5alita19TransMessageRequestC2Ev
alita.node:_ZN5alita19TransMessageRequestD0Ev
alita.node:_ZN5alita19TransMessageRequestD1Ev
alita.node:_ZN5alita19TransMessageRequestD2Ev
alita.node:_ZN5alita19UpdateConfigRequest10SharedCtorEv
alita.node:_ZN5alita19UpdateConfigRequest10SharedDtorEv
alita.node:_ZN5alita19UpdateConfigRequest16default_instanceEv
alita.node:_ZN5alita19UpdateConfigRequest17default_instance_E
alita.node:_ZN5alita19UpdateConfigRequest18kConfigFieldNumberE
alita.node:_ZN5alita19UpdateConfigRequest21CheckTypeAndMergeFromERKN7tencent8protobuf11MessageLiteE
alita.node:_ZN5alita19UpdateConfigRequest21InitAsDefaultInstanceEv
alita.node:_ZN5alita19UpdateConfigRequest27MergePartialFromCodedStreamEPN7tencent8protobuf2io16CodedInputStreamE
alita.node:_ZN5alita19UpdateConfigRequest4SwapEPS0_
alita.node:_ZN5alita19UpdateConfigRequest5ClearEv
alita.node:_ZN5alita19UpdateConfigRequest8CopyFromERKS0_
alita.node:_ZN5alita19UpdateConfigRequest9MergeFromERKS0_
alita.node:_ZN5alita19UpdateConfigRequestC1ERKS0_
alita.node:_ZN5alita19UpdateConfigRequestC1Ev
alita.node:_ZN5alita19UpdateConfigRequestC2ERKS0_
alita.node:_ZN5alita19UpdateConfigRequestC2Ev
alita.node:_ZN5alita19UpdateConfigRequestD0Ev
alita.node:_ZN5alita19UpdateConfigRequestD1Ev
alita.node:_ZN5alita19UpdateConfigRequestD2Ev
alita.node:_ZN5alita19UploadImageProgress10SharedCtorEv
alita.node:_ZN5alita19UploadImageProgress10SharedDtorEv
alita.node:_ZN5alita19UploadImageProgress16default_instanceEv
alita.node:_ZN5alita19UploadImageProgress17default_instance_E
alita.node:_ZN5alita19UploadImageProgress17kTotalFieldNumberE
alita.node:_ZN5alita19UploadImageProgress18kTaskIdFieldNumberE
alita.node:_ZN5alita19UploadImageProgress19kCurrentFieldNumberE
alita.node:_ZN5alita19UploadImageProgress21CheckTypeAndMergeFromERKN7tencent8protobuf11MessageLiteE
alita.node:_ZN5alita19UploadImageProgress21InitAsDefaultInstanceEv
alita.node:_ZN5alita19UploadImageProgress27MergePartialFromCodedStreamEPN7tencent8protobuf2io16CodedInputStreamE
alita.node:_ZN5alita19UploadImageProgress4SwapEPS0_
alita.node:_ZN5alita19UploadImageProgress5ClearEv
alita.node:_ZN5alita19UploadImageProgress8CopyFromERKS0_
alita.node:_ZN5alita19UploadImageProgress9MergeFromERKS0_
alita.node:_ZN5alita19UploadImageProgressC1ERKS0_
alita.node:_ZN5alita19UploadImageProgressC1Ev
alita.node:_ZN5alita19UploadImageProgressC2ERKS0_
alita.node:_ZN5alita19UploadImageProgressC2Ev
alita.node:_ZN5alita19UploadImageProgressD0Ev
alita.node:_ZN5alita19UploadImageProgressD1Ev
alita.node:_ZN5alita19UploadImageProgressD2Ev
alita.node:_ZN5alita19UploadImageResponse10SharedCtorEv
alita.node:_ZN5alita19UploadImageResponse10SharedDtorEv
alita.node:_ZN5alita19UploadImageResponse16default_instanceEv
alita.node:_ZN5alita19UploadImageResponse17default_instance_E
alita.node:_ZN5alita19UploadImageResponse18kErrMsgFieldNumberE
alita.node:_ZN5alita19UploadImageResponse18kTaskIdFieldNumberE
alita.node:_ZN5alita19UploadImageResponse19kErrCodeFieldNumberE
alita.node:_ZN5alita19UploadImageResponse21CheckTypeAndMergeFromERKN7tencent8protobuf11MessageLiteE
alita.node:_ZN5alita19UploadImageResponse21InitAsDefaultInstanceEv
alita.node:_ZN5alita19UploadImageResponse27MergePartialFromCodedStreamEPN7tencent8protobuf2io16CodedInputStreamE
alita.node:_ZN5alita19UploadImageResponse30kCdnImageUploadInfoFieldNumberE
alita.node:_ZN5alita19UploadImageResponse4SwapEPS0_
alita.node:_ZN5alita19UploadImageResponse5ClearEv
alita.node:_ZN5alita19UploadImageResponse8CopyFromERKS0_
alita.node:_ZN5alita19UploadImageResponse9MergeFromERKS0_
alita.node:_ZN5alita19UploadImageResponseC1ERKS0_
alita.node:_ZN5alita19UploadImageResponseC1Ev
alita.node:_ZN5alita19UploadImageResponseC2ERKS0_
alita.node:_ZN5alita19UploadImageResponseC2Ev
alita.node:_ZN5alita19UploadImageResponseD0Ev
alita.node:_ZN5alita19UploadImageResponseD1Ev
alita.node:_ZN5alita19UploadImageResponseD2Ev
alita.node:_ZN5alita19VideoMessageContent10SharedCtorEv
alita.node:_ZN5alita19VideoMessageContent10SharedDtorEv
alita.node:_ZN5alita19VideoMessageContent15kMd5FieldNumberE
alita.node:_ZN5alita19VideoMessageContent16default_instanceEv
alita.node:_ZN5alita19VideoMessageContent16kIsAdFieldNumberE
alita.node:_ZN5alita19VideoMessageContent17default_instance_E
alita.node:_ZN5alita19VideoMessageContent18kNewMd5FieldNumberE
alita.node:_ZN5alita19VideoMessageContent21CheckTypeAndMergeFromERKN7tencent8protobuf11MessageLiteE
alita.node:_ZN5alita19VideoMessageContent21InitAsDefaultInstanceEv
alita.node:_ZN5alita19VideoMessageContent22kPlayLengthFieldNumberE
alita.node:_ZN5alita19VideoMessageContent22kThumbWidthFieldNumberE
alita.node:_ZN5alita19VideoMessageContent23kThumbHeightFieldNumberE
alita.node:_ZN5alita19VideoMessageContent23kThumbLengthFieldNumberE
alita.node:_ZN5alita19VideoMessageContent23kVideoLengthFieldNumberE
alita.node:_ZN5alita19VideoMessageContent27MergePartialFromCodedStreamEPN7tencent8protobuf2io16CodedInputStreamE
alita.node:_ZN5alita19VideoMessageContent4SwapEPS0_
alita.node:_ZN5alita19VideoMessageContent5ClearEv
alita.node:_ZN5alita19VideoMessageContent8CopyFromERKS0_
alita.node:_ZN5alita19VideoMessageContent9MergeFromERKS0_
alita.node:_ZN5alita19VideoMessageContentC1ERKS0_
alita.node:_ZN5alita19VideoMessageContentC1Ev
alita.node:_ZN5alita19VideoMessageContentC2ERKS0_
alita.node:_ZN5alita19VideoMessageContentC2Ev
alita.node:_ZN5alita19VideoMessageContentD0Ev
alita.node:_ZN5alita19VideoMessageContentD1Ev
alita.node:_ZN5alita19VideoMessageContentD2Ev
alita.node:_ZN5alita19VoiceTranceResponse10SharedCtorEv
alita.node:_ZN5alita19VoiceTranceResponse10SharedDtorEv
alita.node:_ZN5alita19VoiceTranceResponse16default_instanceEv
alita.node:_ZN5alita19VoiceTranceResponse17default_instance_E
alita.node:_ZN5alita19VoiceTranceResponse18kErrMsgFieldNumberE
alita.node:_ZN5alita19VoiceTranceResponse18kResultFieldNumberE
alita.node:_ZN5alita19VoiceTranceResponse18kTaskIdFieldNumberE
alita.node:_ZN5alita19VoiceTranceResponse19kErrCodeFieldNumberE
alita.node:_ZN5alita19VoiceTranceResponse21CheckTypeAndMergeFromERKN7tencent8protobuf11MessageLiteE
alita.node:_ZN5alita19VoiceTranceResponse21InitAsDefaultInstanceEv
alita.node:_ZN5alita19VoiceTranceResponse27MergePartialFromCodedStreamEPN7tencent8protobuf2io16CodedInputStreamE
alita.node:_ZN5alita19VoiceTranceResponse4SwapEPS0_
alita.node:_ZN5alita19VoiceTranceResponse5ClearEv
alita.node:_ZN5alita19VoiceTranceResponse8CopyFromERKS0_
alita.node:_ZN5alita19VoiceTranceResponse9MergeFromERKS0_
alita.node:_ZN5alita19VoiceTranceResponseC1ERKS0_
alita.node:_ZN5alita19VoiceTranceResponseC1Ev
alita.node:_ZN5alita19VoiceTranceResponseC2ERKS0_
alita.node:_ZN5alita19VoiceTranceResponseC2Ev
alita.node:_ZN5alita19VoiceTranceResponseD0Ev
alita.node:_ZN5alita19VoiceTranceResponseD1Ev
alita.node:_ZN5alita19VoiceTranceResponseD2Ev
alita.node:_ZN5alita19WxcodepayPayMessage10SharedCtorEv
alita.node:_ZN5alita19WxcodepayPayMessage10SharedDtorEv
alita.node:_ZN5alita19WxcodepayPayMessage16default_instanceEv
alita.node:_ZN5alita19WxcodepayPayMessage17default_instance_E
alita.node:_ZN5alita19WxcodepayPayMessage17kStateFieldNumberE
alita.node:_ZN5alita19WxcodepayPayMessage18kRetMsgFieldNumberE
alita.node:_ZN5alita19WxcodepayPayMessage19kTransIdFieldNumberE
alita.node:_ZN5alita19WxcodepayPayMessage20kTotalFeeFieldNumberE
alita.node:_ZN5alita19WxcodepayPayMessage21CheckTypeAndMergeFromERKN7tencent8protobuf11MessageLiteE
alita.node:_ZN5alita19WxcodepayPayMessage21InitAsDefaultInstanceEv
alita.node:_ZN5alita19WxcodepayPayMessage21kTimestampFieldNumberE
alita.node:_ZN5alita19WxcodepayPayMessage27MergePartialFromCodedStreamEPN7tencent8protobuf2io16CodedInputStreamE
alita.node:_ZN5alita19WxcodepayPayMessage4SwapEPS0_
alita.node:_ZN5alita19WxcodepayPayMessage5ClearEv
alita.node:_ZN5alita19WxcodepayPayMessage8CopyFromERKS0_
alita.node:_ZN5alita19WxcodepayPayMessage9MergeFromERKS0_
alita.node:_ZN5alita19WxcodepayPayMessageC1ERKS0_
alita.node:_ZN5alita19WxcodepayPayMessageC1Ev
alita.node:_ZN5alita19WxcodepayPayMessageC2ERKS0_
alita.node:_ZN5alita19WxcodepayPayMessageC2Ev
alita.node:_ZN5alita19WxcodepayPayMessageD0Ev
alita.node:_ZN5alita19WxcodepayPayMessageD1Ev
alita.node:_ZN5alita19WxcodepayPayMessageD2Ev
alita.node:_ZN5alita20AddRoomMemberRequest10SharedCtorEv
alita.node:_ZN5alita20AddRoomMemberRequest10SharedDtorEv
alita.node:_ZN5alita20AddRoomMemberRequest16default_instanceEv
alita.node:_ZN5alita20AddRoomMemberRequest17default_instance_E
alita.node:_ZN5alita20AddRoomMemberRequest18kTaskIdFieldNumberE
alita.node:_ZN5alita20AddRoomMemberRequest21CheckTypeAndMergeFromERKN7tencent8protobuf11MessageLiteE
alita.node:_ZN5alita20AddRoomMemberRequest21InitAsDefaultInstanceEv
alita.node:_ZN5alita20AddRoomMemberRequest24kRoomUsernameFieldNumberE
alita.node:_ZN5alita20AddRoomMemberRequest24kUsernameListFieldNumberE
alita.node:_ZN5alita20AddRoomMemberRequest27MergePartialFromCodedStreamEPN7tencent8protobuf2io16CodedInputStreamE
alita.node:_ZN5alita20AddRoomMemberRequest4SwapEPS0_
alita.node:_ZN5alita20AddRoomMemberRequest5ClearEv
alita.node:_ZN5alita20AddRoomMemberRequest8CopyFromERKS0_
alita.node:_ZN5alita20AddRoomMemberRequest9MergeFromERKS0_
alita.node:_ZN5alita20AddRoomMemberRequestC1ERKS0_
alita.node:_ZN5alita20AddRoomMemberRequestC1Ev
alita.node:_ZN5alita20AddRoomMemberRequestC2ERKS0_
alita.node:_ZN5alita20AddRoomMemberRequestC2Ev
alita.node:_ZN5alita20AddRoomMemberRequestD0Ev
alita.node:_ZN5alita20AddRoomMemberRequestD1Ev
alita.node:_ZN5alita20AddRoomMemberRequestD2Ev
alita.node:_ZN5alita20AddToContactResponse10SharedCtorEv
alita.node:_ZN5alita20AddToContactResponse10SharedDtorEv
alita.node:_ZN5alita20AddToContactResponse16default_instanceEv
alita.node:_ZN5alita20AddToContactResponse17default_instance_E
alita.node:_ZN5alita20AddToContactResponse18kTaskIdFieldNumberE
alita.node:_ZN5alita20AddToContactResponse20kUsernameFieldNumberE
alita.node:_ZN5alita20AddToContactResponse21CheckTypeAndMergeFromERKN7tencent8protobuf11MessageLiteE
alita.node:_ZN5alita20AddToContactResponse21InitAsDefaultInstanceEv
alita.node:_ZN5alita20AddToContactResponse21kErrorInfoFieldNumberE
alita.node:_ZN5alita20AddToContactResponse27MergePartialFromCodedStreamEPN7tencent8protobuf2io16CodedInputStreamE
alita.node:_ZN5alita20AddToContactResponse4SwapEPS0_
alita.node:_ZN5alita20AddToContactResponse5ClearEv
alita.node:_ZN5alita20AddToContactResponse8CopyFromERKS0_
alita.node:_ZN5alita20AddToContactResponse9MergeFromERKS0_
alita.node:_ZN5alita20AddToContactResponseC1ERKS0_
alita.node:_ZN5alita20AddToContactResponseC1Ev
alita.node:_ZN5alita20AddToContactResponseC2ERKS0_
alita.node:_ZN5alita20AddToContactResponseC2Ev
alita.node:_ZN5alita20AddToContactResponseD0Ev
alita.node:_ZN5alita20AddToContactResponseD1Ev
alita.node:_ZN5alita20AddToContactResponseD2Ev
alita.node:_ZN5alita20BalanceUpdateRequest10SharedCtorEv
alita.node:_ZN5alita20BalanceUpdateRequest10SharedDtorEv
alita.node:_ZN5alita20BalanceUpdateRequest16default_instanceEv
alita.node:_ZN5alita20BalanceUpdateRequest17default_instance_E
alita.node:_ZN5alita20BalanceUpdateRequest21CheckTypeAndMergeFromERKN7tencent8protobuf11MessageLiteE
alita.node:_ZN5alita20BalanceUpdateRequest21InitAsDefaultInstanceEv
alita.node:_ZN5alita20BalanceUpdateRequest23kBalanceInfoFieldNumberE
alita.node:_ZN5alita20BalanceUpdateRequest27MergePartialFromCodedStreamEPN7tencent8protobuf2io16CodedInputStreamE
alita.node:_ZN5alita20BalanceUpdateRequest4SwapEPS0_
alita.node:_ZN5alita20BalanceUpdateRequest5ClearEv
alita.node:_ZN5alita20BalanceUpdateRequest8CopyFromERKS0_
alita.node:_ZN5alita20BalanceUpdateRequest9MergeFromERKS0_
alita.node:_ZN5alita20BalanceUpdateRequestC1ERKS0_
alita.node:_ZN5alita20BalanceUpdateRequestC1Ev
alita.node:_ZN5alita20BalanceUpdateRequestC2ERKS0_
alita.node:_ZN5alita20BalanceUpdateRequestC2Ev
alita.node:_ZN5alita20BalanceUpdateRequestD0Ev
alita.node:_ZN5alita20BalanceUpdateRequestD1Ev
alita.node:_ZN5alita20BalanceUpdateRequestD2Ev
alita.node:_ZN5alita20CdnImageDownloadInfo10SharedCtorEv
alita.node:_ZN5alita20CdnImageDownloadInfo10SharedDtorEv
alita.node:_ZN5alita20CdnImageDownloadInfo16default_instanceEv
alita.node:_ZN5alita20CdnImageDownloadInfo17default_instance_E
alita.node:_ZN5alita20CdnImageDownloadInfo18kAesKeyFieldNumberE
alita.node:_ZN5alita20CdnImageDownloadInfo18kImgMd5FieldNumberE
alita.node:_ZN5alita20CdnImageDownloadInfo18kImgUrlFieldNumberE
alita.node:_ZN5alita20CdnImageDownloadInfo19kImgPathFieldNumberE
alita.node:_ZN5alita20CdnImageDownloadInfo19kImgSizeFieldNumberE
alita.node:_ZN5alita20CdnImageDownloadInfo20kEncryVerFieldNumberE
alita.node:_ZN5alita20CdnImageDownloadInfo20kFileTypeFieldNumberE
alita.node:_ZN5alita20CdnImageDownloadInfo20kMsgSvrIdFieldNumberE
alita.node:_ZN5alita20CdnImageDownloadInfo21CheckTypeAndMergeFromERKN7tencent8protobuf11MessageLiteE
alita.node:_ZN5alita20CdnImageDownloadInfo21InitAsDefaultInstanceEv
alita.node:_ZN5alita20CdnImageDownloadInfo22kCreateTimeFieldNumberE
alita.node:_ZN5alita20CdnImageDownloadInfo22kMsgLocalIdFieldNumberE
alita.node:_ZN5alita20CdnImageDownloadInfo22kToUsernameFieldNumberE
alita.node:_ZN5alita20CdnImageDownloadInfo23kThumbAesKeyFieldNumberE
alita.node:_ZN5alita20CdnImageDownloadInfo24kFromUsernameFieldNumberE
alita.node:_ZN5alita20CdnImageDownloadInfo27MergePartialFromCodedStreamEPN7tencent8protobuf2io16CodedInputStreamE
alita.node:_ZN5alita20CdnImageDownloadInfo4SwapEPS0_
alita.node:_ZN5alita20CdnImageDownloadInfo5ClearEv
alita.node:_ZN5alita20CdnImageDownloadInfo8CopyFromERKS0_
alita.node:_ZN5alita20CdnImageDownloadInfo9MergeFromERKS0_
alita.node:_ZN5alita20CdnImageDownloadInfoC1ERKS0_
alita.node:_ZN5alita20CdnImageDownloadInfoC1Ev
alita.node:_ZN5alita20CdnImageDownloadInfoC2ERKS0_
alita.node:_ZN5alita20CdnImageDownloadInfoC2Ev
alita.node:_ZN5alita20CdnImageDownloadInfoD0Ev
alita.node:_ZN5alita20CdnImageDownloadInfoD1Ev
alita.node:_ZN5alita20CdnImageDownloadInfoD2Ev
alita.node:_ZN5alita20ContactUpdateRequest10SharedCtorEv
alita.node:_ZN5alita20ContactUpdateRequest10SharedDtorEv
alita.node:_ZN5alita20ContactUpdateRequest16default_instanceEv
alita.node:_ZN5alita20ContactUpdateRequest17default_instance_E
alita.node:_ZN5alita20ContactUpdateRequest18kOpCodeFieldNumberE
alita.node:_ZN5alita20ContactUpdateRequest19kContactFieldNumberE
alita.node:_ZN5alita20ContactUpdateRequest21CheckTypeAndMergeFromERKN7tencent8protobuf11MessageLiteE
alita.node:_ZN5alita20ContactUpdateRequest21InitAsDefaultInstanceEv
alita.node:_ZN5alita20ContactUpdateRequest27MergePartialFromCodedStreamEPN7tencent8protobuf2io16CodedInputStreamE
alita.node:_ZN5alita20ContactUpdateRequest4SwapEPS0_
alita.node:_ZN5alita20ContactUpdateRequest5ClearEv
alita.node:_ZN5alita20ContactUpdateRequest8CopyFromERKS0_
alita.node:_ZN5alita20ContactUpdateRequest9MergeFromERKS0_
alita.node:_ZN5alita20ContactUpdateRequestC1ERKS0_
alita.node:_ZN5alita20ContactUpdateRequestC1Ev
alita.node:_ZN5alita20ContactUpdateRequestC2ERKS0_
alita.node:_ZN5alita20ContactUpdateRequestC2Ev
alita.node:_ZN5alita20ContactUpdateRequestD0Ev
alita.node:_ZN5alita20ContactUpdateRequestD1Ev
alita.node:_ZN5alita20ContactUpdateRequestD2Ev
alita.node:_ZN5alita20DeleteContactRequest10SharedCtorEv
alita.node:_ZN5alita20DeleteContactRequest10SharedDtorEv
alita.node:_ZN5alita20DeleteContactRequest16default_instanceEv
alita.node:_ZN5alita20DeleteContactRequest17default_instance_E
alita.node:_ZN5alita20DeleteContactRequest18kTaskIdFieldNumberE
alita.node:_ZN5alita20DeleteContactRequest20kUsernameFieldNumberE
alita.node:_ZN5alita20DeleteContactRequest21CheckTypeAndMergeFromERKN7tencent8protobuf11MessageLiteE
alita.node:_ZN5alita20DeleteContactRequest21InitAsDefaultInstanceEv
alita.node:_ZN5alita20DeleteContactRequest27MergePartialFromCodedStreamEPN7tencent8protobuf2io16CodedInputStreamE
alita.node:_ZN5alita20DeleteContactRequest4SwapEPS0_
alita.node:_ZN5alita20DeleteContactRequest5ClearEv
alita.node:_ZN5alita20DeleteContactRequest8CopyFromERKS0_
alita.node:_ZN5alita20DeleteContactRequest9MergeFromERKS0_
alita.node:_ZN5alita20DeleteContactRequestC1ERKS0_
alita.node:_ZN5alita20DeleteContactRequestC1Ev
alita.node:_ZN5alita20DeleteContactRequestC2ERKS0_
alita.node:_ZN5alita20DeleteContactRequestC2Ev
alita.node:_ZN5alita20DeleteContactRequestD0Ev
alita.node:_ZN5alita20DeleteContactRequestD1Ev
alita.node:_ZN5alita20DeleteContactRequestD2Ev
alita.node:_ZN5alita20DeleteMessageRequest10SharedCtorEv
alita.node:_ZN5alita20DeleteMessageRequest10SharedDtorEv
alita.node:_ZN5alita20DeleteMessageRequest16default_instanceEv
alita.node:_ZN5alita20DeleteMessageRequest17default_instance_E
alita.node:_ZN5alita20DeleteMessageRequest20kUsernameFieldNumberE
alita.node:_ZN5alita20DeleteMessageRequest21CheckTypeAndMergeFromERKN7tencent8protobuf11MessageLiteE
alita.node:_ZN5alita20DeleteMessageRequest21InitAsDefaultInstanceEv
alita.node:_ZN5alita20DeleteMessageRequest27MergePartialFromCodedStreamEPN7tencent8protobuf2io16CodedInputStreamE
alita.node:_ZN5alita20DeleteMessageRequest4SwapEPS0_
alita.node:_ZN5alita20DeleteMessageRequest5ClearEv
alita.node:_ZN5alita20DeleteMessageRequest8CopyFromERKS0_
alita.node:_ZN5alita20DeleteMessageRequest9MergeFromERKS0_
alita.node:_ZN5alita20DeleteMessageRequestC1ERKS0_
alita.node:_ZN5alita20DeleteMessageRequestC1Ev
alita.node:_ZN5alita20DeleteMessageRequestC2ERKS0_
alita.node:_ZN5alita20DeleteMessageRequestC2Ev
alita.node:_ZN5alita20DeleteMessageRequestD0Ev
alita.node:_ZN5alita20DeleteMessageRequestD1Ev
alita.node:_ZN5alita20DeleteMessageRequestD2Ev
alita.node:_ZN5alita20DeviceTypeId_IsValidEi
alita.node:_ZN5alita20DownloadFileProgress10SharedCtorEv
alita.node:_ZN5alita20DownloadFileProgress10SharedDtorEv
alita.node:_ZN5alita20DownloadFileProgress16default_instanceEv
alita.node:_ZN5alita20DownloadFileProgress17default_instance_E
alita.node:_ZN5alita20DownloadFileProgress17kTotalFieldNumberE
alita.node:_ZN5alita20DownloadFileProgress18kTaskIdFieldNumberE
alita.node:_ZN5alita20DownloadFileProgress19kCurrentFieldNumberE
alita.node:_ZN5alita20DownloadFileProgress21CheckTypeAndMergeFromERKN7tencent8protobuf11MessageLiteE
alita.node:_ZN5alita20DownloadFileProgress21InitAsDefaultInstanceEv
alita.node:_ZN5alita20DownloadFileProgress27MergePartialFromCodedStreamEPN7tencent8protobuf2io16CodedInputStreamE
alita.node:_ZN5alita20DownloadFileProgress4SwapEPS0_
alita.node:_ZN5alita20DownloadFileProgress5ClearEv
alita.node:_ZN5alita20DownloadFileProgress8CopyFromERKS0_
alita.node:_ZN5alita20DownloadFileProgress9MergeFromERKS0_
alita.node:_ZN5alita20DownloadFileProgressC1ERKS0_
alita.node:_ZN5alita20DownloadFileProgressC1Ev
alita.node:_ZN5alita20DownloadFileProgressC2ERKS0_
alita.node:_ZN5alita20DownloadFileProgressC2Ev
alita.node:_ZN5alita20DownloadFileProgressD0Ev
alita.node:_ZN5alita20DownloadFileProgressD1Ev
alita.node:_ZN5alita20DownloadFileProgressD2Ev
alita.node:_ZN5alita20DownloadFileResponse10SharedCtorEv
alita.node:_ZN5alita20DownloadFileResponse10SharedDtorEv
alita.node:_ZN5alita20DownloadFileResponse16default_instanceEv
alita.node:_ZN5alita20DownloadFileResponse17default_instance_E
alita.node:_ZN5alita20DownloadFileResponse18kErrMsgFieldNumberE
alita.node:_ZN5alita20DownloadFileResponse18kTaskIdFieldNumberE
alita.node:_ZN5alita20DownloadFileResponse19kErrCodeFieldNumberE
alita.node:_ZN5alita20DownloadFileResponse21CheckTypeAndMergeFromERKN7tencent8protobuf11MessageLiteE
alita.node:_ZN5alita20DownloadFileResponse21InitAsDefaultInstanceEv
alita.node:_ZN5alita20DownloadFileResponse23kCdnFileInfoFieldNumberE
alita.node:_ZN5alita20DownloadFileResponse27MergePartialFromCodedStreamEPN7tencent8protobuf2io16CodedInputStreamE
alita.node:_ZN5alita20DownloadFileResponse4SwapEPS0_
alita.node:_ZN5alita20DownloadFileResponse5ClearEv
alita.node:_ZN5alita20DownloadFileResponse8CopyFromERKS0_
alita.node:_ZN5alita20DownloadFileResponse9MergeFromERKS0_
alita.node:_ZN5alita20DownloadFileResponseC1ERKS0_
alita.node:_ZN5alita20DownloadFileResponseC1Ev
alita.node:_ZN5alita20DownloadFileResponseC2ERKS0_
alita.node:_ZN5alita20DownloadFileResponseC2Ev
alita.node:_ZN5alita20DownloadFileResponseD0Ev
alita.node:_ZN5alita20DownloadFileResponseD1Ev
alita.node:_ZN5alita20DownloadFileResponseD2Ev
alita.node:_ZN5alita20DownloadImageRequest10SharedCtorEv
alita.node:_ZN5alita20DownloadImageRequest10SharedDtorEv
alita.node:_ZN5alita20DownloadImageRequest16default_instanceEv
alita.node:_ZN5alita20DownloadImageRequest17default_instance_E
alita.node:_ZN5alita20DownloadImageRequest18kTaskIdFieldNumberE
alita.node:_ZN5alita20DownloadImageRequest21CheckTypeAndMergeFromERKN7tencent8protobuf11MessageLiteE
alita.node:_ZN5alita20DownloadImageRequest21InitAsDefaultInstanceEv
alita.node:_ZN5alita20DownloadImageRequest27MergePartialFromCodedStreamEPN7tencent8protobuf2io16CodedInputStreamE
alita.node:_ZN5alita20DownloadImageRequest32kCdnImageDownloadInfoFieldNumberE
alita.node:_ZN5alita20DownloadImageRequest4SwapEPS0_
alita.node:_ZN5alita20DownloadImageRequest5ClearEv
alita.node:_ZN5alita20DownloadImageRequest8CopyFromERKS0_
alita.node:_ZN5alita20DownloadImageRequest9MergeFromERKS0_
alita.node:_ZN5alita20DownloadImageRequestC1ERKS0_
alita.node:_ZN5alita20DownloadImageRequestC1Ev
alita.node:_ZN5alita20DownloadImageRequestC2ERKS0_
alita.node:_ZN5alita20DownloadImageRequestC2Ev
alita.node:_ZN5alita20DownloadImageRequestD0Ev
alita.node:_ZN5alita20DownloadImageRequestD1Ev
alita.node:_ZN5alita20DownloadImageRequestD2Ev
alita.node:_ZN5alita20GetAudioDataResponse10SharedCtorEv
alita.node:_ZN5alita20GetAudioDataResponse10SharedDtorEv
alita.node:_ZN5alita20GetAudioDataResponse16default_instanceEv
alita.node:_ZN5alita20GetAudioDataResponse17default_instance_E
alita.node:_ZN5alita20GetAudioDataResponse17kInt32FieldNumberE
alita.node:_ZN5alita20GetAudioDataResponse21CheckTypeAndMergeFromERKN7tencent8protobuf11MessageLiteE
alita.node:_ZN5alita20GetAudioDataResponse21InitAsDefaultInstanceEv
alita.node:_ZN5alita20GetAudioDataResponse27MergePartialFromCodedStreamEPN7tencent8protobuf2io16CodedInputStreamE
alita.node:_ZN5alita20GetAudioDataResponse4SwapEPS0_
alita.node:_ZN5alita20GetAudioDataResponse5ClearEv
alita.node:_ZN5alita20GetAudioDataResponse8CopyFromERKS0_
alita.node:_ZN5alita20GetAudioDataResponse9MergeFromERKS0_
alita.node:_ZN5alita20GetAudioDataResponseC1ERKS0_
alita.node:_ZN5alita20GetAudioDataResponseC1Ev
alita.node:_ZN5alita20GetAudioDataResponseC2ERKS0_
alita.node:_ZN5alita20GetAudioDataResponseC2Ev
alita.node:_ZN5alita20GetAudioDataResponseD0Ev
alita.node:_ZN5alita20GetAudioDataResponseD1Ev
alita.node:_ZN5alita20GetAudioDataResponseD2Ev
alita.node:_ZN5alita20GetAvatarPathRequest10SharedCtorEv
alita.node:_ZN5alita20GetAvatarPathRequest10SharedDtorEv
alita.node:_ZN5alita20GetAvatarPathRequest16default_instanceEv
alita.node:_ZN5alita20GetAvatarPathRequest16kTypeFieldNumberE
alita.node:_ZN5alita20GetAvatarPathRequest17default_instance_E
alita.node:_ZN5alita20GetAvatarPathRequest20kUsernameFieldNumberE
alita.node:_ZN5alita20GetAvatarPathRequest21CheckTypeAndMergeFromERKN7tencent8protobuf11MessageLiteE
alita.node:_ZN5alita20GetAvatarPathRequest21InitAsDefaultInstanceEv
alita.node:_ZN5alita20GetAvatarPathRequest27MergePartialFromCodedStreamEPN7tencent8protobuf2io16CodedInputStreamE
alita.node:_ZN5alita20GetAvatarPathRequest4SwapEPS0_
alita.node:_ZN5alita20GetAvatarPathRequest5ClearEv
alita.node:_ZN5alita20GetAvatarPathRequest8CopyFromERKS0_
alita.node:_ZN5alita20GetAvatarPathRequest9MergeFromERKS0_
alita.node:_ZN5alita20GetAvatarPathRequestC1ERKS0_
alita.node:_ZN5alita20GetAvatarPathRequestC1Ev
alita.node:_ZN5alita20GetAvatarPathRequestC2ERKS0_
alita.node:_ZN5alita20GetAvatarPathRequestC2Ev
alita.node:_ZN5alita20GetAvatarPathRequestD0Ev
alita.node:_ZN5alita20GetAvatarPathRequestD1Ev
alita.node:_ZN5alita20GetAvatarPathRequestD2Ev
alita.node:_ZN5alita20GetBindQrCodeRequest10SharedCtorEv
alita.node:_ZN5alita20GetBindQrCodeRequest10SharedDtorEv
alita.node:_ZN5alita20GetBindQrCodeRequest16default_instanceEv
alita.node:_ZN5alita20GetBindQrCodeRequest17default_instance_E
alita.node:_ZN5alita20GetBindQrCodeRequest18kOpCodeFieldNumberE
alita.node:_ZN5alita20GetBindQrCodeRequest18kTaskIdFieldNumberE
alita.node:_ZN5alita20GetBindQrCodeRequest19kIlinkIdFieldNumberE
alita.node:_ZN5alita20GetBindQrCodeRequest21CheckTypeAndMergeFromERKN7tencent8protobuf11MessageLiteE
alita.node:_ZN5alita20GetBindQrCodeRequest21InitAsDefaultInstanceEv
alita.node:_ZN5alita20GetBindQrCodeRequest22kThirdTokenFieldNumberE
alita.node:_ZN5alita20GetBindQrCodeRequest27MergePartialFromCodedStreamEPN7tencent8protobuf2io16CodedInputStreamE
alita.node:_ZN5alita20GetBindQrCodeRequest4SwapEPS0_
alita.node:_ZN5alita20GetBindQrCodeRequest5ClearEv
alita.node:_ZN5alita20GetBindQrCodeRequest8CopyFromERKS0_
alita.node:_ZN5alita20GetBindQrCodeRequest9MergeFromERKS0_
alita.node:_ZN5alita20GetBindQrCodeRequestC1ERKS0_
alita.node:_ZN5alita20GetBindQrCodeRequestC1Ev
alita.node:_ZN5alita20GetBindQrCodeRequestC2ERKS0_
alita.node:_ZN5alita20GetBindQrCodeRequestC2Ev
alita.node:_ZN5alita20GetBindQrCodeRequestD0Ev
alita.node:_ZN5alita20GetBindQrCodeRequestD1Ev
alita.node:_ZN5alita20GetBindQrCodeRequestD2Ev
alita.node:_ZN5alita20GetBindStateResponse10SharedCtorEv
alita.node:_ZN5alita20GetBindStateResponse10SharedDtorEv
alita.node:_ZN5alita20GetBindStateResponse16default_instanceEv
alita.node:_ZN5alita20GetBindStateResponse17default_instance_E
alita.node:_ZN5alita20GetBindStateResponse17kStateFieldNumberE
alita.node:_ZN5alita20GetBindStateResponse21CheckTypeAndMergeFromERKN7tencent8protobuf11MessageLiteE
alita.node:_ZN5alita20GetBindStateResponse21InitAsDefaultInstanceEv
alita.node:_ZN5alita20GetBindStateResponse27MergePartialFromCodedStreamEPN7tencent8protobuf2io16CodedInputStreamE
alita.node:_ZN5alita20GetBindStateResponse4SwapEPS0_
alita.node:_ZN5alita20GetBindStateResponse5ClearEv
alita.node:_ZN5alita20GetBindStateResponse8CopyFromERKS0_
alita.node:_ZN5alita20GetBindStateResponse9MergeFromERKS0_
alita.node:_ZN5alita20GetBindStateResponseC1ERKS0_
alita.node:_ZN5alita20GetBindStateResponseC1Ev
alita.node:_ZN5alita20GetBindStateResponseC2ERKS0_
alita.node:_ZN5alita20GetBindStateResponseC2Ev
alita.node:_ZN5alita20GetBindStateResponseD0Ev
alita.node:_ZN5alita20GetBindStateResponseD1Ev
alita.node:_ZN5alita20GetBindStateResponseD2Ev
alita.node:_ZN5alita20GetCacheSizeResponse10SharedCtorEv
alita.node:_ZN5alita20GetCacheSizeResponse10SharedDtorEv
alita.node:_ZN5alita20GetCacheSizeResponse16default_instanceEv
alita.node:_ZN5alita20GetCacheSizeResponse17default_instance_E
alita.node:_ZN5alita20GetCacheSizeResponse18kErrMsgFieldNumberE
alita.node:_ZN5alita20GetCacheSizeResponse18kTaskIdFieldNumberE
alita.node:_ZN5alita20GetCacheSizeResponse19kErrCodeFieldNumberE
alita.node:_ZN5alita20GetCacheSizeResponse21CheckTypeAndMergeFromERKN7tencent8protobuf11MessageLiteE
alita.node:_ZN5alita20GetCacheSizeResponse21InitAsDefaultInstanceEv
alita.node:_ZN5alita20GetCacheSizeResponse21kCacheSizeFieldNumberE
alita.node:_ZN5alita20GetCacheSizeResponse27MergePartialFromCodedStreamEPN7tencent8protobuf2io16CodedInputStreamE
alita.node:_ZN5alita20GetCacheSizeResponse4SwapEPS0_
alita.node:_ZN5alita20GetCacheSizeResponse5ClearEv
alita.node:_ZN5alita20GetCacheSizeResponse8CopyFromERKS0_
alita.node:_ZN5alita20GetCacheSizeResponse9MergeFromERKS0_
alita.node:_ZN5alita20GetCacheSizeResponseC1ERKS0_
alita.node:_ZN5alita20GetCacheSizeResponseC1Ev
alita.node:_ZN5alita20GetCacheSizeResponseC2ERKS0_
alita.node:_ZN5alita20GetCacheSizeResponseC2Ev
alita.node:_ZN5alita20GetCacheSizeResponseD0Ev
alita.node:_ZN5alita20GetCacheSizeResponseD1Ev
alita.node:_ZN5alita20GetCacheSizeResponseD2Ev
alita.node:_ZN5alita20GetInitStateResponse10SharedCtorEv
alita.node:_ZN5alita20GetInitStateResponse10SharedDtorEv
alita.node:_ZN5alita20GetInitStateResponse16default_instanceEv
alita.node:_ZN5alita20GetInitStateResponse17default_instance_E
alita.node:_ZN5alita20GetInitStateResponse17kStateFieldNumberE
alita.node:_ZN5alita20GetInitStateResponse21CheckTypeAndMergeFromERKN7tencent8protobuf11MessageLiteE
alita.node:_ZN5alita20GetInitStateResponse21InitAsDefaultInstanceEv
alita.node:_ZN5alita20GetInitStateResponse27MergePartialFromCodedStreamEPN7tencent8protobuf2io16CodedInputStreamE
alita.node:_ZN5alita20GetInitStateResponse4SwapEPS0_
alita.node:_ZN5alita20GetInitStateResponse5ClearEv
alita.node:_ZN5alita20GetInitStateResponse8CopyFromERKS0_
alita.node:_ZN5alita20GetInitStateResponse9MergeFromERKS0_
alita.node:_ZN5alita20GetInitStateResponseC1ERKS0_
alita.node:_ZN5alita20GetInitStateResponseC1Ev
alita.node:_ZN5alita20GetInitStateResponseC2ERKS0_
alita.node:_ZN5alita20GetInitStateResponseC2Ev
alita.node:_ZN5alita20GetInitStateResponseD0Ev
alita.node:_ZN5alita20GetInitStateResponseD1Ev
alita.node:_ZN5alita20GetInitStateResponseD2Ev
alita.node:_ZN5alita20GetLoginAttrResponse10SharedCtorEv
alita.node:_ZN5alita20GetLoginAttrResponse10SharedDtorEv
alita.node:_ZN5alita20GetLoginAttrResponse16default_instanceEv
alita.node:_ZN5alita20GetLoginAttrResponse16kAttrFieldNumberE
alita.node:_ZN5alita20GetLoginAttrResponse17default_instance_E
alita.node:_ZN5alita20GetLoginAttrResponse21CheckTypeAndMergeFromERKN7tencent8protobuf11MessageLiteE
alita.node:_ZN5alita20GetLoginAttrResponse21InitAsDefaultInstanceEv
alita.node:_ZN5alita20GetLoginAttrResponse27MergePartialFromCodedStreamEPN7tencent8protobuf2io16CodedInputStreamE
alita.node:_ZN5alita20GetLoginAttrResponse4SwapEPS0_
alita.node:_ZN5alita20GetLoginAttrResponse5ClearEv
alita.node:_ZN5alita20GetLoginAttrResponse8CopyFromERKS0_
alita.node:_ZN5alita20GetLoginAttrResponse9MergeFromERKS0_
alita.node:_ZN5alita20GetLoginAttrResponseC1ERKS0_
alita.node:_ZN5alita20GetLoginAttrResponseC1Ev
alita.node:_ZN5alita20GetLoginAttrResponseC2ERKS0_
alita.node:_ZN5alita20GetLoginAttrResponseC2Ev
alita.node:_ZN5alita20GetLoginAttrResponseD0Ev
alita.node:_ZN5alita20GetLoginAttrResponseD1Ev
alita.node:_ZN5alita20GetLoginAttrResponseD2Ev
alita.node:_ZN5alita20GetVideoDataResponse10SharedCtorEv
alita.node:_ZN5alita20GetVideoDataResponse10SharedDtorEv
alita.node:_ZN5alita20GetVideoDataResponse16default_instanceEv
alita.node:_ZN5alita20GetVideoDataResponse17default_instance_E
alita.node:_ZN5alita20GetVideoDataResponse17kInt32FieldNumberE
alita.node:_ZN5alita20GetVideoDataResponse21CheckTypeAndMergeFromERKN7tencent8protobuf11MessageLiteE
alita.node:_ZN5alita20GetVideoDataResponse21InitAsDefaultInstanceEv
alita.node:_ZN5alita20GetVideoDataResponse27MergePartialFromCodedStreamEPN7tencent8protobuf2io16CodedInputStreamE
alita.node:_ZN5alita20GetVideoDataResponse4SwapEPS0_
alita.node:_ZN5alita20GetVideoDataResponse5ClearEv
alita.node:_ZN5alita20GetVideoDataResponse8CopyFromERKS0_
alita.node:_ZN5alita20GetVideoDataResponse9MergeFromERKS0_
alita.node:_ZN5alita20GetVideoDataResponseC1ERKS0_
alita.node:_ZN5alita20GetVideoDataResponseC1Ev
alita.node:_ZN5alita20GetVideoDataResponseC2ERKS0_
alita.node:_ZN5alita20GetVideoDataResponseC2Ev
alita.node:_ZN5alita20GetVideoDataResponseD0Ev
alita.node:_ZN5alita20GetVideoDataResponseD1Ev
alita.node:_ZN5alita20GetVideoDataResponseD2Ev
alita.node:_ZN5alita20HandleVerifyResponse10SharedCtorEv
alita.node:_ZN5alita20HandleVerifyResponse10SharedDtorEv
alita.node:_ZN5alita20HandleVerifyResponse16default_instanceEv
alita.node:_ZN5alita20HandleVerifyResponse17default_instance_E
alita.node:_ZN5alita20HandleVerifyResponse18kErrMsgFieldNumberE
alita.node:_ZN5alita20HandleVerifyResponse18kTaskIdFieldNumberE
alita.node:_ZN5alita20HandleVerifyResponse19kErrCodeFieldNumberE
alita.node:_ZN5alita20HandleVerifyResponse21CheckTypeAndMergeFromERKN7tencent8protobuf11MessageLiteE
alita.node:_ZN5alita20HandleVerifyResponse21InitAsDefaultInstanceEv
alita.node:_ZN5alita20HandleVerifyResponse27MergePartialFromCodedStreamEPN7tencent8protobuf2io16CodedInputStreamE
alita.node:_ZN5alita20HandleVerifyResponse4SwapEPS0_
alita.node:_ZN5alita20HandleVerifyResponse5ClearEv
alita.node:_ZN5alita20HandleVerifyResponse8CopyFromERKS0_
alita.node:_ZN5alita20HandleVerifyResponse9MergeFromERKS0_
alita.node:_ZN5alita20HandleVerifyResponseC1ERKS0_
alita.node:_ZN5alita20HandleVerifyResponseC1Ev
alita.node:_ZN5alita20HandleVerifyResponseC2ERKS0_
alita.node:_ZN5alita20HandleVerifyResponseC2Ev
alita.node:_ZN5alita20HandleVerifyResponseD0Ev
alita.node:_ZN5alita20HandleVerifyResponseD1Ev
alita.node:_ZN5alita20HandleVerifyResponseD2Ev
alita.node:_ZN5alita20InitContactsProgress10SharedCtorEv
alita.node:_ZN5alita20InitContactsProgress10SharedDtorEv
alita.node:_ZN5alita20InitContactsProgress16default_instanceEv
alita.node:_ZN5alita20InitContactsProgress17default_instance_E
alita.node:_ZN5alita20InitContactsProgress18kTaskIdFieldNumberE
alita.node:_ZN5alita20InitContactsProgress20kProgressFieldNumberE
alita.node:_ZN5alita20InitContactsProgress21CheckTypeAndMergeFromERKN7tencent8protobuf11MessageLiteE
alita.node:_ZN5alita20InitContactsProgress21InitAsDefaultInstanceEv
alita.node:_ZN5alita20InitContactsProgress27MergePartialFromCodedStreamEPN7tencent8protobuf2io16CodedInputStreamE
alita.node:_ZN5alita20InitContactsProgress4SwapEPS0_
alita.node:_ZN5alita20InitContactsProgress5ClearEv
alita.node:_ZN5alita20InitContactsProgress8CopyFromERKS0_
alita.node:_ZN5alita20InitContactsProgress9MergeFromERKS0_
alita.node:_ZN5alita20InitContactsProgressC1ERKS0_
alita.node:_ZN5alita20InitContactsProgressC1Ev
alita.node:_ZN5alita20InitContactsProgressC2ERKS0_
alita.node:_ZN5alita20InitContactsProgressC2Ev
alita.node:_ZN5alita20InitContactsProgressD0Ev
alita.node:_ZN5alita20InitContactsProgressD1Ev
alita.node:_ZN5alita20InitContactsProgressD2Ev
alita.node:_ZN5alita20InitContactsResponse10SharedCtorEv
alita.node:_ZN5alita20InitContactsResponse10SharedDtorEv
alita.node:_ZN5alita20InitContactsResponse16default_instanceEv
alita.node:_ZN5alita20InitContactsResponse17default_instance_E
alita.node:_ZN5alita20InitContactsResponse18kErrMsgFieldNumberE
alita.node:_ZN5alita20InitContactsResponse18kTaskIdFieldNumberE
alita.node:_ZN5alita20InitContactsResponse19kErrCodeFieldNumberE
alita.node:_ZN5alita20InitContactsResponse21CheckTypeAndMergeFromERKN7tencent8protobuf11MessageLiteE
alita.node:_ZN5alita20InitContactsResponse21InitAsDefaultInstanceEv
alita.node:_ZN5alita20InitContactsResponse27MergePartialFromCodedStreamEPN7tencent8protobuf2io16CodedInputStreamE
alita.node:_ZN5alita20InitContactsResponse4SwapEPS0_
alita.node:_ZN5alita20InitContactsResponse5ClearEv
alita.node:_ZN5alita20InitContactsResponse8CopyFromERKS0_
alita.node:_ZN5alita20InitContactsResponse9MergeFromERKS0_
alita.node:_ZN5alita20InitContactsResponseC1ERKS0_
alita.node:_ZN5alita20InitContactsResponseC1Ev
alita.node:_ZN5alita20InitContactsResponseC2ERKS0_
alita.node:_ZN5alita20InitContactsResponseC2Ev
alita.node:_ZN5alita20InitContactsResponseD0Ev
alita.node:_ZN5alita20InitContactsResponseD1Ev
alita.node:_ZN5alita20InitContactsResponseD2Ev
alita.node:_ZN5alita20IsForegroundResponse10SharedCtorEv
alita.node:_ZN5alita20IsForegroundResponse10SharedDtorEv
alita.node:_ZN5alita20IsForegroundResponse16default_instanceEv
alita.node:_ZN5alita20IsForegroundResponse17default_instance_E
alita.node:_ZN5alita20IsForegroundResponse21CheckTypeAndMergeFromERKN7tencent8protobuf11MessageLiteE
alita.node:_ZN5alita20IsForegroundResponse21InitAsDefaultInstanceEv
alita.node:_ZN5alita20IsForegroundResponse24kIsForegroundFieldNumberE
alita.node:_ZN5alita20IsForegroundResponse27MergePartialFromCodedStreamEPN7tencent8protobuf2io16CodedInputStreamE
alita.node:_ZN5alita20IsForegroundResponse4SwapEPS0_
alita.node:_ZN5alita20IsForegroundResponse5ClearEv
alita.node:_ZN5alita20IsForegroundResponse8CopyFromERKS0_
alita.node:_ZN5alita20IsForegroundResponse9MergeFromERKS0_
alita.node:_ZN5alita20IsForegroundResponseC1ERKS0_
alita.node:_ZN5alita20IsForegroundResponseC1Ev
alita.node:_ZN5alita20IsForegroundResponseC2ERKS0_
alita.node:_ZN5alita20IsForegroundResponseC2Ev
alita.node:_ZN5alita20IsForegroundResponseD0Ev
alita.node:_ZN5alita20IsForegroundResponseD1Ev
alita.node:_ZN5alita20IsForegroundResponseD2Ev
alita.node:_ZN5alita20LoginByIlinkResponse10SharedCtorEv
alita.node:_ZN5alita20LoginByIlinkResponse10SharedDtorEv
alita.node:_ZN5alita20LoginByIlinkResponse16default_instanceEv
alita.node:_ZN5alita20LoginByIlinkResponse17default_instance_E
alita.node:_ZN5alita20LoginByIlinkResponse18kTaskIdFieldNumberE
alita.node:_ZN5alita20LoginByIlinkResponse21CheckTypeAndMergeFromERKN7tencent8protobuf11MessageLiteE
alita.node:_ZN5alita20LoginByIlinkResponse21InitAsDefaultInstanceEv
alita.node:_ZN5alita20LoginByIlinkResponse22kUnifyErrorFieldNumberE
alita.node:_ZN5alita20LoginByIlinkResponse27MergePartialFromCodedStreamEPN7tencent8protobuf2io16CodedInputStreamE
alita.node:_ZN5alita20LoginByIlinkResponse4SwapEPS0_
alita.node:_ZN5alita20LoginByIlinkResponse5ClearEv
alita.node:_ZN5alita20LoginByIlinkResponse8CopyFromERKS0_
alita.node:_ZN5alita20LoginByIlinkResponse9MergeFromERKS0_
alita.node:_ZN5alita20LoginByIlinkResponseC1ERKS0_
alita.node:_ZN5alita20LoginByIlinkResponseC1Ev
alita.node:_ZN5alita20LoginByIlinkResponseC2ERKS0_
alita.node:_ZN5alita20LoginByIlinkResponseC2Ev
alita.node:_ZN5alita20LoginByIlinkResponseD0Ev
alita.node:_ZN5alita20LoginByIlinkResponseD1Ev
alita.node:_ZN5alita20LoginByIlinkResponseD2Ev
alita.node:_ZN5alita20MessageNotifyRequest10SharedCtorEv
alita.node:_ZN5alita20MessageNotifyRequest10SharedDtorEv
alita.node:_ZN5alita20MessageNotifyRequest16default_instanceEv
alita.node:_ZN5alita20MessageNotifyRequest17default_instance_E
alita.node:_ZN5alita20MessageNotifyRequest21CheckTypeAndMergeFromERKN7tencent8protobuf11MessageLiteE
alita.node:_ZN5alita20MessageNotifyRequest21InitAsDefaultInstanceEv
alita.node:_ZN5alita20MessageNotifyRequest25kMessageNotifyFieldNumberE
alita.node:_ZN5alita20MessageNotifyRequest27MergePartialFromCodedStreamEPN7tencent8protobuf2io16CodedInputStreamE
alita.node:_ZN5alita20MessageNotifyRequest4SwapEPS0_
alita.node:_ZN5alita20MessageNotifyRequest5ClearEv
alita.node:_ZN5alita20MessageNotifyRequest8CopyFromERKS0_
alita.node:_ZN5alita20MessageNotifyRequest9MergeFromERKS0_
alita.node:_ZN5alita20MessageNotifyRequestC1ERKS0_
alita.node:_ZN5alita20MessageNotifyRequestC1Ev
alita.node:_ZN5alita20MessageNotifyRequestC2ERKS0_
alita.node:_ZN5alita20MessageNotifyRequestC2Ev
alita.node:_ZN5alita20MessageNotifyRequestD0Ev
alita.node:_ZN5alita20MessageNotifyRequestD1Ev
alita.node:_ZN5alita20MessageNotifyRequestD2Ev
alita.node:_ZN5alita20MessageUpdateRequest10SharedCtorEv
alita.node:_ZN5alita20MessageUpdateRequest10SharedDtorEv
alita.node:_ZN5alita20MessageUpdateRequest16default_instanceEv
alita.node:_ZN5alita20MessageUpdateRequest17default_instance_E
alita.node:_ZN5alita20MessageUpdateRequest17kMsgIdFieldNumberE
alita.node:_ZN5alita20MessageUpdateRequest18kNewMsgFieldNumberE
alita.node:_ZN5alita20MessageUpdateRequest18kOpCodeFieldNumberE
alita.node:_ZN5alita20MessageUpdateRequest21CheckTypeAndMergeFromERKN7tencent8protobuf11MessageLiteE
alita.node:_ZN5alita20MessageUpdateRequest21InitAsDefaultInstanceEv
alita.node:_ZN5alita20MessageUpdateRequest27MergePartialFromCodedStreamEPN7tencent8protobuf2io16CodedInputStreamE
alita.node:_ZN5alita20MessageUpdateRequest4SwapEPS0_
alita.node:_ZN5alita20MessageUpdateRequest5ClearEv
alita.node:_ZN5alita20MessageUpdateRequest8CopyFromERKS0_
alita.node:_ZN5alita20MessageUpdateRequest9MergeFromERKS0_
alita.node:_ZN5alita20MessageUpdateRequestC1ERKS0_
alita.node:_ZN5alita20MessageUpdateRequestC1Ev
alita.node:_ZN5alita20MessageUpdateRequestC2ERKS0_
alita.node:_ZN5alita20MessageUpdateRequestC2Ev
alita.node:_ZN5alita20MessageUpdateRequestD0Ev
alita.node:_ZN5alita20MessageUpdateRequestD1Ev
alita.node:_ZN5alita20MessageUpdateRequestD2Ev
alita.node:_ZN5alita20NetworkState_IsValidEi
alita.node:_ZN5alita20OAuthConfirmRespInfo10SharedCtorEv
alita.node:_ZN5alita20OAuthConfirmRespInfo10SharedDtorEv
alita.node:_ZN5alita20OAuthConfirmRespInfo16default_instanceEv
alita.node:_ZN5alita20OAuthConfirmRespInfo16kCodeFieldNumberE
alita.node:_ZN5alita20OAuthConfirmRespInfo17default_instance_E
alita.node:_ZN5alita20OAuthConfirmRespInfo17kStateFieldNumberE
alita.node:_ZN5alita20OAuthConfirmRespInfo21CheckTypeAndMergeFromERKN7tencent8protobuf11MessageLiteE
alita.node:_ZN5alita20OAuthConfirmRespInfo21InitAsDefaultInstanceEv
alita.node:_ZN5alita20OAuthConfirmRespInfo23kRedirectUrlFieldNumberE
alita.node:_ZN5alita20OAuthConfirmRespInfo25kTdiAuthBufferFieldNumberE
alita.node:_ZN5alita20OAuthConfirmRespInfo27MergePartialFromCodedStreamEPN7tencent8protobuf2io16CodedInputStreamE
alita.node:_ZN5alita20OAuthConfirmRespInfo4SwapEPS0_
alita.node:_ZN5alita20OAuthConfirmRespInfo5ClearEv
alita.node:_ZN5alita20OAuthConfirmRespInfo8CopyFromERKS0_
alita.node:_ZN5alita20OAuthConfirmRespInfo9MergeFromERKS0_
alita.node:_ZN5alita20OAuthConfirmRespInfoC1ERKS0_
alita.node:_ZN5alita20OAuthConfirmRespInfoC1Ev
alita.node:_ZN5alita20OAuthConfirmRespInfoC2ERKS0_
alita.node:_ZN5alita20OAuthConfirmRespInfoC2Ev
alita.node:_ZN5alita20OAuthConfirmRespInfoD0Ev
alita.node:_ZN5alita20OAuthConfirmRespInfoD1Ev
alita.node:_ZN5alita20OAuthConfirmRespInfoD2Ev
alita.node:_ZN5alita20OAuthConfirmResponse10SharedCtorEv
alita.node:_ZN5alita20OAuthConfirmResponse10SharedDtorEv
alita.node:_ZN5alita20OAuthConfirmResponse16default_instanceEv
alita.node:_ZN5alita20OAuthConfirmResponse17default_instance_E
alita.node:_ZN5alita20OAuthConfirmResponse18kErrMsgFieldNumberE
alita.node:_ZN5alita20OAuthConfirmResponse18kTaskIdFieldNumberE
alita.node:_ZN5alita20OAuthConfirmResponse19kErrCodeFieldNumberE
alita.node:_ZN5alita20OAuthConfirmResponse21CheckTypeAndMergeFromERKN7tencent8protobuf11MessageLiteE
alita.node:_ZN5alita20OAuthConfirmResponse21InitAsDefaultInstanceEv
alita.node:_ZN5alita20OAuthConfirmResponse23kConfirmRespFieldNumberE
alita.node:_ZN5alita20OAuthConfirmResponse27MergePartialFromCodedStreamEPN7tencent8protobuf2io16CodedInputStreamE
alita.node:_ZN5alita20OAuthConfirmResponse4SwapEPS0_
alita.node:_ZN5alita20OAuthConfirmResponse5ClearEv
alita.node:_ZN5alita20OAuthConfirmResponse8CopyFromERKS0_
alita.node:_ZN5alita20OAuthConfirmResponse9MergeFromERKS0_
alita.node:_ZN5alita20OAuthConfirmResponseC1ERKS0_
alita.node:_ZN5alita20OAuthConfirmResponseC1Ev
alita.node:_ZN5alita20OAuthConfirmResponseC2ERKS0_
alita.node:_ZN5alita20OAuthConfirmResponseC2Ev
alita.node:_ZN5alita20OAuthConfirmResponseD0Ev
alita.node:_ZN5alita20OAuthConfirmResponseD1Ev
alita.node:_ZN5alita20OAuthConfirmResponseD2Ev
alita.node:_ZN5alita20PayCodeUpdateRequest10SharedCtorEv
alita.node:_ZN5alita20PayCodeUpdateRequest10SharedDtorEv
alita.node:_ZN5alita20PayCodeUpdateRequest16default_instanceEv
alita.node:_ZN5alita20PayCodeUpdateRequest17default_instance_E
alita.node:_ZN5alita20PayCodeUpdateRequest19kPayCodeFieldNumberE
alita.node:_ZN5alita20PayCodeUpdateRequest21CheckTypeAndMergeFromERKN7tencent8protobuf11MessageLiteE
alita.node:_ZN5alita20PayCodeUpdateRequest21InitAsDefaultInstanceEv
alita.node:_ZN5alita20PayCodeUpdateRequest27MergePartialFromCodedStreamEPN7tencent8protobuf2io16CodedInputStreamE
alita.node:_ZN5alita20PayCodeUpdateRequest4SwapEPS0_
alita.node:_ZN5alita20PayCodeUpdateRequest5ClearEv
alita.node:_ZN5alita20PayCodeUpdateRequest8CopyFromERKS0_
alita.node:_ZN5alita20PayCodeUpdateRequest9MergeFromERKS0_
alita.node:_ZN5alita20PayCodeUpdateRequestC1ERKS0_
alita.node:_ZN5alita20PayCodeUpdateRequestC1Ev
alita.node:_ZN5alita20PayCodeUpdateRequestC2ERKS0_
alita.node:_ZN5alita20PayCodeUpdateRequestC2Ev
alita.node:_ZN5alita20PayCodeUpdateRequestD0Ev
alita.node:_ZN5alita20PayCodeUpdateRequestD1Ev
alita.node:_ZN5alita20PayCodeUpdateRequestD2Ev
alita.node:_ZN5alita20ProgressType_IsValidEi
alita.node:_ZN5alita20QuitChatRoomResponse10SharedCtorEv
alita.node:_ZN5alita20QuitChatRoomResponse10SharedDtorEv
alita.node:_ZN5alita20QuitChatRoomResponse16default_instanceEv
alita.node:_ZN5alita20QuitChatRoomResponse17default_instance_E
alita.node:_ZN5alita20QuitChatRoomResponse18kErrMsgFieldNumberE
alita.node:_ZN5alita20QuitChatRoomResponse18kTaskIdFieldNumberE
alita.node:_ZN5alita20QuitChatRoomResponse19kErrCodeFieldNumberE
alita.node:_ZN5alita20QuitChatRoomResponse21CheckTypeAndMergeFromERKN7tencent8protobuf11MessageLiteE
alita.node:_ZN5alita20QuitChatRoomResponse21InitAsDefaultInstanceEv
alita.node:_ZN5alita20QuitChatRoomResponse24kRoomUsernameFieldNumberE
alita.node:_ZN5alita20QuitChatRoomResponse27MergePartialFromCodedStreamEPN7tencent8protobuf2io16CodedInputStreamE
alita.node:_ZN5alita20QuitChatRoomResponse4SwapEPS0_
alita.node:_ZN5alita20QuitChatRoomResponse5ClearEv
alita.node:_ZN5alita20QuitChatRoomResponse8CopyFromERKS0_
alita.node:_ZN5alita20QuitChatRoomResponse9MergeFromERKS0_
alita.node:_ZN5alita20QuitChatRoomResponseC1ERKS0_
alita.node:_ZN5alita20QuitChatRoomResponseC1Ev
alita.node:_ZN5alita20QuitChatRoomResponseC2ERKS0_
alita.node:_ZN5alita20QuitChatRoomResponseC2Ev
alita.node:_ZN5alita20QuitChatRoomResponseD0Ev
alita.node:_ZN5alita20QuitChatRoomResponseD1Ev
alita.node:_ZN5alita20QuitChatRoomResponseD2Ev
alita.node:_ZN5alita20RecallMessageRequest10SharedCtorEv
alita.node:_ZN5alita20RecallMessageRequest10SharedDtorEv
alita.node:_ZN5alita20RecallMessageRequest16default_instanceEv
alita.node:_ZN5alita20RecallMessageRequest17default_instance_E
alita.node:_ZN5alita20RecallMessageRequest17kMsgIdFieldNumberE
alita.node:_ZN5alita20RecallMessageRequest18kTaskIdFieldNumberE
alita.node:_ZN5alita20RecallMessageRequest21CheckTypeAndMergeFromERKN7tencent8protobuf11MessageLiteE
alita.node:_ZN5alita20RecallMessageRequest21InitAsDefaultInstanceEv
alita.node:_ZN5alita20RecallMessageRequest27MergePartialFromCodedStreamEPN7tencent8protobuf2io16CodedInputStreamE
alita.node:_ZN5alita20RecallMessageRequest4SwapEPS0_
alita.node:_ZN5alita20RecallMessageRequest5ClearEv
alita.node:_ZN5alita20RecallMessageRequest8CopyFromERKS0_
alita.node:_ZN5alita20RecallMessageRequest9MergeFromERKS0_
alita.node:_ZN5alita20RecallMessageRequestC1ERKS0_
alita.node:_ZN5alita20RecallMessageRequestC1Ev
alita.node:_ZN5alita20RecallMessageRequestC2ERKS0_
alita.node:_ZN5alita20RecallMessageRequestC2Ev
alita.node:_ZN5alita20RecallMessageRequestD0Ev
alita.node:_ZN5alita20RecallMessageRequestD1Ev
alita.node:_ZN5alita20RecallMessageRequestD2Ev
alita.node:_ZN5alita20ReceiveInviteRequest10SharedCtorEv
alita.node:_ZN5alita20ReceiveInviteRequest10SharedDtorEv
alita.node:_ZN5alita20ReceiveInviteRequest16default_instanceEv
alita.node:_ZN5alita20ReceiveInviteRequest17default_instance_E
alita.node:_ZN5alita20ReceiveInviteRequest20kCallFromFieldNumberE
alita.node:_ZN5alita20ReceiveInviteRequest20kRoomTypeFieldNumberE
alita.node:_ZN5alita20ReceiveInviteRequest21CheckTypeAndMergeFromERKN7tencent8protobuf11MessageLiteE
alita.node:_ZN5alita20ReceiveInviteRequest21InitAsDefaultInstanceEv
alita.node:_ZN5alita20ReceiveInviteRequest27MergePartialFromCodedStreamEPN7tencent8protobuf2io16CodedInputStreamE
alita.node:_ZN5alita20ReceiveInviteRequest4SwapEPS0_
alita.node:_ZN5alita20ReceiveInviteRequest5ClearEv
alita.node:_ZN5alita20ReceiveInviteRequest8CopyFromERKS0_
alita.node:_ZN5alita20ReceiveInviteRequest9MergeFromERKS0_
alita.node:_ZN5alita20ReceiveInviteRequestC1ERKS0_
alita.node:_ZN5alita20ReceiveInviteRequestC1Ev
alita.node:_ZN5alita20ReceiveInviteRequestC2ERKS0_
alita.node:_ZN5alita20ReceiveInviteRequestC2Ev
alita.node:_ZN5alita20ReceiveInviteRequestD0Ev
alita.node:_ZN5alita20ReceiveInviteRequestD1Ev
alita.node:_ZN5alita20ReceiveInviteRequestD2Ev
alita.node:_ZN5alita20ReceiveNotifyRequest10SharedCtorEv
alita.node:_ZN5alita20ReceiveNotifyRequest10SharedDtorEv
alita.node:_ZN5alita20ReceiveNotifyRequest16default_instanceEv
alita.node:_ZN5alita20ReceiveNotifyRequest16kBodyFieldNumberE
alita.node:_ZN5alita20ReceiveNotifyRequest17default_instance_E
alita.node:_ZN5alita20ReceiveNotifyRequest17kCmdIdFieldNumberE
alita.node:_ZN5alita20ReceiveNotifyRequest21CheckTypeAndMergeFromERKN7tencent8protobuf11MessageLiteE
alita.node:_ZN5alita20ReceiveNotifyRequest21InitAsDefaultInstanceEv
alita.node:_ZN5alita20ReceiveNotifyRequest27MergePartialFromCodedStreamEPN7tencent8protobuf2io16CodedInputStreamE
alita.node:_ZN5alita20ReceiveNotifyRequest4SwapEPS0_
alita.node:_ZN5alita20ReceiveNotifyRequest5ClearEv
alita.node:_ZN5alita20ReceiveNotifyRequest8CopyFromERKS0_
alita.node:_ZN5alita20ReceiveNotifyRequest9MergeFromERKS0_
alita.node:_ZN5alita20ReceiveNotifyRequestC1ERKS0_
alita.node:_ZN5alita20ReceiveNotifyRequestC1Ev
alita.node:_ZN5alita20ReceiveNotifyRequestC2ERKS0_
alita.node:_ZN5alita20ReceiveNotifyRequestC2Ev
alita.node:_ZN5alita20ReceiveNotifyRequestD0Ev
alita.node:_ZN5alita20ReceiveNotifyRequestD1Ev
alita.node:_ZN5alita20ReceiveNotifyRequestD2Ev
alita.node:_ZN5alita20ReloadMessageRequest10SharedCtorEv
alita.node:_ZN5alita20ReloadMessageRequest10SharedDtorEv
alita.node:_ZN5alita20ReloadMessageRequest16default_instanceEv
alita.node:_ZN5alita20ReloadMessageRequest17default_instance_E
alita.node:_ZN5alita20ReloadMessageRequest17kMsgIdFieldNumberE
alita.node:_ZN5alita20ReloadMessageRequest18kTaskIdFieldNumberE
alita.node:_ZN5alita20ReloadMessageRequest21CheckTypeAndMergeFromERKN7tencent8protobuf11MessageLiteE
alita.node:_ZN5alita20ReloadMessageRequest21InitAsDefaultInstanceEv
alita.node:_ZN5alita20ReloadMessageRequest27MergePartialFromCodedStreamEPN7tencent8protobuf2io16CodedInputStreamE
alita.node:_ZN5alita20ReloadMessageRequest4SwapEPS0_
alita.node:_ZN5alita20ReloadMessageRequest5ClearEv
alita.node:_ZN5alita20ReloadMessageRequest8CopyFromERKS0_
alita.node:_ZN5alita20ReloadMessageRequest9MergeFromERKS0_
alita.node:_ZN5alita20ReloadMessageRequestC1ERKS0_
alita.node:_ZN5alita20ReloadMessageRequestC1Ev
alita.node:_ZN5alita20ReloadMessageRequestC2ERKS0_
alita.node:_ZN5alita20ReloadMessageRequestC2Ev
alita.node:_ZN5alita20ReloadMessageRequestD0Ev
alita.node:_ZN5alita20ReloadMessageRequestD1Ev
alita.node:_ZN5alita20ReloadMessageRequestD2Ev
alita.node:_ZN5alita20RemarkContactRequest10SharedCtorEv
alita.node:_ZN5alita20RemarkContactRequest10SharedDtorEv
alita.node:_ZN5alita20RemarkContactRequest16default_instanceEv
alita.node:_ZN5alita20RemarkContactRequest17default_instance_E
alita.node:_ZN5alita20RemarkContactRequest18kRemarkFieldNumberE
alita.node:_ZN5alita20RemarkContactRequest18kTaskIdFieldNumberE
alita.node:_ZN5alita20RemarkContactRequest20kUsernameFieldNumberE
alita.node:_ZN5alita20RemarkContactRequest21CheckTypeAndMergeFromERKN7tencent8protobuf11MessageLiteE
alita.node:_ZN5alita20RemarkContactRequest21InitAsDefaultInstanceEv
alita.node:_ZN5alita20RemarkContactRequest27MergePartialFromCodedStreamEPN7tencent8protobuf2io16CodedInputStreamE
alita.node:_ZN5alita20RemarkContactRequest4SwapEPS0_
alita.node:_ZN5alita20RemarkContactRequest5ClearEv
alita.node:_ZN5alita20RemarkContactRequest8CopyFromERKS0_
alita.node:_ZN5alita20RemarkContactRequest9MergeFromERKS0_
alita.node:_ZN5alita20RemarkContactRequestC1ERKS0_
alita.node:_ZN5alita20RemarkContactRequestC1Ev
alita.node:_ZN5alita20RemarkContactRequestC2ERKS0_
alita.node:_ZN5alita20RemarkContactRequestC2Ev
alita.node:_ZN5alita20RemarkContactRequestD0Ev
alita.node:_ZN5alita20RemarkContactRequestD1Ev
alita.node:_ZN5alita20RemarkContactRequestD2Ev
alita.node:_ZN5alita20ResendMessageRequest10SharedCtorEv
alita.node:_ZN5alita20ResendMessageRequest10SharedDtorEv
alita.node:_ZN5alita20ResendMessageRequest16default_instanceEv
alita.node:_ZN5alita20ResendMessageRequest17default_instance_E
alita.node:_ZN5alita20ResendMessageRequest17kMsgIdFieldNumberE
alita.node:_ZN5alita20ResendMessageRequest18kTaskIdFieldNumberE
alita.node:_ZN5alita20ResendMessageRequest21CheckTypeAndMergeFromERKN7tencent8protobuf11MessageLiteE
alita.node:_ZN5alita20ResendMessageRequest21InitAsDefaultInstanceEv
alita.node:_ZN5alita20ResendMessageRequest27MergePartialFromCodedStreamEPN7tencent8protobuf2io16CodedInputStreamE
alita.node:_ZN5alita20ResendMessageRequest4SwapEPS0_
alita.node:_ZN5alita20ResendMessageRequest5ClearEv
alita.node:_ZN5alita20ResendMessageRequest8CopyFromERKS0_
alita.node:_ZN5alita20ResendMessageRequest9MergeFromERKS0_
alita.node:_ZN5alita20ResendMessageRequestC1ERKS0_
alita.node:_ZN5alita20ResendMessageRequestC1Ev
alita.node:_ZN5alita20ResendMessageRequestC2ERKS0_
alita.node:_ZN5alita20ResendMessageRequestC2Ev
alita.node:_ZN5alita20ResendMessageRequestD0Ev
alita.node:_ZN5alita20ResendMessageRequestD1Ev
alita.node:_ZN5alita20ResendMessageRequestD2Ev
alita.node:_ZN5alita20SearchContactRequest10SharedCtorEv
alita.node:_ZN5alita20SearchContactRequest10SharedDtorEv
alita.node:_ZN5alita20SearchContactRequest16default_instanceEv
alita.node:_ZN5alita20SearchContactRequest17default_instance_E
alita.node:_ZN5alita20SearchContactRequest18kTaskIdFieldNumberE
alita.node:_ZN5alita20SearchContactRequest20kUsernameFieldNumberE
alita.node:_ZN5alita20SearchContactRequest21CheckTypeAndMergeFromERKN7tencent8protobuf11MessageLiteE
alita.node:_ZN5alita20SearchContactRequest21InitAsDefaultInstanceEv
alita.node:_ZN5alita20SearchContactRequest21kFromSceneFieldNumberE
alita.node:_ZN5alita20SearchContactRequest23kSearchSceneFieldNumberE
alita.node:_ZN5alita20SearchContactRequest27MergePartialFromCodedStreamEPN7tencent8protobuf2io16CodedInputStreamE
alita.node:_ZN5alita20SearchContactRequest4SwapEPS0_
alita.node:_ZN5alita20SearchContactRequest5ClearEv
alita.node:_ZN5alita20SearchContactRequest8CopyFromERKS0_
alita.node:_ZN5alita20SearchContactRequest9MergeFromERKS0_
alita.node:_ZN5alita20SearchContactRequestC1ERKS0_
alita.node:_ZN5alita20SearchContactRequestC1Ev
alita.node:_ZN5alita20SearchContactRequestC2ERKS0_
alita.node:_ZN5alita20SearchContactRequestC2Ev
alita.node:_ZN5alita20SearchContactRequestD0Ev
alita.node:_ZN5alita20SearchContactRequestD1Ev
alita.node:_ZN5alita20SearchContactRequestD2Ev
alita.node:_ZN5alita20SendAudioDataRequest10SharedCtorEv
alita.node:_ZN5alita20SendAudioDataRequest10SharedDtorEv
alita.node:_ZN5alita20SendAudioDataRequest16default_instanceEv
alita.node:_ZN5alita20SendAudioDataRequest17default_instance_E
alita.node:_ZN5alita20SendAudioDataRequest19kDataLenFieldNumberE
alita.node:_ZN5alita20SendAudioDataRequest19kPcmDataFieldNumberE
alita.node:_ZN5alita20SendAudioDataRequest21CheckTypeAndMergeFromERKN7tencent8protobuf11MessageLiteE
alita.node:_ZN5alita20SendAudioDataRequest21InitAsDefaultInstanceEv
alita.node:_ZN5alita20SendAudioDataRequest27MergePartialFromCodedStreamEPN7tencent8protobuf2io16CodedInputStreamE
alita.node:_ZN5alita20SendAudioDataRequest4SwapEPS0_
alita.node:_ZN5alita20SendAudioDataRequest5ClearEv
alita.node:_ZN5alita20SendAudioDataRequest8CopyFromERKS0_
alita.node:_ZN5alita20SendAudioDataRequest9MergeFromERKS0_
alita.node:_ZN5alita20SendAudioDataRequestC1ERKS0_
alita.node:_ZN5alita20SendAudioDataRequestC1Ev
alita.node:_ZN5alita20SendAudioDataRequestC2ERKS0_
alita.node:_ZN5alita20SendAudioDataRequestC2Ev
alita.node:_ZN5alita20SendAudioDataRequestD0Ev
alita.node:_ZN5alita20SendAudioDataRequestD1Ev
alita.node:_ZN5alita20SendAudioDataRequestD2Ev
alita.node:_ZN5alita20SendVideoDataRequest10SharedCtorEv
alita.node:_ZN5alita20SendVideoDataRequest10SharedDtorEv
alita.node:_ZN5alita20SendVideoDataRequest16default_instanceEv
alita.node:_ZN5alita20SendVideoDataRequest17default_instance_E
alita.node:_ZN5alita20SendVideoDataRequest17kWidthFieldNumberE
alita.node:_ZN5alita20SendVideoDataRequest18kFormatFieldNumberE
alita.node:_ZN5alita20SendVideoDataRequest18kHeightFieldNumberE
alita.node:_ZN5alita20SendVideoDataRequest19kDataLenFieldNumberE
alita.node:_ZN5alita20SendVideoDataRequest21CheckTypeAndMergeFromERKN7tencent8protobuf11MessageLiteE
alita.node:_ZN5alita20SendVideoDataRequest21InitAsDefaultInstanceEv
alita.node:_ZN5alita20SendVideoDataRequest21kVideoDataFieldNumberE
alita.node:_ZN5alita20SendVideoDataRequest27MergePartialFromCodedStreamEPN7tencent8protobuf2io16CodedInputStreamE
alita.node:_ZN5alita20SendVideoDataRequest4SwapEPS0_
alita.node:_ZN5alita20SendVideoDataRequest5ClearEv
alita.node:_ZN5alita20SendVideoDataRequest8CopyFromERKS0_
alita.node:_ZN5alita20SendVideoDataRequest9MergeFromERKS0_
alita.node:_ZN5alita20SendVideoDataRequestC1ERKS0_
alita.node:_ZN5alita20SendVideoDataRequestC1Ev
alita.node:_ZN5alita20SendVideoDataRequestC2ERKS0_
alita.node:_ZN5alita20SendVideoDataRequestC2Ev
alita.node:_ZN5alita20SendVideoDataRequestD0Ev
alita.node:_ZN5alita20SendVideoDataRequestD1Ev
alita.node:_ZN5alita20SendVideoDataRequestD2Ev
alita.node:_ZN5alita20SetForegroundRequest10SharedCtorEv
alita.node:_ZN5alita20SetForegroundRequest10SharedDtorEv
alita.node:_ZN5alita20SetForegroundRequest16default_instanceEv
alita.node:_ZN5alita20SetForegroundRequest17default_instance_E
alita.node:_ZN5alita20SetForegroundRequest21CheckTypeAndMergeFromERKN7tencent8protobuf11MessageLiteE
alita.node:_ZN5alita20SetForegroundRequest21InitAsDefaultInstanceEv
alita.node:_ZN5alita20SetForegroundRequest24kIsForegroundFieldNumberE
alita.node:_ZN5alita20SetForegroundRequest27MergePartialFromCodedStreamEPN7tencent8protobuf2io16CodedInputStreamE
alita.node:_ZN5alita20SetForegroundRequest4SwapEPS0_
alita.node:_ZN5alita20SetForegroundRequest5ClearEv
alita.node:_ZN5alita20SetForegroundRequest8CopyFromERKS0_
alita.node:_ZN5alita20SetForegroundRequest9MergeFromERKS0_
alita.node:_ZN5alita20SetForegroundRequestC1ERKS0_
alita.node:_ZN5alita20SetForegroundRequestC1Ev
alita.node:_ZN5alita20SetForegroundRequestC2ERKS0_
alita.node:_ZN5alita20SetForegroundRequestC2Ev
alita.node:_ZN5alita20SetForegroundRequestD0Ev
alita.node:_ZN5alita20SetForegroundRequestD1Ev
alita.node:_ZN5alita20SetForegroundRequestD2Ev
alita.node:_ZN5alita20TransMessageResponse10SharedCtorEv
alita.node:_ZN5alita20TransMessageResponse10SharedDtorEv
alita.node:_ZN5alita20TransMessageResponse16default_instanceEv
alita.node:_ZN5alita20TransMessageResponse17default_instance_E
alita.node:_ZN5alita20TransMessageResponse17kMsgIdFieldNumberE
alita.node:_ZN5alita20TransMessageResponse18kErrMsgFieldNumberE
alita.node:_ZN5alita20TransMessageResponse18kTaskIdFieldNumberE
alita.node:_ZN5alita20TransMessageResponse19kErrCodeFieldNumberE
alita.node:_ZN5alita20TransMessageResponse21CheckTypeAndMergeFromERKN7tencent8protobuf11MessageLiteE
alita.node:_ZN5alita20TransMessageResponse21InitAsDefaultInstanceEv
alita.node:_ZN5alita20TransMessageResponse27MergePartialFromCodedStreamEPN7tencent8protobuf2io16CodedInputStreamE
alita.node:_ZN5alita20TransMessageResponse4SwapEPS0_
alita.node:_ZN5alita20TransMessageResponse5ClearEv
alita.node:_ZN5alita20TransMessageResponse8CopyFromERKS0_
alita.node:_ZN5alita20TransMessageResponse9MergeFromERKS0_
alita.node:_ZN5alita20TransMessageResponseC1ERKS0_
alita.node:_ZN5alita20TransMessageResponseC1Ev
alita.node:_ZN5alita20TransMessageResponseC2ERKS0_
alita.node:_ZN5alita20TransMessageResponseC2Ev
alita.node:_ZN5alita20TransMessageResponseD0Ev
alita.node:_ZN5alita20TransMessageResponseD1Ev
alita.node:_ZN5alita20TransMessageResponseD2Ev
alita.node:_ZN5alita20UpdateContactRequest10SharedCtorEv
alita.node:_ZN5alita20UpdateContactRequest10SharedDtorEv
alita.node:_ZN5alita20UpdateContactRequest16default_instanceEv
alita.node:_ZN5alita20UpdateContactRequest17default_instance_E
alita.node:_ZN5alita20UpdateContactRequest18kTaskIdFieldNumberE
alita.node:_ZN5alita20UpdateContactRequest20kUsernameFieldNumberE
alita.node:_ZN5alita20UpdateContactRequest21CheckTypeAndMergeFromERKN7tencent8protobuf11MessageLiteE
alita.node:_ZN5alita20UpdateContactRequest21InitAsDefaultInstanceEv
alita.node:_ZN5alita20UpdateContactRequest27MergePartialFromCodedStreamEPN7tencent8protobuf2io16CodedInputStreamE
alita.node:_ZN5alita20UpdateContactRequest4SwapEPS0_
alita.node:_ZN5alita20UpdateContactRequest5ClearEv
alita.node:_ZN5alita20UpdateContactRequest8CopyFromERKS0_
alita.node:_ZN5alita20UpdateContactRequest9MergeFromERKS0_
alita.node:_ZN5alita20UpdateContactRequestC1ERKS0_
alita.node:_ZN5alita20UpdateContactRequestC1Ev
alita.node:_ZN5alita20UpdateContactRequestC2ERKS0_
alita.node:_ZN5alita20UpdateContactRequestC2Ev
alita.node:_ZN5alita20UpdateContactRequestD0Ev
alita.node:_ZN5alita20UpdateContactRequestD1Ev
alita.node:_ZN5alita20UpdateContactRequestD2Ev
alita.node:_ZN5alita20UsernameType_IsValidEi
alita.node:_ZN5alita20VerifyContactSummery10SharedCtorEv
alita.node:_ZN5alita20VerifyContactSummery10SharedDtorEv
alita.node:_ZN5alita20VerifyContactSummery16default_instanceEv
alita.node:_ZN5alita20VerifyContactSummery17default_instance_E
alita.node:_ZN5alita20VerifyContactSummery21CheckTypeAndMergeFromERKN7tencent8protobuf11MessageLiteE
alita.node:_ZN5alita20VerifyContactSummery21InitAsDefaultInstanceEv
alita.node:_ZN5alita20VerifyContactSummery23kUnreadCountFieldNumberE
alita.node:_ZN5alita20VerifyContactSummery25kVerifyContactFieldNumberE
alita.node:_ZN5alita20VerifyContactSummery27MergePartialFromCodedStreamEPN7tencent8protobuf2io16CodedInputStreamE
alita.node:_ZN5alita20VerifyContactSummery4SwapEPS0_
alita.node:_ZN5alita20VerifyContactSummery5ClearEv
alita.node:_ZN5alita20VerifyContactSummery8CopyFromERKS0_
alita.node:_ZN5alita20VerifyContactSummery9MergeFromERKS0_
alita.node:_ZN5alita20VerifyContactSummeryC1ERKS0_
alita.node:_ZN5alita20VerifyContactSummeryC1Ev
alita.node:_ZN5alita20VerifyContactSummeryC2ERKS0_
alita.node:_ZN5alita20VerifyContactSummeryC2Ev
alita.node:_ZN5alita20VerifyContactSummeryD0Ev
alita.node:_ZN5alita20VerifyContactSummeryD1Ev
alita.node:_ZN5alita20VerifyContactSummeryD2Ev
alita.node:_ZN5alita20VerifyMessageContent10SharedCtorEv
alita.node:_ZN5alita20VerifyMessageContent10SharedDtorEv
alita.node:_ZN5alita20VerifyMessageContent15kSexFieldNumberE
alita.node:_ZN5alita20VerifyMessageContent16default_instanceEv
alita.node:_ZN5alita20VerifyMessageContent16kCityFieldNumberE
alita.node:_ZN5alita20VerifyMessageContent16kSignFieldNumberE
alita.node:_ZN5alita20VerifyMessageContent17default_instance_E
alita.node:_ZN5alita20VerifyMessageContent17kAliasFieldNumberE
alita.node:_ZN5alita20VerifyMessageContent17kMHashFieldNumberE
alita.node:_ZN5alita20VerifyMessageContent17kSceneFieldNumberE
alita.node:_ZN5alita20VerifyMessageContent18kFullPyFieldNumberE
alita.node:_ZN5alita20VerifyMessageContent18kOpcodeFieldNumberE
alita.node:_ZN5alita20VerifyMessageContent18kTicketFieldNumberE
alita.node:_ZN5alita20VerifyMessageContent19kContentFieldNumberE
alita.node:_ZN5alita20VerifyMessageContent19kCountryFieldNumberE
alita.node:_ZN5alita20VerifyMessageContent19kPercardFieldNumberE
alita.node:_ZN5alita20VerifyMessageContent19kShortPyFieldNumberE
alita.node:_ZN5alita20VerifyMessageContent19kSnsFlagFieldNumberE
alita.node:_ZN5alita20VerifyMessageContent20kProvinceFieldNumberE
alita.node:_ZN5alita20VerifyMessageContent20kQrTicketFieldNumberE
alita.node:_ZN5alita20VerifyMessageContent21CheckTypeAndMergeFromERKN7tencent8protobuf11MessageLiteE
alita.node:_ZN5alita20VerifyMessageContent21InitAsDefaultInstanceEv
alita.node:_ZN5alita20VerifyMessageContent21kAlbumFlagFieldNumberE
alita.node:_ZN5alita20VerifyMessageContent21kMFullHashFieldNumberE
alita.node:_ZN5alita20VerifyMessageContent22kAlbumStyleFieldNumberE
alita.node:_ZN5alita20VerifyMessageContent22kSnsBgImgIdFieldNumberE
alita.node:_ZN5alita20VerifyMessageContent23kCardVersionFieldNumberE
alita.node:_ZN5alita20VerifyMessageContent23kImageStatusFieldNumberE
alita.node:_ZN5alita20VerifyMessageContent24kAlbumBgImgIdFieldNumberE
alita.node:_ZN5alita20VerifyMessageContent24kFromNicknameFieldNumberE
alita.node:_ZN5alita20VerifyMessageContent24kFromUsernameFieldNumberE
alita.node:_ZN5alita20VerifyMessageContent25kBigHeadimgUrlFieldNumberE
alita.node:_ZN5alita20VerifyMessageContent25kSnsBgObjectIdFieldNumberE
alita.node:_ZN5alita20VerifyMessageContent26kSourceNicknameFieldNumberE
alita.node:_ZN5alita20VerifyMessageContent26kSourceUsernameFieldNumberE
alita.node:_ZN5alita20VerifyMessageContent27MergePartialFromCodedStreamEPN7tencent8protobuf2io16CodedInputStreamE
alita.node:_ZN5alita20VerifyMessageContent27kEncryptUsernameFieldNumberE
alita.node:_ZN5alita20VerifyMessageContent27kSmallHeadimgUrlFieldNumberE
alita.node:_ZN5alita20VerifyMessageContent28kChatroomUsernameFieldNumberE
alita.node:_ZN5alita20VerifyMessageContent29kShareCardNicknameFieldNumberE
alita.node:_ZN5alita20VerifyMessageContent29kShareCardUsernameFieldNumberE
alita.node:_ZN5alita20VerifyMessageContent4SwapEPS0_
alita.node:_ZN5alita20VerifyMessageContent5ClearEv
alita.node:_ZN5alita20VerifyMessageContent8CopyFromERKS0_
alita.node:_ZN5alita20VerifyMessageContent9MergeFromERKS0_
alita.node:_ZN5alita20VerifyMessageContentC1ERKS0_
alita.node:_ZN5alita20VerifyMessageContentC1Ev
alita.node:_ZN5alita20VerifyMessageContentC2ERKS0_
alita.node:_ZN5alita20VerifyMessageContentC2Ev
alita.node:_ZN5alita20VerifyMessageContentD0Ev
alita.node:_ZN5alita20VerifyMessageContentD1Ev
alita.node:_ZN5alita20VerifyMessageContentD2Ev
alita.node:_ZN5alita20WxcodepayBalanceInfo10SharedCtorEv
alita.node:_ZN5alita20WxcodepayBalanceInfo10SharedDtorEv
alita.node:_ZN5alita20WxcodepayBalanceInfo16default_instanceEv
alita.node:_ZN5alita20WxcodepayBalanceInfo17default_instance_E
alita.node:_ZN5alita20WxcodepayBalanceInfo21CheckTypeAndMergeFromERKN7tencent8protobuf11MessageLiteE
alita.node:_ZN5alita20WxcodepayBalanceInfo21InitAsDefaultInstanceEv
alita.node:_ZN5alita20WxcodepayBalanceInfo22kUpdateTimeFieldNumberE
alita.node:_ZN5alita20WxcodepayBalanceInfo24kAvailBalanceFieldNumberE
alita.node:_ZN5alita20WxcodepayBalanceInfo27MergePartialFromCodedStreamEPN7tencent8protobuf2io16CodedInputStreamE
alita.node:_ZN5alita20WxcodepayBalanceInfo4SwapEPS0_
alita.node:_ZN5alita20WxcodepayBalanceInfo5ClearEv
alita.node:_ZN5alita20WxcodepayBalanceInfo8CopyFromERKS0_
alita.node:_ZN5alita20WxcodepayBalanceInfo9MergeFromERKS0_
alita.node:_ZN5alita20WxcodepayBalanceInfoC1ERKS0_
alita.node:_ZN5alita20WxcodepayBalanceInfoC1Ev
alita.node:_ZN5alita20WxcodepayBalanceInfoC2ERKS0_
alita.node:_ZN5alita20WxcodepayBalanceInfoC2Ev
alita.node:_ZN5alita20WxcodepayBalanceInfoD0Ev
alita.node:_ZN5alita20WxcodepayBalanceInfoD1Ev
alita.node:_ZN5alita20WxcodepayBalanceInfoD2Ev
alita.node:_ZN5alita21AddRoomMemberResponse10SharedCtorEv
alita.node:_ZN5alita21AddRoomMemberResponse10SharedDtorEv
alita.node:_ZN5alita21AddRoomMemberResponse16default_instanceEv
alita.node:_ZN5alita21AddRoomMemberResponse17default_instance_E
alita.node:_ZN5alita21AddRoomMemberResponse18kErrMsgFieldNumberE
alita.node:_ZN5alita21AddRoomMemberResponse18kTaskIdFieldNumberE
alita.node:_ZN5alita21AddRoomMemberResponse19kErrCodeFieldNumberE
alita.node:_ZN5alita21AddRoomMemberResponse21CheckTypeAndMergeFromERKN7tencent8protobuf11MessageLiteE
alita.node:_ZN5alita21AddRoomMemberResponse21InitAsDefaultInstanceEv
alita.node:_ZN5alita21AddRoomMemberResponse27MergePartialFromCodedStreamEPN7tencent8protobuf2io16CodedInputStreamE
alita.node:_ZN5alita21AddRoomMemberResponse4SwapEPS0_
alita.node:_ZN5alita21AddRoomMemberResponse5ClearEv
alita.node:_ZN5alita21AddRoomMemberResponse8CopyFromERKS0_
alita.node:_ZN5alita21AddRoomMemberResponse9MergeFromERKS0_
alita.node:_ZN5alita21AddRoomMemberResponseC1ERKS0_
alita.node:_ZN5alita21AddRoomMemberResponseC1Ev
alita.node:_ZN5alita21AddRoomMemberResponseC2ERKS0_
alita.node:_ZN5alita21AddRoomMemberResponseC2Ev
alita.node:_ZN5alita21AddRoomMemberResponseD0Ev
alita.node:_ZN5alita21AddRoomMemberResponseD1Ev
alita.node:_ZN5alita21AddRoomMemberResponseD2Ev
alita.node:_ZN5alita21AdditionalContactList10SharedCtorEv
alita.node:_ZN5alita21AdditionalContactList10SharedDtorEv
alita.node:_ZN5alita21AdditionalContactList16default_instanceEv
alita.node:_ZN5alita21AdditionalContactList17default_instance_E
alita.node:_ZN5alita21AdditionalContactList21CheckTypeAndMergeFromERKN7tencent8protobuf11MessageLiteE
alita.node:_ZN5alita21AdditionalContactList21InitAsDefaultInstanceEv
alita.node:_ZN5alita21AdditionalContactList27MergePartialFromCodedStreamEPN7tencent8protobuf2io16CodedInputStreamE
alita.node:_ZN5alita21AdditionalContactList31kLinkedinContactItemFieldNumberE
alita.node:_ZN5alita21AdditionalContactList4SwapEPS0_
alita.node:_ZN5alita21AdditionalContactList5ClearEv
alita.node:_ZN5alita21AdditionalContactList8CopyFromERKS0_
alita.node:_ZN5alita21AdditionalContactList9MergeFromERKS0_
alita.node:_ZN5alita21AdditionalContactListC1ERKS0_
alita.node:_ZN5alita21AdditionalContactListC1Ev
alita.node:_ZN5alita21AdditionalContactListC2ERKS0_
alita.node:_ZN5alita21AdditionalContactListC2Ev
alita.node:_ZN5alita21AdditionalContactListD0Ev
alita.node:_ZN5alita21AdditionalContactListD1Ev
alita.node:_ZN5alita21AdditionalContactListD2Ev
alita.node:_ZN5alita21AppWechatPayInfoNewAA10SharedCtorEv
alita.node:_ZN5alita21AppWechatPayInfoNewAA10SharedDtorEv
alita.node:_ZN5alita21AppWechatPayInfoNewAA16default_instanceEv
alita.node:_ZN5alita21AppWechatPayInfoNewAA16kTypeFieldNumberE
alita.node:_ZN5alita21AppWechatPayInfoNewAA17default_instance_E
alita.node:_ZN5alita21AppWechatPayInfoNewAA18kBillNoFieldNumberE
alita.node:_ZN5alita21AppWechatPayInfoNewAA21CheckTypeAndMergeFromERKN7tencent8protobuf11MessageLiteE
alita.node:_ZN5alita21AppWechatPayInfoNewAA21InitAsDefaultInstanceEv
alita.node:_ZN5alita21AppWechatPayInfoNewAA21kPayerListFieldNumberE
alita.node:_ZN5alita21AppWechatPayInfoNewAA24kReceiverListFieldNumberE
alita.node:_ZN5alita21AppWechatPayInfoNewAA27MergePartialFromCodedStreamEPN7tencent8protobuf2io16CodedInputStreamE
alita.node:_ZN5alita21AppWechatPayInfoNewAA4SwapEPS0_
alita.node:_ZN5alita21AppWechatPayInfoNewAA5ClearEv
alita.node:_ZN5alita21AppWechatPayInfoNewAA8CopyFromERKS0_
alita.node:_ZN5alita21AppWechatPayInfoNewAA9MergeFromERKS0_
alita.node:_ZN5alita21AppWechatPayInfoNewAAC1ERKS0_
alita.node:_ZN5alita21AppWechatPayInfoNewAAC1Ev
alita.node:_ZN5alita21AppWechatPayInfoNewAAC2ERKS0_
alita.node:_ZN5alita21AppWechatPayInfoNewAAC2Ev
alita.node:_ZN5alita21AppWechatPayInfoNewAAD0Ev
alita.node:_ZN5alita21AppWechatPayInfoNewAAD1Ev
alita.node:_ZN5alita21AppWechatPayInfoNewAAD2Ev
alita.node:_ZN5alita21CanAnswerVoipResponse10SharedCtorEv
alita.node:_ZN5alita21CanAnswerVoipResponse10SharedDtorEv
alita.node:_ZN5alita21CanAnswerVoipResponse16default_instanceEv
alita.node:_ZN5alita21CanAnswerVoipResponse17default_instance_E
alita.node:_ZN5alita21CanAnswerVoipResponse21CheckTypeAndMergeFromERKN7tencent8protobuf11MessageLiteE
alita.node:_ZN5alita21CanAnswerVoipResponse21InitAsDefaultInstanceEv
alita.node:_ZN5alita21CanAnswerVoipResponse25kCanAnswerVoipFieldNumberE
alita.node:_ZN5alita21CanAnswerVoipResponse27MergePartialFromCodedStreamEPN7tencent8protobuf2io16CodedInputStreamE
alita.node:_ZN5alita21CanAnswerVoipResponse4SwapEPS0_
alita.node:_ZN5alita21CanAnswerVoipResponse5ClearEv
alita.node:_ZN5alita21CanAnswerVoipResponse8CopyFromERKS0_
alita.node:_ZN5alita21CanAnswerVoipResponse9MergeFromERKS0_
alita.node:_ZN5alita21CanAnswerVoipResponseC1ERKS0_
alita.node:_ZN5alita21CanAnswerVoipResponseC1Ev
alita.node:_ZN5alita21CanAnswerVoipResponseC2ERKS0_
alita.node:_ZN5alita21CanAnswerVoipResponseC2Ev
alita.node:_ZN5alita21CanAnswerVoipResponseD0Ev
alita.node:_ZN5alita21CanAnswerVoipResponseD1Ev
alita.node:_ZN5alita21CanAnswerVoipResponseD2Ev
alita.node:_ZN5alita21CreateChatRoomRequest10SharedCtorEv
alita.node:_ZN5alita21CreateChatRoomRequest10SharedDtorEv
alita.node:_ZN5alita21CreateChatRoomRequest16default_instanceEv
alita.node:_ZN5alita21CreateChatRoomRequest17default_instance_E
alita.node:_ZN5alita21CreateChatRoomRequest18kTaskIdFieldNumberE
alita.node:_ZN5alita21CreateChatRoomRequest21CheckTypeAndMergeFromERKN7tencent8protobuf11MessageLiteE
alita.node:_ZN5alita21CreateChatRoomRequest21InitAsDefaultInstanceEv
alita.node:_ZN5alita21CreateChatRoomRequest24kUsernameListFieldNumberE
alita.node:_ZN5alita21CreateChatRoomRequest27MergePartialFromCodedStreamEPN7tencent8protobuf2io16CodedInputStreamE
alita.node:_ZN5alita21CreateChatRoomRequest4SwapEPS0_
alita.node:_ZN5alita21CreateChatRoomRequest5ClearEv
alita.node:_ZN5alita21CreateChatRoomRequest8CopyFromERKS0_
alita.node:_ZN5alita21CreateChatRoomRequest9MergeFromERKS0_
alita.node:_ZN5alita21CreateChatRoomRequestC1ERKS0_
alita.node:_ZN5alita21CreateChatRoomRequestC1Ev
alita.node:_ZN5alita21CreateChatRoomRequestC2ERKS0_
alita.node:_ZN5alita21CreateChatRoomRequestC2Ev
alita.node:_ZN5alita21CreateChatRoomRequestD0Ev
alita.node:_ZN5alita21CreateChatRoomRequestD1Ev
alita.node:_ZN5alita21CreateChatRoomRequestD2Ev
alita.node:_ZN5alita21DeleteContactResponse10SharedCtorEv
alita.node:_ZN5alita21DeleteContactResponse10SharedDtorEv
alita.node:_ZN5alita21DeleteContactResponse16default_instanceEv
alita.node:_ZN5alita21DeleteContactResponse17default_instance_E
alita.node:_ZN5alita21DeleteContactResponse18kErrMsgFieldNumberE
alita.node:_ZN5alita21DeleteContactResponse18kTaskIdFieldNumberE
alita.node:_ZN5alita21DeleteContactResponse19kErrCodeFieldNumberE
alita.node:_ZN5alita21DeleteContactResponse21CheckTypeAndMergeFromERKN7tencent8protobuf11MessageLiteE
alita.node:_ZN5alita21DeleteContactResponse21InitAsDefaultInstanceEv
alita.node:_ZN5alita21DeleteContactResponse27MergePartialFromCodedStreamEPN7tencent8protobuf2io16CodedInputStreamE
alita.node:_ZN5alita21DeleteContactResponse4SwapEPS0_
alita.node:_ZN5alita21DeleteContactResponse5ClearEv
alita.node:_ZN5alita21DeleteContactResponse8CopyFromERKS0_
alita.node:_ZN5alita21DeleteContactResponse9MergeFromERKS0_
alita.node:_ZN5alita21DeleteContactResponseC1ERKS0_
alita.node:_ZN5alita21DeleteContactResponseC1Ev
alita.node:_ZN5alita21DeleteContactResponseC2ERKS0_
alita.node:_ZN5alita21DeleteContactResponseC2Ev
alita.node:_ZN5alita21DeleteContactResponseD0Ev
alita.node:_ZN5alita21DeleteContactResponseD1Ev
alita.node:_ZN5alita21DeleteContactResponseD2Ev
alita.node:_ZN5alita21DeleteMessage1Request10SharedCtorEv
alita.node:_ZN5alita21DeleteMessage1Request10SharedDtorEv
alita.node:_ZN5alita21DeleteMessage1Request16default_instanceEv
alita.node:_ZN5alita21DeleteMessage1Request17default_instance_E
alita.node:_ZN5alita21DeleteMessage1Request17kMsgIdFieldNumberE
alita.node:_ZN5alita21DeleteMessage1Request21CheckTypeAndMergeFromERKN7tencent8protobuf11MessageLiteE
alita.node:_ZN5alita21DeleteMessage1Request21InitAsDefaultInstanceEv
alita.node:_ZN5alita21DeleteMessage1Request27MergePartialFromCodedStreamEPN7tencent8protobuf2io16CodedInputStreamE
alita.node:_ZN5alita21DeleteMessage1Request4SwapEPS0_
alita.node:_ZN5alita21DeleteMessage1Request5ClearEv
alita.node:_ZN5alita21DeleteMessage1Request8CopyFromERKS0_
alita.node:_ZN5alita21DeleteMessage1Request9MergeFromERKS0_
alita.node:_ZN5alita21DeleteMessage1RequestC1ERKS0_
alita.node:_ZN5alita21DeleteMessage1RequestC1Ev
alita.node:_ZN5alita21DeleteMessage1RequestC2ERKS0_
alita.node:_ZN5alita21DeleteMessage1RequestC2Ev
alita.node:_ZN5alita21DeleteMessage1RequestD0Ev
alita.node:_ZN5alita21DeleteMessage1RequestD1Ev
alita.node:_ZN5alita21DeleteMessage1RequestD2Ev
alita.node:_ZN5alita21DeleteMessageResponse10SharedCtorEv
alita.node:_ZN5alita21DeleteMessageResponse10SharedDtorEv
alita.node:_ZN5alita21DeleteMessageResponse16default_instanceEv
alita.node:_ZN5alita21DeleteMessageResponse17default_instance_E
alita.node:_ZN5alita21DeleteMessageResponse19kErrCodeFieldNumberE
alita.node:_ZN5alita21DeleteMessageResponse21CheckTypeAndMergeFromERKN7tencent8protobuf11MessageLiteE
alita.node:_ZN5alita21DeleteMessageResponse21InitAsDefaultInstanceEv
alita.node:_ZN5alita21DeleteMessageResponse27MergePartialFromCodedStreamEPN7tencent8protobuf2io16CodedInputStreamE
alita.node:_ZN5alita21DeleteMessageResponse4SwapEPS0_
alita.node:_ZN5alita21DeleteMessageResponse5ClearEv
alita.node:_ZN5alita21DeleteMessageResponse8CopyFromERKS0_
alita.node:_ZN5alita21DeleteMessageResponse9MergeFromERKS0_
alita.node:_ZN5alita21DeleteMessageResponseC1ERKS0_
alita.node:_ZN5alita21DeleteMessageResponseC1Ev
alita.node:_ZN5alita21DeleteMessageResponseC2ERKS0_
alita.node:_ZN5alita21DeleteMessageResponseC2Ev
alita.node:_ZN5alita21DeleteMessageResponseD0Ev
alita.node:_ZN5alita21DeleteMessageResponseD1Ev
alita.node:_ZN5alita21DeleteMessageResponseD2Ev
alita.node:_ZN5alita21DownloadAvatarRequest10SharedCtorEv
alita.node:_ZN5alita21DownloadAvatarRequest10SharedDtorEv
alita.node:_ZN5alita21DownloadAvatarRequest16default_instanceEv
alita.node:_ZN5alita21DownloadAvatarRequest16kTypeFieldNumberE
alita.node:_ZN5alita21DownloadAvatarRequest17default_instance_E
alita.node:_ZN5alita21DownloadAvatarRequest18kTaskIdFieldNumberE
alita.node:_ZN5alita21DownloadAvatarRequest20kUsernameFieldNumberE
alita.node:_ZN5alita21DownloadAvatarRequest21CheckTypeAndMergeFromERKN7tencent8protobuf11MessageLiteE
alita.node:_ZN5alita21DownloadAvatarRequest21InitAsDefaultInstanceEv
alita.node:_ZN5alita21DownloadAvatarRequest27MergePartialFromCodedStreamEPN7tencent8protobuf2io16CodedInputStreamE
alita.node:_ZN5alita21DownloadAvatarRequest4SwapEPS0_
alita.node:_ZN5alita21DownloadAvatarRequest5ClearEv
alita.node:_ZN5alita21DownloadAvatarRequest8CopyFromERKS0_
alita.node:_ZN5alita21DownloadAvatarRequest9MergeFromERKS0_
alita.node:_ZN5alita21DownloadAvatarRequestC1ERKS0_
alita.node:_ZN5alita21DownloadAvatarRequestC1Ev
alita.node:_ZN5alita21DownloadAvatarRequestC2ERKS0_
alita.node:_ZN5alita21DownloadAvatarRequestC2Ev
alita.node:_ZN5alita21DownloadAvatarRequestD0Ev
alita.node:_ZN5alita21DownloadAvatarRequestD1Ev
alita.node:_ZN5alita21DownloadAvatarRequestD2Ev
alita.node:_ZN5alita21DownloadImageProgress10SharedCtorEv
alita.node:_ZN5alita21DownloadImageProgress10SharedDtorEv
alita.node:_ZN5alita21DownloadImageProgress16default_instanceEv
alita.node:_ZN5alita21DownloadImageProgress17default_instance_E
alita.node:_ZN5alita21DownloadImageProgress17kTotalFieldNumberE
alita.node:_ZN5alita21DownloadImageProgress18kTaskIdFieldNumberE
alita.node:_ZN5alita21DownloadImageProgress19kCurrentFieldNumberE
alita.node:_ZN5alita21DownloadImageProgress21CheckTypeAndMergeFromERKN7tencent8protobuf11MessageLiteE
alita.node:_ZN5alita21DownloadImageProgress21InitAsDefaultInstanceEv
alita.node:_ZN5alita21DownloadImageProgress27MergePartialFromCodedStreamEPN7tencent8protobuf2io16CodedInputStreamE
alita.node:_ZN5alita21DownloadImageProgress4SwapEPS0_
alita.node:_ZN5alita21DownloadImageProgress5ClearEv
alita.node:_ZN5alita21DownloadImageProgress8CopyFromERKS0_
alita.node:_ZN5alita21DownloadImageProgress9MergeFromERKS0_
alita.node:_ZN5alita21DownloadImageProgressC1ERKS0_
alita.node:_ZN5alita21DownloadImageProgressC1Ev
alita.node:_ZN5alita21DownloadImageProgressC2ERKS0_
alita.node:_ZN5alita21DownloadImageProgressC2Ev
alita.node:_ZN5alita21DownloadImageProgressD0Ev
alita.node:_ZN5alita21DownloadImageProgressD1Ev
alita.node:_ZN5alita21DownloadImageProgressD2Ev
alita.node:_ZN5alita21DownloadImageResponse10SharedCtorEv
alita.node:_ZN5alita21DownloadImageResponse10SharedDtorEv
alita.node:_ZN5alita21DownloadImageResponse16default_instanceEv
alita.node:_ZN5alita21DownloadImageResponse17default_instance_E
alita.node:_ZN5alita21DownloadImageResponse18kErrMsgFieldNumberE
alita.node:_ZN5alita21DownloadImageResponse18kTaskIdFieldNumberE
alita.node:_ZN5alita21DownloadImageResponse19kErrCodeFieldNumberE
alita.node:_ZN5alita21DownloadImageResponse21CheckTypeAndMergeFromERKN7tencent8protobuf11MessageLiteE
alita.node:_ZN5alita21DownloadImageResponse21InitAsDefaultInstanceEv
alita.node:_ZN5alita21DownloadImageResponse27MergePartialFromCodedStreamEPN7tencent8protobuf2io16CodedInputStreamE
alita.node:_ZN5alita21DownloadImageResponse32kCdnImageDownloadInfoFieldNumberE
alita.node:_ZN5alita21DownloadImageResponse4SwapEPS0_
alita.node:_ZN5alita21DownloadImageResponse5ClearEv
alita.node:_ZN5alita21DownloadImageResponse8CopyFromERKS0_
alita.node:_ZN5alita21DownloadImageResponse9MergeFromERKS0_
alita.node:_ZN5alita21DownloadImageResponseC1ERKS0_
alita.node:_ZN5alita21DownloadImageResponseC1Ev
alita.node:_ZN5alita21DownloadImageResponseC2ERKS0_
alita.node:_ZN5alita21DownloadImageResponseC2Ev
alita.node:_ZN5alita21DownloadImageResponseD0Ev
alita.node:_ZN5alita21DownloadImageResponseD1Ev
alita.node:_ZN5alita21DownloadImageResponseD2Ev
alita.node:_ZN5alita21EmojiOperationRequest10SharedCtorEv
alita.node:_ZN5alita21EmojiOperationRequest10SharedDtorEv
alita.node:_ZN5alita21EmojiOperationRequest16default_instanceEv
alita.node:_ZN5alita21EmojiOperationRequest17default_instance_E
alita.node:_ZN5alita21EmojiOperationRequest17kMsgIdFieldNumberE
alita.node:_ZN5alita21EmojiOperationRequest18kOpCodeFieldNumberE
alita.node:_ZN5alita21EmojiOperationRequest18kTaskIdFieldNumberE
alita.node:_ZN5alita21EmojiOperationRequest21CheckTypeAndMergeFromERKN7tencent8protobuf11MessageLiteE
alita.node:_ZN5alita21EmojiOperationRequest21InitAsDefaultInstanceEv
alita.node:_ZN5alita21EmojiOperationRequest21kPanelTypeFieldNumberE
alita.node:_ZN5alita21EmojiOperationRequest24kEmojiMd5ListFieldNumberE
alita.node:_ZN5alita21EmojiOperationRequest27MergePartialFromCodedStreamEPN7tencent8protobuf2io16CodedInputStreamE
alita.node:_ZN5alita21EmojiOperationRequest4SwapEPS0_
alita.node:_ZN5alita21EmojiOperationRequest5ClearEv
alita.node:_ZN5alita21EmojiOperationRequest8CopyFromERKS0_
alita.node:_ZN5alita21EmojiOperationRequest9MergeFromERKS0_
alita.node:_ZN5alita21EmojiOperationRequestC1ERKS0_
alita.node:_ZN5alita21EmojiOperationRequestC1Ev
alita.node:_ZN5alita21EmojiOperationRequestC2ERKS0_
alita.node:_ZN5alita21EmojiOperationRequestC2Ev
alita.node:_ZN5alita21EmojiOperationRequestD0Ev
alita.node:_ZN5alita21EmojiOperationRequestD1Ev
alita.node:_ZN5alita21EmojiOperationRequestD2Ev
alita.node:_ZN5alita21FavSourceType_IsValidEi
alita.node:_ZN5alita21ForwardMessageRequest10SharedCtorEv
alita.node:_ZN5alita21ForwardMessageRequest10SharedDtorEv
alita.node:_ZN5alita21ForwardMessageRequest16default_instanceEv
alita.node:_ZN5alita21ForwardMessageRequest17default_instance_E
alita.node:_ZN5alita21ForwardMessageRequest17kMsgIdFieldNumberE
alita.node:_ZN5alita21ForwardMessageRequest18kTaskIdFieldNumberE
alita.node:_ZN5alita21ForwardMessageRequest21CheckTypeAndMergeFromERKN7tencent8protobuf11MessageLiteE
alita.node:_ZN5alita21ForwardMessageRequest21InitAsDefaultInstanceEv
alita.node:_ZN5alita21ForwardMessageRequest22kToUsernameFieldNumberE
alita.node:_ZN5alita21ForwardMessageRequest27MergePartialFromCodedStreamEPN7tencent8protobuf2io16CodedInputStreamE
alita.node:_ZN5alita21ForwardMessageRequest4SwapEPS0_
alita.node:_ZN5alita21ForwardMessageRequest5ClearEv
alita.node:_ZN5alita21ForwardMessageRequest8CopyFromERKS0_
alita.node:_ZN5alita21ForwardMessageRequest9MergeFromERKS0_
alita.node:_ZN5alita21ForwardMessageRequestC1ERKS0_
alita.node:_ZN5alita21ForwardMessageRequestC1Ev
alita.node:_ZN5alita21ForwardMessageRequestC2ERKS0_
alita.node:_ZN5alita21ForwardMessageRequestC2Ev
alita.node:_ZN5alita21ForwardMessageRequestD0Ev
alita.node:_ZN5alita21ForwardMessageRequestD1Ev
alita.node:_ZN5alita21ForwardMessageRequestD2Ev
alita.node:_ZN5alita21GetAvatarPathResponse10SharedCtorEv
alita.node:_ZN5alita21GetAvatarPathResponse10SharedDtorEv
alita.node:_ZN5alita21GetAvatarPathResponse16default_instanceEv
alita.node:_ZN5alita21GetAvatarPathResponse17default_instance_E
alita.node:_ZN5alita21GetAvatarPathResponse21CheckTypeAndMergeFromERKN7tencent8protobuf11MessageLiteE
alita.node:_ZN5alita21GetAvatarPathResponse21InitAsDefaultInstanceEv
alita.node:_ZN5alita21GetAvatarPathResponse22kAvatarPathFieldNumberE
alita.node:_ZN5alita21GetAvatarPathResponse27MergePartialFromCodedStreamEPN7tencent8protobuf2io16CodedInputStreamE
alita.node:_ZN5alita21GetAvatarPathResponse4SwapEPS0_
alita.node:_ZN5alita21GetAvatarPathResponse5ClearEv
alita.node:_ZN5alita21GetAvatarPathResponse8CopyFromERKS0_
alita.node:_ZN5alita21GetAvatarPathResponse9MergeFromERKS0_
alita.node:_ZN5alita21GetAvatarPathResponseC1ERKS0_
alita.node:_ZN5alita21GetAvatarPathResponseC1Ev
alita.node:_ZN5alita21GetAvatarPathResponseC2ERKS0_
alita.node:_ZN5alita21GetAvatarPathResponseC2Ev
alita.node:_ZN5alita21GetAvatarPathResponseD0Ev
alita.node:_ZN5alita21GetAvatarPathResponseD1Ev
alita.node:_ZN5alita21GetAvatarPathResponseD2Ev
alita.node:_ZN5alita21GetBindQrCodeResponse10SharedCtorEv
alita.node:_ZN5alita21GetBindQrCodeResponse10SharedDtorEv
alita.node:_ZN5alita21GetBindQrCodeResponse16default_instanceEv
alita.node:_ZN5alita21GetBindQrCodeResponse17default_instance_E
alita.node:_ZN5alita21GetBindQrCodeResponse18kErrMsgFieldNumberE
alita.node:_ZN5alita21GetBindQrCodeResponse18kTaskIdFieldNumberE
alita.node:_ZN5alita21GetBindQrCodeResponse19kErrCodeFieldNumberE
alita.node:_ZN5alita21GetBindQrCodeResponse21CheckTypeAndMergeFromERKN7tencent8protobuf11MessageLiteE
alita.node:_ZN5alita21GetBindQrCodeResponse21InitAsDefaultInstanceEv
alita.node:_ZN5alita21GetBindQrCodeResponse22kQrcodePathFieldNumberE
alita.node:_ZN5alita21GetBindQrCodeResponse25kQrcodeContentFieldNumberE
alita.node:_ZN5alita21GetBindQrCodeResponse27MergePartialFromCodedStreamEPN7tencent8protobuf2io16CodedInputStreamE
alita.node:_ZN5alita21GetBindQrCodeResponse4SwapEPS0_
alita.node:_ZN5alita21GetBindQrCodeResponse5ClearEv
alita.node:_ZN5alita21GetBindQrCodeResponse8CopyFromERKS0_
alita.node:_ZN5alita21GetBindQrCodeResponse9MergeFromERKS0_
alita.node:_ZN5alita21GetBindQrCodeResponseC1ERKS0_
alita.node:_ZN5alita21GetBindQrCodeResponseC1Ev
alita.node:_ZN5alita21GetBindQrCodeResponseC2ERKS0_
alita.node:_ZN5alita21GetBindQrCodeResponseC2Ev
alita.node:_ZN5alita21GetBindQrCodeResponseD0Ev
alita.node:_ZN5alita21GetBindQrCodeResponseD1Ev
alita.node:_ZN5alita21GetBindQrCodeResponseD2Ev
alita.node:_ZN5alita21GetExtSpamInfoRequest10SharedCtorEv
alita.node:_ZN5alita21GetExtSpamInfoRequest10SharedDtorEv
alita.node:_ZN5alita21GetExtSpamInfoRequest16default_instanceEv
alita.node:_ZN5alita21GetExtSpamInfoRequest17default_instance_E
alita.node:_ZN5alita21GetExtSpamInfoRequest21CheckTypeAndMergeFromERKN7tencent8protobuf11MessageLiteE
alita.node:_ZN5alita21GetExtSpamInfoRequest21InitAsDefaultInstanceEv
alita.node:_ZN5alita21GetExtSpamInfoRequest23kExtInfoBitsFieldNumberE
alita.node:_ZN5alita21GetExtSpamInfoRequest27MergePartialFromCodedStreamEPN7tencent8protobuf2io16CodedInputStreamE
alita.node:_ZN5alita21GetExtSpamInfoRequest4SwapEPS0_
alita.node:_ZN5alita21GetExtSpamInfoRequest5ClearEv
alita.node:_ZN5alita21GetExtSpamInfoRequest8CopyFromERKS0_
alita.node:_ZN5alita21GetExtSpamInfoRequest9MergeFromERKS0_
alita.node:_ZN5alita21GetExtSpamInfoRequestC1ERKS0_
alita.node:_ZN5alita21GetExtSpamInfoRequestC1Ev
alita.node:_ZN5alita21GetExtSpamInfoRequestC2ERKS0_
alita.node:_ZN5alita21GetExtSpamInfoRequestC2Ev
alita.node:_ZN5alita21GetExtSpamInfoRequestD0Ev
alita.node:_ZN5alita21GetExtSpamInfoRequestD1Ev
alita.node:_ZN5alita21GetExtSpamInfoRequestD2Ev
alita.node:_ZN5alita21GetLoginStateResponse10SharedCtorEv
alita.node:_ZN5alita21GetLoginStateResponse10SharedDtorEv
alita.node:_ZN5alita21GetLoginStateResponse16default_instanceEv
alita.node:_ZN5alita21GetLoginStateResponse17default_instance_E
alita.node:_ZN5alita21GetLoginStateResponse21CheckTypeAndMergeFromERKN7tencent8protobuf11MessageLiteE
alita.node:_ZN5alita21GetLoginStateResponse21InitAsDefaultInstanceEv
alita.node:_ZN5alita21GetLoginStateResponse22kLoginStateFieldNumberE
alita.node:_ZN5alita21GetLoginStateResponse27MergePartialFromCodedStreamEPN7tencent8protobuf2io16CodedInputStreamE
alita.node:_ZN5alita21GetLoginStateResponse4SwapEPS0_
alita.node:_ZN5alita21GetLoginStateResponse5ClearEv
alita.node:_ZN5alita21GetLoginStateResponse8CopyFromERKS0_
alita.node:_ZN5alita21GetLoginStateResponse9MergeFromERKS0_
alita.node:_ZN5alita21GetLoginStateResponseC1ERKS0_
alita.node:_ZN5alita21GetLoginStateResponseC1Ev
alita.node:_ZN5alita21GetLoginStateResponseC2ERKS0_
alita.node:_ZN5alita21GetLoginStateResponseC2Ev
alita.node:_ZN5alita21GetLoginStateResponseD0Ev
alita.node:_ZN5alita21GetLoginStateResponseD1Ev
alita.node:_ZN5alita21GetLoginStateResponseD2Ev
alita.node:_ZN5alita21GetMessageListRequest10SharedCtorEv
alita.node:_ZN5alita21GetMessageListRequest10SharedDtorEv
alita.node:_ZN5alita21GetMessageListRequest16default_instanceEv
alita.node:_ZN5alita21GetMessageListRequest17default_instance_E
alita.node:_ZN5alita21GetMessageListRequest18kOffsetFieldNumberE
alita.node:_ZN5alita21GetMessageListRequest20kUsernameFieldNumberE
alita.node:_ZN5alita21GetMessageListRequest21CheckTypeAndMergeFromERKN7tencent8protobuf11MessageLiteE
alita.node:_ZN5alita21GetMessageListRequest21InitAsDefaultInstanceEv
alita.node:_ZN5alita21GetMessageListRequest21kOrderTypeFieldNumberE
alita.node:_ZN5alita21GetMessageListRequest22kCreateTimeFieldNumberE
alita.node:_ZN5alita21GetMessageListRequest22kStartMsgIdFieldNumberE
alita.node:_ZN5alita21GetMessageListRequest27MergePartialFromCodedStreamEPN7tencent8protobuf2io16CodedInputStreamE
alita.node:_ZN5alita21GetMessageListRequest4SwapEPS0_
alita.node:_ZN5alita21GetMessageListRequest5ClearEv
alita.node:_ZN5alita21GetMessageListRequest8CopyFromERKS0_
alita.node:_ZN5alita21GetMessageListRequest9MergeFromERKS0_
alita.node:_ZN5alita21GetMessageListRequestC1ERKS0_
alita.node:_ZN5alita21GetMessageListRequestC1Ev
alita.node:_ZN5alita21GetMessageListRequestC2ERKS0_
alita.node:_ZN5alita21GetMessageListRequestC2Ev
alita.node:_ZN5alita21GetMessageListRequestD0Ev
alita.node:_ZN5alita21GetMessageListRequestD1Ev
alita.node:_ZN5alita21GetMessageListRequestD2Ev
alita.node:_ZN5alita21GetRecentUserResponse10SharedCtorEv
alita.node:_ZN5alita21GetRecentUserResponse10SharedDtorEv
alita.node:_ZN5alita21GetRecentUserResponse16default_instanceEv
alita.node:_ZN5alita21GetRecentUserResponse16kUserFieldNumberE
alita.node:_ZN5alita21GetRecentUserResponse17default_instance_E
alita.node:_ZN5alita21GetRecentUserResponse21CheckTypeAndMergeFromERKN7tencent8protobuf11MessageLiteE
alita.node:_ZN5alita21GetRecentUserResponse21InitAsDefaultInstanceEv
alita.node:_ZN5alita21GetRecentUserResponse27MergePartialFromCodedStreamEPN7tencent8protobuf2io16CodedInputStreamE
alita.node:_ZN5alita21GetRecentUserResponse4SwapEPS0_
alita.node:_ZN5alita21GetRecentUserResponse5ClearEv
alita.node:_ZN5alita21GetRecentUserResponse8CopyFromERKS0_
alita.node:_ZN5alita21GetRecentUserResponse9MergeFromERKS0_
alita.node:_ZN5alita21GetRecentUserResponseC1ERKS0_
alita.node:_ZN5alita21GetRecentUserResponseC1Ev
alita.node:_ZN5alita21GetRecentUserResponseC2ERKS0_
alita.node:_ZN5alita21GetRecentUserResponseC2Ev
alita.node:_ZN5alita21GetRecentUserResponseD0Ev
alita.node:_ZN5alita21GetRecentUserResponseD1Ev
alita.node:_ZN5alita21GetRecentUserResponseD2Ev
alita.node:_ZN5alita21GetServerTimeResponse10SharedCtorEv
alita.node:_ZN5alita21GetServerTimeResponse10SharedDtorEv
alita.node:_ZN5alita21GetServerTimeResponse16default_instanceEv
alita.node:_ZN5alita21GetServerTimeResponse17default_instance_E
alita.node:_ZN5alita21GetServerTimeResponse21CheckTypeAndMergeFromERKN7tencent8protobuf11MessageLiteE
alita.node:_ZN5alita21GetServerTimeResponse21InitAsDefaultInstanceEv
alita.node:_ZN5alita21GetServerTimeResponse22kServerTimeFieldNumberE
alita.node:_ZN5alita21GetServerTimeResponse27MergePartialFromCodedStreamEPN7tencent8protobuf2io16CodedInputStreamE
alita.node:_ZN5alita21GetServerTimeResponse4SwapEPS0_
alita.node:_ZN5alita21GetServerTimeResponse5ClearEv
alita.node:_ZN5alita21GetServerTimeResponse8CopyFromERKS0_
alita.node:_ZN5alita21GetServerTimeResponse9MergeFromERKS0_
alita.node:_ZN5alita21GetServerTimeResponseC1ERKS0_
alita.node:_ZN5alita21GetServerTimeResponseC1Ev
alita.node:_ZN5alita21GetServerTimeResponseC2ERKS0_
alita.node:_ZN5alita21GetServerTimeResponseC2Ev
alita.node:_ZN5alita21GetServerTimeResponseD0Ev
alita.node:_ZN5alita21GetServerTimeResponseD1Ev
alita.node:_ZN5alita21GetServerTimeResponseD2Ev
alita.node:_ZN5alita21HandOffMasterMiniGame10SharedCtorEv
alita.node:_ZN5alita21HandOffMasterMiniGame10SharedDtorEv
alita.node:_ZN5alita21HandOffMasterMiniGame16default_instanceEv
alita.node:_ZN5alita21HandOffMasterMiniGame16kIconFieldNumberE
alita.node:_ZN5alita21HandOffMasterMiniGame17default_instance_E
alita.node:_ZN5alita21HandOffMasterMiniGame17kAppIdFieldNumberE
alita.node:_ZN5alita21HandOffMasterMiniGame17kTitleFieldNumberE
alita.node:_ZN5alita21HandOffMasterMiniGame21CheckTypeAndMergeFromERKN7tencent8protobuf11MessageLiteE
alita.node:_ZN5alita21HandOffMasterMiniGame21InitAsDefaultInstanceEv
alita.node:_ZN5alita21HandOffMasterMiniGame23kAppUsernameFieldNumberE
alita.node:_ZN5alita21HandOffMasterMiniGame23kHandoffTypeFieldNumberE
alita.node:_ZN5alita21HandOffMasterMiniGame27MergePartialFromCodedStreamEPN7tencent8protobuf2io16CodedInputStreamE
alita.node:_ZN5alita21HandOffMasterMiniGame4SwapEPS0_
alita.node:_ZN5alita21HandOffMasterMiniGame5ClearEv
alita.node:_ZN5alita21HandOffMasterMiniGame8CopyFromERKS0_
alita.node:_ZN5alita21HandOffMasterMiniGame9MergeFromERKS0_
alita.node:_ZN5alita21HandOffMasterMiniGameC1ERKS0_
alita.node:_ZN5alita21HandOffMasterMiniGameC1Ev
alita.node:_ZN5alita21HandOffMasterMiniGameC2ERKS0_
alita.node:_ZN5alita21HandOffMasterMiniGameC2Ev
alita.node:_ZN5alita21HandOffMasterMiniGameD0Ev
alita.node:_ZN5alita21HandOffMasterMiniGameD1Ev
alita.node:_ZN5alita21HandOffMasterMiniGameD2Ev
alita.node:_ZN5alita21LoginBySmsCodeRequest10SharedCtorEv
alita.node:_ZN5alita21LoginBySmsCodeRequest10SharedDtorEv
alita.node:_ZN5alita21LoginBySmsCodeRequest16default_instanceEv
alita.node:_ZN5alita21LoginBySmsCodeRequest17default_instance_E
alita.node:_ZN5alita21LoginBySmsCodeRequest18kTaskIdFieldNumberE
alita.node:_ZN5alita21LoginBySmsCodeRequest19kSmsCodeFieldNumberE
alita.node:_ZN5alita21LoginBySmsCodeRequest21CheckTypeAndMergeFromERKN7tencent8protobuf11MessageLiteE
alita.node:_ZN5alita21LoginBySmsCodeRequest21InitAsDefaultInstanceEv
alita.node:_ZN5alita21LoginBySmsCodeRequest23kPhoneNumberFieldNumberE
alita.node:_ZN5alita21LoginBySmsCodeRequest27MergePartialFromCodedStreamEPN7tencent8protobuf2io16CodedInputStreamE
alita.node:_ZN5alita21LoginBySmsCodeRequest4SwapEPS0_
alita.node:_ZN5alita21LoginBySmsCodeRequest5ClearEv
alita.node:_ZN5alita21LoginBySmsCodeRequest8CopyFromERKS0_
alita.node:_ZN5alita21LoginBySmsCodeRequest9MergeFromERKS0_
alita.node:_ZN5alita21LoginBySmsCodeRequestC1ERKS0_
alita.node:_ZN5alita21LoginBySmsCodeRequestC1Ev
alita.node:_ZN5alita21LoginBySmsCodeRequestC2ERKS0_
alita.node:_ZN5alita21LoginBySmsCodeRequestC2Ev
alita.node:_ZN5alita21LoginBySmsCodeRequestD0Ev
alita.node:_ZN5alita21LoginBySmsCodeRequestD1Ev
alita.node:_ZN5alita21LoginBySmsCodeRequestD2Ev
alita.node:_ZN5alita21MessageStatus_IsValidEi
alita.node:_ZN5alita21NetworkPolicy_IsValidEi
alita.node:_ZN5alita21PresetDebugIp_IsValidEi
alita.node:_ZN5alita21RecallMessageResponse10SharedCtorEv
alita.node:_ZN5alita21RecallMessageResponse10SharedDtorEv
alita.node:_ZN5alita21RecallMessageResponse16default_instanceEv
alita.node:_ZN5alita21RecallMessageResponse17default_instance_E
alita.node:_ZN5alita21RecallMessageResponse17kMsgIdFieldNumberE
alita.node:_ZN5alita21RecallMessageResponse18kErrMsgFieldNumberE
alita.node:_ZN5alita21RecallMessageResponse18kTaskIdFieldNumberE
alita.node:_ZN5alita21RecallMessageResponse19kErrCodeFieldNumberE
alita.node:_ZN5alita21RecallMessageResponse21CheckTypeAndMergeFromERKN7tencent8protobuf11MessageLiteE
alita.node:_ZN5alita21RecallMessageResponse21InitAsDefaultInstanceEv
alita.node:_ZN5alita21RecallMessageResponse27MergePartialFromCodedStreamEPN7tencent8protobuf2io16CodedInputStreamE
alita.node:_ZN5alita21RecallMessageResponse4SwapEPS0_
alita.node:_ZN5alita21RecallMessageResponse5ClearEv
alita.node:_ZN5alita21RecallMessageResponse8CopyFromERKS0_
alita.node:_ZN5alita21RecallMessageResponse9MergeFromERKS0_
alita.node:_ZN5alita21RecallMessageResponseC1ERKS0_
alita.node:_ZN5alita21RecallMessageResponseC1Ev
alita.node:_ZN5alita21RecallMessageResponseC2ERKS0_
alita.node:_ZN5alita21RecallMessageResponseC2Ev
alita.node:_ZN5alita21RecallMessageResponseD0Ev
alita.node:_ZN5alita21RecallMessageResponseD1Ev
alita.node:_ZN5alita21RecallMessageResponseD2Ev
alita.node:_ZN5alita21ReloadMessageResponse10SharedCtorEv
alita.node:_ZN5alita21ReloadMessageResponse10SharedDtorEv
alita.node:_ZN5alita21ReloadMessageResponse16default_instanceEv
alita.node:_ZN5alita21ReloadMessageResponse17default_instance_E
alita.node:_ZN5alita21ReloadMessageResponse17kMsgIdFieldNumberE
alita.node:_ZN5alita21ReloadMessageResponse18kErrMsgFieldNumberE
alita.node:_ZN5alita21ReloadMessageResponse18kTaskIdFieldNumberE
alita.node:_ZN5alita21ReloadMessageResponse19kErrCodeFieldNumberE
alita.node:_ZN5alita21ReloadMessageResponse21CheckTypeAndMergeFromERKN7tencent8protobuf11MessageLiteE
alita.node:_ZN5alita21ReloadMessageResponse21InitAsDefaultInstanceEv
alita.node:_ZN5alita21ReloadMessageResponse27MergePartialFromCodedStreamEPN7tencent8protobuf2io16CodedInputStreamE
alita.node:_ZN5alita21ReloadMessageResponse4SwapEPS0_
alita.node:_ZN5alita21ReloadMessageResponse5ClearEv
alita.node:_ZN5alita21ReloadMessageResponse8CopyFromERKS0_
alita.node:_ZN5alita21ReloadMessageResponse9MergeFromERKS0_
alita.node:_ZN5alita21ReloadMessageResponseC1ERKS0_
alita.node:_ZN5alita21ReloadMessageResponseC1Ev
alita.node:_ZN5alita21ReloadMessageResponseC2ERKS0_
alita.node:_ZN5alita21ReloadMessageResponseC2Ev
alita.node:_ZN5alita21ReloadMessageResponseD0Ev
alita.node:_ZN5alita21ReloadMessageResponseD1Ev
alita.node:_ZN5alita21ReloadMessageResponseD2Ev
alita.node:_ZN5alita21RemarkContactResponse10SharedCtorEv
alita.node:_ZN5alita21RemarkContactResponse10SharedDtorEv
alita.node:_ZN5alita21RemarkContactResponse16default_instanceEv
alita.node:_ZN5alita21RemarkContactResponse17default_instance_E
alita.node:_ZN5alita21RemarkContactResponse18kErrMsgFieldNumberE
alita.node:_ZN5alita21RemarkContactResponse18kTaskIdFieldNumberE
alita.node:_ZN5alita21RemarkContactResponse19kErrCodeFieldNumberE
alita.node:_ZN5alita21RemarkContactResponse21CheckTypeAndMergeFromERKN7tencent8protobuf11MessageLiteE
alita.node:_ZN5alita21RemarkContactResponse21InitAsDefaultInstanceEv
alita.node:_ZN5alita21RemarkContactResponse27MergePartialFromCodedStreamEPN7tencent8protobuf2io16CodedInputStreamE
alita.node:_ZN5alita21RemarkContactResponse4SwapEPS0_
alita.node:_ZN5alita21RemarkContactResponse5ClearEv
alita.node:_ZN5alita21RemarkContactResponse8CopyFromERKS0_
alita.node:_ZN5alita21RemarkContactResponse9MergeFromERKS0_
alita.node:_ZN5alita21RemarkContactResponseC1ERKS0_
alita.node:_ZN5alita21RemarkContactResponseC1Ev
alita.node:_ZN5alita21RemarkContactResponseC2ERKS0_
alita.node:_ZN5alita21RemarkContactResponseC2Ev
alita.node:_ZN5alita21RemarkContactResponseD0Ev
alita.node:_ZN5alita21RemarkContactResponseD1Ev
alita.node:_ZN5alita21RemarkContactResponseD2Ev
alita.node:_ZN5alita21ResendMessageResponse10SharedCtorEv
alita.node:_ZN5alita21ResendMessageResponse10SharedDtorEv
alita.node:_ZN5alita21ResendMessageResponse16default_instanceEv
alita.node:_ZN5alita21ResendMessageResponse17default_instance_E
alita.node:_ZN5alita21ResendMessageResponse17kMsgIdFieldNumberE
alita.node:_ZN5alita21ResendMessageResponse18kErrMsgFieldNumberE
alita.node:_ZN5alita21ResendMessageResponse18kTaskIdFieldNumberE
alita.node:_ZN5alita21ResendMessageResponse19kErrCodeFieldNumberE
alita.node:_ZN5alita21ResendMessageResponse21CheckTypeAndMergeFromERKN7tencent8protobuf11MessageLiteE
alita.node:_ZN5alita21ResendMessageResponse21InitAsDefaultInstanceEv
alita.node:_ZN5alita21ResendMessageResponse27MergePartialFromCodedStreamEPN7tencent8protobuf2io16CodedInputStreamE
alita.node:_ZN5alita21ResendMessageResponse4SwapEPS0_
alita.node:_ZN5alita21ResendMessageResponse5ClearEv
alita.node:_ZN5alita21ResendMessageResponse8CopyFromERKS0_
alita.node:_ZN5alita21ResendMessageResponse9MergeFromERKS0_
alita.node:_ZN5alita21ResendMessageResponseC1ERKS0_
alita.node:_ZN5alita21ResendMessageResponseC1Ev
alita.node:_ZN5alita21ResendMessageResponseC2ERKS0_
alita.node:_ZN5alita21ResendMessageResponseC2Ev
alita.node:_ZN5alita21ResendMessageResponseD0Ev
alita.node:_ZN5alita21ResendMessageResponseD1Ev
alita.node:_ZN5alita21ResendMessageResponseD2Ev
alita.node:_ZN5alita21SearchContactItemList10SharedCtorEv
alita.node:_ZN5alita21SearchContactItemList10SharedDtorEv
alita.node:_ZN5alita21SearchContactItemList16default_instanceEv
alita.node:_ZN5alita21SearchContactItemList17default_instance_E
alita.node:_ZN5alita21SearchContactItemList20kItemListFieldNumberE
alita.node:_ZN5alita21SearchContactItemList21CheckTypeAndMergeFromERKN7tencent8protobuf11MessageLiteE
alita.node:_ZN5alita21SearchContactItemList21InitAsDefaultInstanceEv
alita.node:_ZN5alita21SearchContactItemList27MergePartialFromCodedStreamEPN7tencent8protobuf2io16CodedInputStreamE
alita.node:_ZN5alita21SearchContactItemList4SwapEPS0_
alita.node:_ZN5alita21SearchContactItemList5ClearEv
alita.node:_ZN5alita21SearchContactItemList8CopyFromERKS0_
alita.node:_ZN5alita21SearchContactItemList9MergeFromERKS0_
alita.node:_ZN5alita21SearchContactItemListC1ERKS0_
alita.node:_ZN5alita21SearchContactItemListC1Ev
alita.node:_ZN5alita21SearchContactItemListC2ERKS0_
alita.node:_ZN5alita21SearchContactItemListC2Ev
alita.node:_ZN5alita21SearchContactItemListD0Ev
alita.node:_ZN5alita21SearchContactItemListD1Ev
alita.node:_ZN5alita21SearchContactItemListD2Ev
alita.node:_ZN5alita21SearchContactResponse10SharedCtorEv
alita.node:_ZN5alita21SearchContactResponse10SharedDtorEv
alita.node:_ZN5alita21SearchContactResponse16default_instanceEv
alita.node:_ZN5alita21SearchContactResponse17default_instance_E
alita.node:_ZN5alita21SearchContactResponse18kTaskIdFieldNumberE
alita.node:_ZN5alita21SearchContactResponse20kItemListFieldNumberE
alita.node:_ZN5alita21SearchContactResponse21CheckTypeAndMergeFromERKN7tencent8protobuf11MessageLiteE
alita.node:_ZN5alita21SearchContactResponse21InitAsDefaultInstanceEv
alita.node:_ZN5alita21SearchContactResponse21kErrorInfoFieldNumberE
alita.node:_ZN5alita21SearchContactResponse27MergePartialFromCodedStreamEPN7tencent8protobuf2io16CodedInputStreamE
alita.node:_ZN5alita21SearchContactResponse4SwapEPS0_
alita.node:_ZN5alita21SearchContactResponse5ClearEv
alita.node:_ZN5alita21SearchContactResponse8CopyFromERKS0_
alita.node:_ZN5alita21SearchContactResponse9MergeFromERKS0_
alita.node:_ZN5alita21SearchContactResponseC1ERKS0_
alita.node:_ZN5alita21SearchContactResponseC1Ev
alita.node:_ZN5alita21SearchContactResponseC2ERKS0_
alita.node:_ZN5alita21SearchContactResponseC2Ev
alita.node:_ZN5alita21SearchContactResponseD0Ev
alita.node:_ZN5alita21SearchContactResponseD1Ev
alita.node:_ZN5alita21SearchContactResponseD2Ev
alita.node:_ZN5alita21SendAppMessageRequest10SharedCtorEv
alita.node:_ZN5alita21SendAppMessageRequest10SharedDtorEv
alita.node:_ZN5alita21SendAppMessageRequest16default_instanceEv
alita.node:_ZN5alita21SendAppMessageRequest16kTypeFieldNumberE
alita.node:_ZN5alita21SendAppMessageRequest17default_instance_E
alita.node:_ZN5alita21SendAppMessageRequest18kTaskIdFieldNumberE
alita.node:_ZN5alita21SendAppMessageRequest20kUsernameFieldNumberE
alita.node:_ZN5alita21SendAppMessageRequest21CheckTypeAndMergeFromERKN7tencent8protobuf11MessageLiteE
alita.node:_ZN5alita21SendAppMessageRequest21InitAsDefaultInstanceEv
alita.node:_ZN5alita21SendAppMessageRequest21kAppMsgStrFieldNumberE
alita.node:_ZN5alita21SendAppMessageRequest27MergePartialFromCodedStreamEPN7tencent8protobuf2io16CodedInputStreamE
alita.node:_ZN5alita21SendAppMessageRequest4SwapEPS0_
alita.node:_ZN5alita21SendAppMessageRequest5ClearEv
alita.node:_ZN5alita21SendAppMessageRequest8CopyFromERKS0_
alita.node:_ZN5alita21SendAppMessageRequest9MergeFromERKS0_
alita.node:_ZN5alita21SendAppMessageRequestC1ERKS0_
alita.node:_ZN5alita21SendAppMessageRequestC1Ev
alita.node:_ZN5alita21SendAppMessageRequestC2ERKS0_
alita.node:_ZN5alita21SendAppMessageRequestC2Ev
alita.node:_ZN5alita21SendAppMessageRequestD0Ev
alita.node:_ZN5alita21SendAppMessageRequestD1Ev
alita.node:_ZN5alita21SendAppMessageRequestD2Ev
alita.node:_ZN5alita21SendAudioDataResponse10SharedCtorEv
alita.node:_ZN5alita21SendAudioDataResponse10SharedDtorEv
alita.node:_ZN5alita21SendAudioDataResponse16default_instanceEv
alita.node:_ZN5alita21SendAudioDataResponse17default_instance_E
alita.node:_ZN5alita21SendAudioDataResponse17kInt32FieldNumberE
alita.node:_ZN5alita21SendAudioDataResponse21CheckTypeAndMergeFromERKN7tencent8protobuf11MessageLiteE
alita.node:_ZN5alita21SendAudioDataResponse21InitAsDefaultInstanceEv
alita.node:_ZN5alita21SendAudioDataResponse27MergePartialFromCodedStreamEPN7tencent8protobuf2io16CodedInputStreamE
alita.node:_ZN5alita21SendAudioDataResponse4SwapEPS0_
alita.node:_ZN5alita21SendAudioDataResponse5ClearEv
alita.node:_ZN5alita21SendAudioDataResponse8CopyFromERKS0_
alita.node:_ZN5alita21SendAudioDataResponse9MergeFromERKS0_
alita.node:_ZN5alita21SendAudioDataResponseC1ERKS0_
alita.node:_ZN5alita21SendAudioDataResponseC1Ev
alita.node:_ZN5alita21SendAudioDataResponseC2ERKS0_
alita.node:_ZN5alita21SendAudioDataResponseC2Ev
alita.node:_ZN5alita21SendAudioDataResponseD0Ev
alita.node:_ZN5alita21SendAudioDataResponseD1Ev
alita.node:_ZN5alita21SendAudioDataResponseD2Ev
alita.node:_ZN5alita21SendVideoDataResponse10SharedCtorEv
alita.node:_ZN5alita21SendVideoDataResponse10SharedDtorEv
alita.node:_ZN5alita21SendVideoDataResponse16default_instanceEv
alita.node:_ZN5alita21SendVideoDataResponse17default_instance_E
alita.node:_ZN5alita21SendVideoDataResponse17kInt32FieldNumberE
alita.node:_ZN5alita21SendVideoDataResponse21CheckTypeAndMergeFromERKN7tencent8protobuf11MessageLiteE
alita.node:_ZN5alita21SendVideoDataResponse21InitAsDefaultInstanceEv
alita.node:_ZN5alita21SendVideoDataResponse27MergePartialFromCodedStreamEPN7tencent8protobuf2io16CodedInputStreamE
alita.node:_ZN5alita21SendVideoDataResponse4SwapEPS0_
alita.node:_ZN5alita21SendVideoDataResponse5ClearEv
alita.node:_ZN5alita21SendVideoDataResponse8CopyFromERKS0_
alita.node:_ZN5alita21SendVideoDataResponse9MergeFromERKS0_
alita.node:_ZN5alita21SendVideoDataResponseC1ERKS0_
alita.node:_ZN5alita21SendVideoDataResponseC1Ev
alita.node:_ZN5alita21SendVideoDataResponseC2ERKS0_
alita.node:_ZN5alita21SendVideoDataResponseC2Ev
alita.node:_ZN5alita21SendVideoDataResponseD0Ev
alita.node:_ZN5alita21SendVideoDataResponseD1Ev
alita.node:_ZN5alita21SendVideoDataResponseD2Ev
alita.node:_ZN5alita21SetContactMuteRequest10SharedCtorEv
alita.node:_ZN5alita21SetContactMuteRequest10SharedDtorEv
alita.node:_ZN5alita21SetContactMuteRequest16default_instanceEv
alita.node:_ZN5alita21SetContactMuteRequest17default_instance_E
alita.node:_ZN5alita21SetContactMuteRequest18kIsMuteFieldNumberE
alita.node:_ZN5alita21SetContactMuteRequest18kTaskIdFieldNumberE
alita.node:_ZN5alita21SetContactMuteRequest20kUsernameFieldNumberE
alita.node:_ZN5alita21SetContactMuteRequest21CheckTypeAndMergeFromERKN7tencent8protobuf11MessageLiteE
alita.node:_ZN5alita21SetContactMuteRequest21InitAsDefaultInstanceEv
alita.node:_ZN5alita21SetContactMuteRequest27MergePartialFromCodedStreamEPN7tencent8protobuf2io16CodedInputStreamE
alita.node:_ZN5alita21SetContactMuteRequest4SwapEPS0_
alita.node:_ZN5alita21SetContactMuteRequest5ClearEv
alita.node:_ZN5alita21SetContactMuteRequest8CopyFromERKS0_
alita.node:_ZN5alita21SetContactMuteRequest9MergeFromERKS0_
alita.node:_ZN5alita21SetContactMuteRequestC1ERKS0_
alita.node:_ZN5alita21SetContactMuteRequestC1Ev
alita.node:_ZN5alita21SetContactMuteRequestC2ERKS0_
alita.node:_ZN5alita21SetContactMuteRequestC2Ev
alita.node:_ZN5alita21SetContactMuteRequestD0Ev
alita.node:_ZN5alita21SetContactMuteRequestD1Ev
alita.node:_ZN5alita21SetContactMuteRequestD2Ev
alita.node:_ZN5alita21SetDebugReportRequest10SharedCtorEv
alita.node:_ZN5alita21SetDebugReportRequest10SharedDtorEv
alita.node:_ZN5alita21SetDebugReportRequest16default_instanceEv
alita.node:_ZN5alita21SetDebugReportRequest17default_instance_E
alita.node:_ZN5alita21SetDebugReportRequest17kDebugFieldNumberE
alita.node:_ZN5alita21SetDebugReportRequest21CheckTypeAndMergeFromERKN7tencent8protobuf11MessageLiteE
alita.node:_ZN5alita21SetDebugReportRequest21InitAsDefaultInstanceEv
alita.node:_ZN5alita21SetDebugReportRequest27MergePartialFromCodedStreamEPN7tencent8protobuf2io16CodedInputStreamE
alita.node:_ZN5alita21SetDebugReportRequest4SwapEPS0_
alita.node:_ZN5alita21SetDebugReportRequest5ClearEv
alita.node:_ZN5alita21SetDebugReportRequest8CopyFromERKS0_
alita.node:_ZN5alita21SetDebugReportRequest9MergeFromERKS0_
alita.node:_ZN5alita21SetDebugReportRequestC1ERKS0_
alita.node:_ZN5alita21SetDebugReportRequestC1Ev
alita.node:_ZN5alita21SetDebugReportRequestC2ERKS0_
alita.node:_ZN5alita21SetDebugReportRequestC2Ev
alita.node:_ZN5alita21SetDebugReportRequestD0Ev
alita.node:_ZN5alita21SetDebugReportRequestD1Ev
alita.node:_ZN5alita21SetDebugReportRequestD2Ev
alita.node:_ZN5alita21SetForegroundResponse10SharedCtorEv
alita.node:_ZN5alita21SetForegroundResponse10SharedDtorEv
alita.node:_ZN5alita21SetForegroundResponse16default_instanceEv
alita.node:_ZN5alita21SetForegroundResponse17default_instance_E
alita.node:_ZN5alita21SetForegroundResponse19kErrCodeFieldNumberE
alita.node:_ZN5alita21SetForegroundResponse21CheckTypeAndMergeFromERKN7tencent8protobuf11MessageLiteE
alita.node:_ZN5alita21SetForegroundResponse21InitAsDefaultInstanceEv
alita.node:_ZN5alita21SetForegroundResponse27MergePartialFromCodedStreamEPN7tencent8protobuf2io16CodedInputStreamE
alita.node:_ZN5alita21SetForegroundResponse4SwapEPS0_
alita.node:_ZN5alita21SetForegroundResponse5ClearEv
alita.node:_ZN5alita21SetForegroundResponse8CopyFromERKS0_
alita.node:_ZN5alita21SetForegroundResponse9MergeFromERKS0_
alita.node:_ZN5alita21SetForegroundResponseC1ERKS0_
alita.node:_ZN5alita21SetForegroundResponseC1Ev
alita.node:_ZN5alita21SetForegroundResponseC2ERKS0_
alita.node:_ZN5alita21SetForegroundResponseC2Ev
alita.node:_ZN5alita21SetForegroundResponseD0Ev
alita.node:_ZN5alita21SetForegroundResponseD1Ev
alita.node:_ZN5alita21SetForegroundResponseD2Ev
alita.node:_ZN5alita21SystemMessageTemplate10SharedCtorEv
alita.node:_ZN5alita21SystemMessageTemplate10SharedDtorEv
alita.node:_ZN5alita21SystemMessageTemplate16default_instanceEv
alita.node:_ZN5alita21SystemMessageTemplate17default_instance_E
alita.node:_ZN5alita21SystemMessageTemplate17kPlainFieldNumberE
alita.node:_ZN5alita21SystemMessageTemplate20kLinkListFieldNumberE
alita.node:_ZN5alita21SystemMessageTemplate20kTemplateFieldNumberE
alita.node:_ZN5alita21SystemMessageTemplate21CheckTypeAndMergeFromERKN7tencent8protobuf11MessageLiteE
alita.node:_ZN5alita21SystemMessageTemplate21InitAsDefaultInstanceEv
alita.node:_ZN5alita21SystemMessageTemplate23kContentTypeFieldNumberE
alita.node:_ZN5alita21SystemMessageTemplate27MergePartialFromCodedStreamEPN7tencent8protobuf2io16CodedInputStreamE
alita.node:_ZN5alita21SystemMessageTemplate4SwapEPS0_
alita.node:_ZN5alita21SystemMessageTemplate5ClearEv
alita.node:_ZN5alita21SystemMessageTemplate8CopyFromERKS0_
alita.node:_ZN5alita21SystemMessageTemplate9MergeFromERKS0_
alita.node:_ZN5alita21SystemMessageTemplateC1ERKS0_
alita.node:_ZN5alita21SystemMessageTemplateC1Ev
alita.node:_ZN5alita21SystemMessageTemplateC2ERKS0_
alita.node:_ZN5alita21SystemMessageTemplateC2Ev
alita.node:_ZN5alita21SystemMessageTemplateD0Ev
alita.node:_ZN5alita21SystemMessageTemplateD1Ev
alita.node:_ZN5alita21SystemMessageTemplateD2Ev
alita.node:_ZN5alita21UpdateContactResponse10SharedCtorEv
alita.node:_ZN5alita21UpdateContactResponse10SharedDtorEv
alita.node:_ZN5alita21UpdateContactResponse16default_instanceEv
alita.node:_ZN5alita21UpdateContactResponse17default_instance_E
alita.node:_ZN5alita21UpdateContactResponse18kErrMsgFieldNumberE
alita.node:_ZN5alita21UpdateContactResponse18kTaskIdFieldNumberE
alita.node:_ZN5alita21UpdateContactResponse19kErrCodeFieldNumberE
alita.node:_ZN5alita21UpdateContactResponse21CheckTypeAndMergeFromERKN7tencent8protobuf11MessageLiteE
alita.node:_ZN5alita21UpdateContactResponse21InitAsDefaultInstanceEv
alita.node:_ZN5alita21UpdateContactResponse27MergePartialFromCodedStreamEPN7tencent8protobuf2io16CodedInputStreamE
alita.node:_ZN5alita21UpdateContactResponse4SwapEPS0_
alita.node:_ZN5alita21UpdateContactResponse5ClearEv
alita.node:_ZN5alita21UpdateContactResponse8CopyFromERKS0_
alita.node:_ZN5alita21UpdateContactResponse9MergeFromERKS0_
alita.node:_ZN5alita21UpdateContactResponseC1ERKS0_
alita.node:_ZN5alita21UpdateContactResponseC1Ev
alita.node:_ZN5alita21UpdateContactResponseC2ERKS0_
alita.node:_ZN5alita21UpdateContactResponseC2Ev
alita.node:_ZN5alita21UpdateContactResponseD0Ev
alita.node:_ZN5alita21UpdateContactResponseD1Ev
alita.node:_ZN5alita21UpdateContactResponseD2Ev
alita.node:_ZN5alita21WxcodepayBindUserInfo10SharedCtorEv
alita.node:_ZN5alita21WxcodepayBindUserInfo10SharedDtorEv
alita.node:_ZN5alita21WxcodepayBindUserInfo16default_instanceEv
alita.node:_ZN5alita21WxcodepayBindUserInfo17default_instance_E
alita.node:_ZN5alita21WxcodepayBindUserInfo20kNicknameFieldNumberE
alita.node:_ZN5alita21WxcodepayBindUserInfo20kUsernameFieldNumberE
alita.node:_ZN5alita21WxcodepayBindUserInfo21CheckTypeAndMergeFromERKN7tencent8protobuf11MessageLiteE
alita.node:_ZN5alita21WxcodepayBindUserInfo21InitAsDefaultInstanceEv
alita.node:_ZN5alita21WxcodepayBindUserInfo27MergePartialFromCodedStreamEPN7tencent8protobuf2io16CodedInputStreamE
alita.node:_ZN5alita21WxcodepayBindUserInfo4SwapEPS0_
alita.node:_ZN5alita21WxcodepayBindUserInfo5ClearEv
alita.node:_ZN5alita21WxcodepayBindUserInfo8CopyFromERKS0_
alita.node:_ZN5alita21WxcodepayBindUserInfo9MergeFromERKS0_
alita.node:_ZN5alita21WxcodepayBindUserInfoC1ERKS0_
alita.node:_ZN5alita21WxcodepayBindUserInfoC1Ev
alita.node:_ZN5alita21WxcodepayBindUserInfoC2ERKS0_
alita.node:_ZN5alita21WxcodepayBindUserInfoC2Ev
alita.node:_ZN5alita21WxcodepayBindUserInfoD0Ev
alita.node:_ZN5alita21WxcodepayBindUserInfoD1Ev
alita.node:_ZN5alita21WxcodepayBindUserInfoD2Ev
alita.node:_ZN5alita22AlitaEventType_IsValidEi
alita.node:_ZN5alita22AppMessageType_IsValidEi
alita.node:_ZN5alita22BindStateChangeRequest10SharedCtorEv
alita.node:_ZN5alita22BindStateChangeRequest10SharedDtorEv
alita.node:_ZN5alita22BindStateChangeRequest16default_instanceEv
alita.node:_ZN5alita22BindStateChangeRequest17default_instance_E
alita.node:_ZN5alita22BindStateChangeRequest17kStateFieldNumberE
alita.node:_ZN5alita22BindStateChangeRequest19kErrCodeFieldNumberE
alita.node:_ZN5alita22BindStateChangeRequest21CheckTypeAndMergeFromERKN7tencent8protobuf11MessageLiteE
alita.node:_ZN5alita22BindStateChangeRequest21InitAsDefaultInstanceEv
alita.node:_ZN5alita22BindStateChangeRequest27MergePartialFromCodedStreamEPN7tencent8protobuf2io16CodedInputStreamE
alita.node:_ZN5alita22BindStateChangeRequest4SwapEPS0_
alita.node:_ZN5alita22BindStateChangeRequest5ClearEv
alita.node:_ZN5alita22BindStateChangeRequest8CopyFromERKS0_
alita.node:_ZN5alita22BindStateChangeRequest9MergeFromERKS0_
alita.node:_ZN5alita22BindStateChangeRequestC1ERKS0_
alita.node:_ZN5alita22BindStateChangeRequestC1Ev
alita.node:_ZN5alita22BindStateChangeRequestC2ERKS0_
alita.node:_ZN5alita22BindStateChangeRequestC2Ev
alita.node:_ZN5alita22BindStateChangeRequestD0Ev
alita.node:_ZN5alita22BindStateChangeRequestD1Ev
alita.node:_ZN5alita22BindStateChangeRequestD2Ev
alita.node:_ZN5alita22CreateChatRoomResponse10SharedCtorEv
alita.node:_ZN5alita22CreateChatRoomResponse10SharedDtorEv
alita.node:_ZN5alita22CreateChatRoomResponse16default_instanceEv
alita.node:_ZN5alita22CreateChatRoomResponse17default_instance_E
alita.node:_ZN5alita22CreateChatRoomResponse18kErrMsgFieldNumberE
alita.node:_ZN5alita22CreateChatRoomResponse18kTaskIdFieldNumberE
alita.node:_ZN5alita22CreateChatRoomResponse19kErrCodeFieldNumberE
alita.node:_ZN5alita22CreateChatRoomResponse21CheckTypeAndMergeFromERKN7tencent8protobuf11MessageLiteE
alita.node:_ZN5alita22CreateChatRoomResponse21InitAsDefaultInstanceEv
alita.node:_ZN5alita22CreateChatRoomResponse24kRoomUsernameFieldNumberE
alita.node:_ZN5alita22CreateChatRoomResponse27MergePartialFromCodedStreamEPN7tencent8protobuf2io16CodedInputStreamE
alita.node:_ZN5alita22CreateChatRoomResponse31kUnverifyMembersListFieldNumberE
alita.node:_ZN5alita22CreateChatRoomResponse4SwapEPS0_
alita.node:_ZN5alita22CreateChatRoomResponse5ClearEv
alita.node:_ZN5alita22CreateChatRoomResponse8CopyFromERKS0_
alita.node:_ZN5alita22CreateChatRoomResponse9MergeFromERKS0_
alita.node:_ZN5alita22CreateChatRoomResponseC1ERKS0_
alita.node:_ZN5alita22CreateChatRoomResponseC1Ev
alita.node:_ZN5alita22CreateChatRoomResponseC2ERKS0_
alita.node:_ZN5alita22CreateChatRoomResponseC2Ev
alita.node:_ZN5alita22CreateChatRoomResponseD0Ev
alita.node:_ZN5alita22CreateChatRoomResponseD1Ev
alita.node:_ZN5alita22CreateChatRoomResponseD2Ev
alita.node:_ZN5alita22CustomMenuType_IsValidEi
alita.node:_ZN5alita22DeleteMessage1Response10SharedCtorEv
alita.node:_ZN5alita22DeleteMessage1Response10SharedDtorEv
alita.node:_ZN5alita22DeleteMessage1Response16default_instanceEv
alita.node:_ZN5alita22DeleteMessage1Response17default_instance_E
alita.node:_ZN5alita22DeleteMessage1Response19kErrCodeFieldNumberE
alita.node:_ZN5alita22DeleteMessage1Response21CheckTypeAndMergeFromERKN7tencent8protobuf11MessageLiteE
alita.node:_ZN5alita22DeleteMessage1Response21InitAsDefaultInstanceEv
alita.node:_ZN5alita22DeleteMessage1Response27MergePartialFromCodedStreamEPN7tencent8protobuf2io16CodedInputStreamE
alita.node:_ZN5alita22DeleteMessage1Response4SwapEPS0_
alita.node:_ZN5alita22DeleteMessage1Response5ClearEv
alita.node:_ZN5alita22DeleteMessage1Response8CopyFromERKS0_
alita.node:_ZN5alita22DeleteMessage1Response9MergeFromERKS0_
alita.node:_ZN5alita22DeleteMessage1ResponseC1ERKS0_
alita.node:_ZN5alita22DeleteMessage1ResponseC1Ev
alita.node:_ZN5alita22DeleteMessage1ResponseC2ERKS0_
alita.node:_ZN5alita22DeleteMessage1ResponseC2Ev
alita.node:_ZN5alita22DeleteMessage1ResponseD0Ev
alita.node:_ZN5alita22DeleteMessage1ResponseD1Ev
alita.node:_ZN5alita22DeleteMessage1ResponseD2Ev
alita.node:_ZN5alita22DownloadAvatarProgress10SharedCtorEv
alita.node:_ZN5alita22DownloadAvatarProgress10SharedDtorEv
alita.node:_ZN5alita22DownloadAvatarProgress16default_instanceEv
alita.node:_ZN5alita22DownloadAvatarProgress16kTypeFieldNumberE
alita.node:_ZN5alita22DownloadAvatarProgress17default_instance_E
alita.node:_ZN5alita22DownloadAvatarProgress17kTotalFieldNumberE
alita.node:_ZN5alita22DownloadAvatarProgress18kTaskIdFieldNumberE
alita.node:_ZN5alita22DownloadAvatarProgress19kCurrentFieldNumberE
alita.node:_ZN5alita22DownloadAvatarProgress20kUsernameFieldNumberE
alita.node:_ZN5alita22DownloadAvatarProgress21CheckTypeAndMergeFromERKN7tencent8protobuf11MessageLiteE
alita.node:_ZN5alita22DownloadAvatarProgress21InitAsDefaultInstanceEv
alita.node:_ZN5alita22DownloadAvatarProgress27MergePartialFromCodedStreamEPN7tencent8protobuf2io16CodedInputStreamE
alita.node:_ZN5alita22DownloadAvatarProgress4SwapEPS0_
alita.node:_ZN5alita22DownloadAvatarProgress5ClearEv
alita.node:_ZN5alita22DownloadAvatarProgress8CopyFromERKS0_
alita.node:_ZN5alita22DownloadAvatarProgress9MergeFromERKS0_
alita.node:_ZN5alita22DownloadAvatarProgressC1ERKS0_
alita.node:_ZN5alita22DownloadAvatarProgressC1Ev
alita.node:_ZN5alita22DownloadAvatarProgressC2ERKS0_
alita.node:_ZN5alita22DownloadAvatarProgressC2Ev
alita.node:_ZN5alita22DownloadAvatarProgressD0Ev
alita.node:_ZN5alita22DownloadAvatarProgressD1Ev
alita.node:_ZN5alita22DownloadAvatarProgressD2Ev
alita.node:_ZN5alita22DownloadAvatarResponse10SharedCtorEv
alita.node:_ZN5alita22DownloadAvatarResponse10SharedDtorEv
alita.node:_ZN5alita22DownloadAvatarResponse16default_instanceEv
alita.node:_ZN5alita22DownloadAvatarResponse16kTypeFieldNumberE
alita.node:_ZN5alita22DownloadAvatarResponse17default_instance_E
alita.node:_ZN5alita22DownloadAvatarResponse18kErrMsgFieldNumberE
alita.node:_ZN5alita22DownloadAvatarResponse18kTaskIdFieldNumberE
alita.node:_ZN5alita22DownloadAvatarResponse19kErrCodeFieldNumberE
alita.node:_ZN5alita22DownloadAvatarResponse20kUsernameFieldNumberE
alita.node:_ZN5alita22DownloadAvatarResponse21CheckTypeAndMergeFromERKN7tencent8protobuf11MessageLiteE
alita.node:_ZN5alita22DownloadAvatarResponse21InitAsDefaultInstanceEv
alita.node:_ZN5alita22DownloadAvatarResponse22kAvatarPathFieldNumberE
alita.node:_ZN5alita22DownloadAvatarResponse27MergePartialFromCodedStreamEPN7tencent8protobuf2io16CodedInputStreamE
alita.node:_ZN5alita22DownloadAvatarResponse4SwapEPS0_
alita.node:_ZN5alita22DownloadAvatarResponse5ClearEv
alita.node:_ZN5alita22DownloadAvatarResponse8CopyFromERKS0_
alita.node:_ZN5alita22DownloadAvatarResponse9MergeFromERKS0_
alita.node:_ZN5alita22DownloadAvatarResponseC1ERKS0_
alita.node:_ZN5alita22DownloadAvatarResponseC1Ev
alita.node:_ZN5alita22DownloadAvatarResponseC2ERKS0_
alita.node:_ZN5alita22DownloadAvatarResponseC2Ev
alita.node:_ZN5alita22DownloadAvatarResponseD0Ev
alita.node:_ZN5alita22DownloadAvatarResponseD1Ev
alita.node:_ZN5alita22DownloadAvatarResponseD2Ev
alita.node:_ZN5alita22EmojiOperationResponse10SharedCtorEv
alita.node:_ZN5alita22EmojiOperationResponse10SharedDtorEv
alita.node:_ZN5alita22EmojiOperationResponse16default_instanceEv
alita.node:_ZN5alita22EmojiOperationResponse17default_instance_E
alita.node:_ZN5alita22EmojiOperationResponse18kErrMsgFieldNumberE
alita.node:_ZN5alita22EmojiOperationResponse18kTaskIdFieldNumberE
alita.node:_ZN5alita22EmojiOperationResponse19kErrCodeFieldNumberE
alita.node:_ZN5alita22EmojiOperationResponse21CheckTypeAndMergeFromERKN7tencent8protobuf11MessageLiteE
alita.node:_ZN5alita22EmojiOperationResponse21InitAsDefaultInstanceEv
alita.node:_ZN5alita22EmojiOperationResponse27MergePartialFromCodedStreamEPN7tencent8protobuf2io16CodedInputStreamE
alita.node:_ZN5alita22EmojiOperationResponse4SwapEPS0_
alita.node:_ZN5alita22EmojiOperationResponse5ClearEv
alita.node:_ZN5alita22EmojiOperationResponse8CopyFromERKS0_
alita.node:_ZN5alita22EmojiOperationResponse9MergeFromERKS0_
alita.node:_ZN5alita22EmojiOperationResponseC1ERKS0_
alita.node:_ZN5alita22EmojiOperationResponseC1Ev
alita.node:_ZN5alita22EmojiOperationResponseC2ERKS0_
alita.node:_ZN5alita22EmojiOperationResponseC2Ev
alita.node:_ZN5alita22EmojiOperationResponseD0Ev
alita.node:_ZN5alita22EmojiOperationResponseD1Ev
alita.node:_ZN5alita22EmojiOperationResponseD2Ev
alita.node:_ZN5alita22EmojiPanelType_IsValidEi
alita.node:_ZN5alita22ForwardMessageResponse10SharedCtorEv
alita.node:_ZN5alita22ForwardMessageResponse10SharedDtorEv
alita.node:_ZN5alita22ForwardMessageResponse16default_instanceEv
alita.node:_ZN5alita22ForwardMessageResponse17default_instance_E
alita.node:_ZN5alita22ForwardMessageResponse18kErrMsgFieldNumberE
alita.node:_ZN5alita22ForwardMessageResponse18kTaskIdFieldNumberE
alita.node:_ZN5alita22ForwardMessageResponse19kErrCodeFieldNumberE
alita.node:_ZN5alita22ForwardMessageResponse21CheckTypeAndMergeFromERKN7tencent8protobuf11MessageLiteE
alita.node:_ZN5alita22ForwardMessageResponse21InitAsDefaultInstanceEv
alita.node:_ZN5alita22ForwardMessageResponse27MergePartialFromCodedStreamEPN7tencent8protobuf2io16CodedInputStreamE
alita.node:_ZN5alita22ForwardMessageResponse4SwapEPS0_
alita.node:_ZN5alita22ForwardMessageResponse5ClearEv
alita.node:_ZN5alita22ForwardMessageResponse8CopyFromERKS0_
alita.node:_ZN5alita22ForwardMessageResponse9MergeFromERKS0_
alita.node:_ZN5alita22ForwardMessageResponseC1ERKS0_
alita.node:_ZN5alita22ForwardMessageResponseC1Ev
alita.node:_ZN5alita22ForwardMessageResponseC2ERKS0_
alita.node:_ZN5alita22ForwardMessageResponseC2Ev
alita.node:_ZN5alita22ForwardMessageResponseD0Ev
alita.node:_ZN5alita22ForwardMessageResponseD1Ev
alita.node:_ZN5alita22ForwardMessageResponseD2Ev
alita.node:_ZN5alita22GetBalanceInfoResponse10SharedCtorEv
alita.node:_ZN5alita22GetBalanceInfoResponse10SharedDtorEv
alita.node:_ZN5alita22GetBalanceInfoResponse16default_instanceEv
alita.node:_ZN5alita22GetBalanceInfoResponse17default_instance_E
alita.node:_ZN5alita22GetBalanceInfoResponse21CheckTypeAndMergeFromERKN7tencent8protobuf11MessageLiteE
alita.node:_ZN5alita22GetBalanceInfoResponse21InitAsDefaultInstanceEv
alita.node:_ZN5alita22GetBalanceInfoResponse23kBalanceInfoFieldNumberE
alita.node:_ZN5alita22GetBalanceInfoResponse27MergePartialFromCodedStreamEPN7tencent8protobuf2io16CodedInputStreamE
alita.node:_ZN5alita22GetBalanceInfoResponse4SwapEPS0_
alita.node:_ZN5alita22GetBalanceInfoResponse5ClearEv
alita.node:_ZN5alita22GetBalanceInfoResponse8CopyFromERKS0_
alita.node:_ZN5alita22GetBalanceInfoResponse9MergeFromERKS0_
alita.node:_ZN5alita22GetBalanceInfoResponseC1ERKS0_
alita.node:_ZN5alita22GetBalanceInfoResponseC1Ev
alita.node:_ZN5alita22GetBalanceInfoResponseC2ERKS0_
alita.node:_ZN5alita22GetBalanceInfoResponseC2Ev
alita.node:_ZN5alita22GetBalanceInfoResponseD0Ev
alita.node:_ZN5alita22GetBalanceInfoResponseD1Ev
alita.node:_ZN5alita22GetBalanceInfoResponseD2Ev
alita.node:_ZN5alita22GetBindingCodeResponse10SharedCtorEv
alita.node:_ZN5alita22GetBindingCodeResponse10SharedDtorEv
alita.node:_ZN5alita22GetBindingCodeResponse16default_instanceEv
alita.node:_ZN5alita22GetBindingCodeResponse17default_instance_E
alita.node:_ZN5alita22GetBindingCodeResponse20kBindCodeFieldNumberE
alita.node:_ZN5alita22GetBindingCodeResponse21CheckTypeAndMergeFromERKN7tencent8protobuf11MessageLiteE
alita.node:_ZN5alita22GetBindingCodeResponse21InitAsDefaultInstanceEv
alita.node:_ZN5alita22GetBindingCodeResponse27MergePartialFromCodedStreamEPN7tencent8protobuf2io16CodedInputStreamE
alita.node:_ZN5alita22GetBindingCodeResponse4SwapEPS0_
alita.node:_ZN5alita22GetBindingCodeResponse5ClearEv
alita.node:_ZN5alita22GetBindingCodeResponse8CopyFromERKS0_
alita.node:_ZN5alita22GetBindingCodeResponse9MergeFromERKS0_
alita.node:_ZN5alita22GetBindingCodeResponseC1ERKS0_
alita.node:_ZN5alita22GetBindingCodeResponseC1Ev
alita.node:_ZN5alita22GetBindingCodeResponseC2ERKS0_
alita.node:_ZN5alita22GetBindingCodeResponseC2Ev
alita.node:_ZN5alita22GetBindingCodeResponseD0Ev
alita.node:_ZN5alita22GetBindingCodeResponseD1Ev
alita.node:_ZN5alita22GetBindingCodeResponseD2Ev
alita.node:_ZN5alita22GetContactListResponse10SharedCtorEv
alita.node:_ZN5alita22GetContactListResponse10SharedDtorEv
alita.node:_ZN5alita22GetContactListResponse16default_instanceEv
alita.node:_ZN5alita22GetContactListResponse17default_instance_E
alita.node:_ZN5alita22GetContactListResponse21CheckTypeAndMergeFromERKN7tencent8protobuf11MessageLiteE
alita.node:_ZN5alita22GetContactListResponse21InitAsDefaultInstanceEv
alita.node:_ZN5alita22GetContactListResponse23kContactListFieldNumberE
alita.node:_ZN5alita22GetContactListResponse27MergePartialFromCodedStreamEPN7tencent8protobuf2io16CodedInputStreamE
alita.node:_ZN5alita22GetContactListResponse4SwapEPS0_
alita.node:_ZN5alita22GetContactListResponse5ClearEv
alita.node:_ZN5alita22GetContactListResponse8CopyFromERKS0_
alita.node:_ZN5alita22GetContactListResponse9MergeFromERKS0_
alita.node:_ZN5alita22GetContactListResponseC1ERKS0_
alita.node:_ZN5alita22GetContactListResponseC1Ev
alita.node:_ZN5alita22GetContactListResponseC2ERKS0_
alita.node:_ZN5alita22GetContactListResponseC2Ev
alita.node:_ZN5alita22GetContactListResponseD0Ev
alita.node:_ZN5alita22GetContactListResponseD1Ev
alita.node:_ZN5alita22GetContactListResponseD2Ev
alita.node:_ZN5alita22GetConversationRequest10SharedCtorEv
alita.node:_ZN5alita22GetConversationRequest10SharedDtorEv
alita.node:_ZN5alita22GetConversationRequest16default_instanceEv
alita.node:_ZN5alita22GetConversationRequest17default_instance_E
alita.node:_ZN5alita22GetConversationRequest20kUsernameFieldNumberE
alita.node:_ZN5alita22GetConversationRequest21CheckTypeAndMergeFromERKN7tencent8protobuf11MessageLiteE
alita.node:_ZN5alita22GetConversationRequest21InitAsDefaultInstanceEv
alita.node:_ZN5alita22GetConversationRequest27MergePartialFromCodedStreamEPN7tencent8protobuf2io16CodedInputStreamE
alita.node:_ZN5alita22GetConversationRequest4SwapEPS0_
alita.node:_ZN5alita22GetConversationRequest5ClearEv
alita.node:_ZN5alita22GetConversationRequest8CopyFromERKS0_
alita.node:_ZN5alita22GetConversationRequest9MergeFromERKS0_
alita.node:_ZN5alita22GetConversationRequestC1ERKS0_
alita.node:_ZN5alita22GetConversationRequestC1Ev
alita.node:_ZN5alita22GetConversationRequestC2ERKS0_
alita.node:_ZN5alita22GetConversationRequestC2Ev
alita.node:_ZN5alita22GetConversationRequestD0Ev
alita.node:_ZN5alita22GetConversationRequestD1Ev
alita.node:_ZN5alita22GetConversationRequestD2Ev
alita.node:_ZN5alita22GetExtSpamInfoResponse10SharedCtorEv
alita.node:_ZN5alita22GetExtSpamInfoResponse10SharedDtorEv
alita.node:_ZN5alita22GetExtSpamInfoResponse16default_instanceEv
alita.node:_ZN5alita22GetExtSpamInfoResponse17default_instance_E
alita.node:_ZN5alita22GetExtSpamInfoResponse21CheckTypeAndMergeFromERKN7tencent8protobuf11MessageLiteE
alita.node:_ZN5alita22GetExtSpamInfoResponse21InitAsDefaultInstanceEv
alita.node:_ZN5alita22GetExtSpamInfoResponse23kExtSpamInfoFieldNumberE
alita.node:_ZN5alita22GetExtSpamInfoResponse27MergePartialFromCodedStreamEPN7tencent8protobuf2io16CodedInputStreamE
alita.node:_ZN5alita22GetExtSpamInfoResponse4SwapEPS0_
alita.node:_ZN5alita22GetExtSpamInfoResponse5ClearEv
alita.node:_ZN5alita22GetExtSpamInfoResponse8CopyFromERKS0_
alita.node:_ZN5alita22GetExtSpamInfoResponse9MergeFromERKS0_
alita.node:_ZN5alita22GetExtSpamInfoResponseC1ERKS0_
alita.node:_ZN5alita22GetExtSpamInfoResponseC1Ev
alita.node:_ZN5alita22GetExtSpamInfoResponseC2ERKS0_
alita.node:_ZN5alita22GetExtSpamInfoResponseC2Ev
alita.node:_ZN5alita22GetExtSpamInfoResponseD0Ev
alita.node:_ZN5alita22GetExtSpamInfoResponseD1Ev
alita.node:_ZN5alita22GetExtSpamInfoResponseD2Ev
alita.node:_ZN5alita22GetLoginQrCodeResponse10SharedCtorEv
alita.node:_ZN5alita22GetLoginQrCodeResponse10SharedDtorEv
alita.node:_ZN5alita22GetLoginQrCodeResponse16default_instanceEv
alita.node:_ZN5alita22GetLoginQrCodeResponse17default_instance_E
alita.node:_ZN5alita22GetLoginQrCodeResponse18kErrMsgFieldNumberE
alita.node:_ZN5alita22GetLoginQrCodeResponse18kTaskIdFieldNumberE
alita.node:_ZN5alita22GetLoginQrCodeResponse19kErrCodeFieldNumberE
alita.node:_ZN5alita22GetLoginQrCodeResponse21CheckTypeAndMergeFromERKN7tencent8protobuf11MessageLiteE
alita.node:_ZN5alita22GetLoginQrCodeResponse21InitAsDefaultInstanceEv
alita.node:_ZN5alita22GetLoginQrCodeResponse22kQrcodePathFieldNumberE
alita.node:_ZN5alita22GetLoginQrCodeResponse25kQrcodeContentFieldNumberE
alita.node:_ZN5alita22GetLoginQrCodeResponse27MergePartialFromCodedStreamEPN7tencent8protobuf2io16CodedInputStreamE
alita.node:_ZN5alita22GetLoginQrCodeResponse4SwapEPS0_
alita.node:_ZN5alita22GetLoginQrCodeResponse5ClearEv
alita.node:_ZN5alita22GetLoginQrCodeResponse8CopyFromERKS0_
alita.node:_ZN5alita22GetLoginQrCodeResponse9MergeFromERKS0_
alita.node:_ZN5alita22GetLoginQrCodeResponseC1ERKS0_
alita.node:_ZN5alita22GetLoginQrCodeResponseC1Ev
alita.node:_ZN5alita22GetLoginQrCodeResponseC2ERKS0_
alita.node:_ZN5alita22GetLoginQrCodeResponseC2Ev
alita.node:_ZN5alita22GetLoginQrCodeResponseD0Ev
alita.node:_ZN5alita22GetLoginQrCodeResponseD1Ev
alita.node:_ZN5alita22GetLoginQrCodeResponseD2Ev
alita.node:_ZN5alita22GetLoginSmsCodeRequest10SharedCtorEv
alita.node:_ZN5alita22GetLoginSmsCodeRequest10SharedDtorEv
alita.node:_ZN5alita22GetLoginSmsCodeRequest16default_instanceEv
alita.node:_ZN5alita22GetLoginSmsCodeRequest17default_instance_E
alita.node:_ZN5alita22GetLoginSmsCodeRequest18kTaskIdFieldNumberE
alita.node:_ZN5alita22GetLoginSmsCodeRequest21CheckTypeAndMergeFromERKN7tencent8protobuf11MessageLiteE
alita.node:_ZN5alita22GetLoginSmsCodeRequest21InitAsDefaultInstanceEv
alita.node:_ZN5alita22GetLoginSmsCodeRequest23kPhoneNumberFieldNumberE
alita.node:_ZN5alita22GetLoginSmsCodeRequest27MergePartialFromCodedStreamEPN7tencent8protobuf2io16CodedInputStreamE
alita.node:_ZN5alita22GetLoginSmsCodeRequest4SwapEPS0_
alita.node:_ZN5alita22GetLoginSmsCodeRequest5ClearEv
alita.node:_ZN5alita22GetLoginSmsCodeRequest8CopyFromERKS0_
alita.node:_ZN5alita22GetLoginSmsCodeRequest9MergeFromERKS0_
alita.node:_ZN5alita22GetLoginSmsCodeRequestC1ERKS0_
alita.node:_ZN5alita22GetLoginSmsCodeRequestC1Ev
alita.node:_ZN5alita22GetLoginSmsCodeRequestC2ERKS0_
alita.node:_ZN5alita22GetLoginSmsCodeRequestC2Ev
alita.node:_ZN5alita22GetLoginSmsCodeRequestD0Ev
alita.node:_ZN5alita22GetLoginSmsCodeRequestD1Ev
alita.node:_ZN5alita22GetLoginSmsCodeRequestD2Ev
alita.node:_ZN5alita22GetMessageList1Request10SharedCtorEv
alita.node:_ZN5alita22GetMessageList1Request10SharedDtorEv
alita.node:_ZN5alita22GetMessageList1Request16default_instanceEv
alita.node:_ZN5alita22GetMessageList1Request17default_instance_E
alita.node:_ZN5alita22GetMessageList1Request18kOffsetFieldNumberE
alita.node:_ZN5alita22GetMessageList1Request19kMsgFlagFieldNumberE
alita.node:_ZN5alita22GetMessageList1Request19kMsgTypeFieldNumberE
alita.node:_ZN5alita22GetMessageList1Request20kUsernameFieldNumberE
alita.node:_ZN5alita22GetMessageList1Request21CheckTypeAndMergeFromERKN7tencent8protobuf11MessageLiteE
alita.node:_ZN5alita22GetMessageList1Request21InitAsDefaultInstanceEv
alita.node:_ZN5alita22GetMessageList1Request21kMsgStatusFieldNumberE
alita.node:_ZN5alita22GetMessageList1Request21kOrderTypeFieldNumberE
alita.node:_ZN5alita22GetMessageList1Request22kCreateTimeFieldNumberE
alita.node:_ZN5alita22GetMessageList1Request22kStartMsgIdFieldNumberE
alita.node:_ZN5alita22GetMessageList1Request27MergePartialFromCodedStreamEPN7tencent8protobuf2io16CodedInputStreamE
alita.node:_ZN5alita22GetMessageList1Request4SwapEPS0_
alita.node:_ZN5alita22GetMessageList1Request5ClearEv
alita.node:_ZN5alita22GetMessageList1Request8CopyFromERKS0_
alita.node:_ZN5alita22GetMessageList1Request9MergeFromERKS0_
alita.node:_ZN5alita22GetMessageList1RequestC1ERKS0_
alita.node:_ZN5alita22GetMessageList1RequestC1Ev
alita.node:_ZN5alita22GetMessageList1RequestC2ERKS0_
alita.node:_ZN5alita22GetMessageList1RequestC2Ev
alita.node:_ZN5alita22GetMessageList1RequestD0Ev
alita.node:_ZN5alita22GetMessageList1RequestD1Ev
alita.node:_ZN5alita22GetMessageList1RequestD2Ev
alita.node:_ZN5alita22GetMessageListResponse10SharedCtorEv
alita.node:_ZN5alita22GetMessageListResponse10SharedDtorEv
alita.node:_ZN5alita22GetMessageListResponse16default_instanceEv
alita.node:_ZN5alita22GetMessageListResponse17default_instance_E
alita.node:_ZN5alita22GetMessageListResponse19kMsgListFieldNumberE
alita.node:_ZN5alita22GetMessageListResponse21CheckTypeAndMergeFromERKN7tencent8protobuf11MessageLiteE
alita.node:_ZN5alita22GetMessageListResponse21InitAsDefaultInstanceEv
alita.node:_ZN5alita22GetMessageListResponse27MergePartialFromCodedStreamEPN7tencent8protobuf2io16CodedInputStreamE
alita.node:_ZN5alita22GetMessageListResponse4SwapEPS0_
alita.node:_ZN5alita22GetMessageListResponse5ClearEv
alita.node:_ZN5alita22GetMessageListResponse8CopyFromERKS0_
alita.node:_ZN5alita22GetMessageListResponse9MergeFromERKS0_
alita.node:_ZN5alita22GetMessageListResponseC1ERKS0_
alita.node:_ZN5alita22GetMessageListResponseC1Ev
alita.node:_ZN5alita22GetMessageListResponseC2ERKS0_
alita.node:_ZN5alita22GetMessageListResponseC2Ev
alita.node:_ZN5alita22GetMessageListResponseD0Ev
alita.node:_ZN5alita22GetMessageListResponseD1Ev
alita.node:_ZN5alita22GetMessageListResponseD2Ev
alita.node:_ZN5alita22LocationMessageContent10SharedCtorEv
alita.node:_ZN5alita22LocationMessageContent10SharedDtorEv
alita.node:_ZN5alita22LocationMessageContent13kXFieldNumberE
alita.node:_ZN5alita22LocationMessageContent13kYFieldNumberE
alita.node:_ZN5alita22LocationMessageContent16default_instanceEv
alita.node:_ZN5alita22LocationMessageContent17default_instance_E
alita.node:_ZN5alita22LocationMessageContent17kLabelFieldNumberE
alita.node:_ZN5alita22LocationMessageContent17kPoiIdFieldNumberE
alita.node:_ZN5alita22LocationMessageContent17kScaleFieldNumberE
alita.node:_ZN5alita22LocationMessageContent19kMapTypeFieldNumberE
alita.node:_ZN5alita22LocationMessageContent19kPoiNameFieldNumberE
alita.node:_ZN5alita22LocationMessageContent21CheckTypeAndMergeFromERKN7tencent8protobuf11MessageLiteE
alita.node:_ZN5alita22LocationMessageContent21InitAsDefaultInstanceEv
alita.node:_ZN5alita22LocationMessageContent27MergePartialFromCodedStreamEPN7tencent8protobuf2io16CodedInputStreamE
alita.node:_ZN5alita22LocationMessageContent4SwapEPS0_
alita.node:_ZN5alita22LocationMessageContent5ClearEv
alita.node:_ZN5alita22LocationMessageContent8CopyFromERKS0_
alita.node:_ZN5alita22LocationMessageContent9MergeFromERKS0_
alita.node:_ZN5alita22LocationMessageContentC1ERKS0_
alita.node:_ZN5alita22LocationMessageContentC1Ev
alita.node:_ZN5alita22LocationMessageContentC2ERKS0_
alita.node:_ZN5alita22LocationMessageContentC2Ev
alita.node:_ZN5alita22LocationMessageContentD0Ev
alita.node:_ZN5alita22LocationMessageContentD1Ev
alita.node:_ZN5alita22LocationMessageContentD2Ev
alita.node:_ZN5alita22LoginAttrChangeRequest10SharedCtorEv
alita.node:_ZN5alita22LoginAttrChangeRequest10SharedDtorEv
alita.node:_ZN5alita22LoginAttrChangeRequest16default_instanceEv
alita.node:_ZN5alita22LoginAttrChangeRequest16kAttrFieldNumberE
alita.node:_ZN5alita22LoginAttrChangeRequest17default_instance_E
alita.node:_ZN5alita22LoginAttrChangeRequest21CheckTypeAndMergeFromERKN7tencent8protobuf11MessageLiteE
alita.node:_ZN5alita22LoginAttrChangeRequest21InitAsDefaultInstanceEv
alita.node:_ZN5alita22LoginAttrChangeRequest27MergePartialFromCodedStreamEPN7tencent8protobuf2io16CodedInputStreamE
alita.node:_ZN5alita22LoginAttrChangeRequest4SwapEPS0_
alita.node:_ZN5alita22LoginAttrChangeRequest5ClearEv
alita.node:_ZN5alita22LoginAttrChangeRequest8CopyFromERKS0_
alita.node:_ZN5alita22LoginAttrChangeRequest9MergeFromERKS0_
alita.node:_ZN5alita22LoginAttrChangeRequestC1ERKS0_
alita.node:_ZN5alita22LoginAttrChangeRequestC1Ev
alita.node:_ZN5alita22LoginAttrChangeRequestC2ERKS0_
alita.node:_ZN5alita22LoginAttrChangeRequestC2Ev
alita.node:_ZN5alita22LoginAttrChangeRequestD0Ev
alita.node:_ZN5alita22LoginAttrChangeRequestD1Ev
alita.node:_ZN5alita22LoginAttrChangeRequestD2Ev
alita.node:_ZN5alita22LoginByPasswordRequest10SharedCtorEv
alita.node:_ZN5alita22LoginByPasswordRequest10SharedDtorEv
alita.node:_ZN5alita22LoginByPasswordRequest16default_instanceEv
alita.node:_ZN5alita22LoginByPasswordRequest17default_instance_E
alita.node:_ZN5alita22LoginByPasswordRequest18kTaskIdFieldNumberE
alita.node:_ZN5alita22LoginByPasswordRequest20kPasswordFieldNumberE
alita.node:_ZN5alita22LoginByPasswordRequest20kUsernameFieldNumberE
alita.node:_ZN5alita22LoginByPasswordRequest21CheckTypeAndMergeFromERKN7tencent8protobuf11MessageLiteE
alita.node:_ZN5alita22LoginByPasswordRequest21InitAsDefaultInstanceEv
alita.node:_ZN5alita22LoginByPasswordRequest27MergePartialFromCodedStreamEPN7tencent8protobuf2io16CodedInputStreamE
alita.node:_ZN5alita22LoginByPasswordRequest4SwapEPS0_
alita.node:_ZN5alita22LoginByPasswordRequest5ClearEv
alita.node:_ZN5alita22LoginByPasswordRequest8CopyFromERKS0_
alita.node:_ZN5alita22LoginByPasswordRequest9MergeFromERKS0_
alita.node:_ZN5alita22LoginByPasswordRequestC1ERKS0_
alita.node:_ZN5alita22LoginByPasswordRequestC1Ev
alita.node:_ZN5alita22LoginByPasswordRequestC2ERKS0_
alita.node:_ZN5alita22LoginByPasswordRequestC2Ev
alita.node:_ZN5alita22LoginByPasswordRequestD0Ev
alita.node:_ZN5alita22LoginByPasswordRequestD1Ev
alita.node:_ZN5alita22LoginByPasswordRequestD2Ev
alita.node:_ZN5alita22LoginBySmsCodeResponse10SharedCtorEv
alita.node:_ZN5alita22LoginBySmsCodeResponse10SharedDtorEv
alita.node:_ZN5alita22LoginBySmsCodeResponse16default_instanceEv
alita.node:_ZN5alita22LoginBySmsCodeResponse17default_instance_E
alita.node:_ZN5alita22LoginBySmsCodeResponse18kTaskIdFieldNumberE
alita.node:_ZN5alita22LoginBySmsCodeResponse21CheckTypeAndMergeFromERKN7tencent8protobuf11MessageLiteE
alita.node:_ZN5alita22LoginBySmsCodeResponse21InitAsDefaultInstanceEv
alita.node:_ZN5alita22LoginBySmsCodeResponse22kUnifyErrorFieldNumberE
alita.node:_ZN5alita22LoginBySmsCodeResponse27MergePartialFromCodedStreamEPN7tencent8protobuf2io16CodedInputStreamE
alita.node:_ZN5alita22LoginBySmsCodeResponse4SwapEPS0_
alita.node:_ZN5alita22LoginBySmsCodeResponse5ClearEv
alita.node:_ZN5alita22LoginBySmsCodeResponse8CopyFromERKS0_
alita.node:_ZN5alita22LoginBySmsCodeResponse9MergeFromERKS0_
alita.node:_ZN5alita22LoginBySmsCodeResponseC1ERKS0_
alita.node:_ZN5alita22LoginBySmsCodeResponseC1Ev
alita.node:_ZN5alita22LoginBySmsCodeResponseC2ERKS0_
alita.node:_ZN5alita22LoginBySmsCodeResponseC2Ev
alita.node:_ZN5alita22LoginBySmsCodeResponseD0Ev
alita.node:_ZN5alita22LoginBySmsCodeResponseD1Ev
alita.node:_ZN5alita22LoginBySmsCodeResponseD2Ev
alita.node:_ZN5alita22MessageProgressRequest10SharedCtorEv
alita.node:_ZN5alita22MessageProgressRequest10SharedDtorEv
alita.node:_ZN5alita22MessageProgressRequest16default_instanceEv
alita.node:_ZN5alita22MessageProgressRequest16kTypeFieldNumberE
alita.node:_ZN5alita22MessageProgressRequest17default_instance_E
alita.node:_ZN5alita22MessageProgressRequest17kMsgIdFieldNumberE
alita.node:_ZN5alita22MessageProgressRequest17kTotalFieldNumberE
alita.node:_ZN5alita22MessageProgressRequest19kCurrentFieldNumberE
alita.node:_ZN5alita22MessageProgressRequest21CheckTypeAndMergeFromERKN7tencent8protobuf11MessageLiteE
alita.node:_ZN5alita22MessageProgressRequest21InitAsDefaultInstanceEv
alita.node:_ZN5alita22MessageProgressRequest27MergePartialFromCodedStreamEPN7tencent8protobuf2io16CodedInputStreamE
alita.node:_ZN5alita22MessageProgressRequest4SwapEPS0_
alita.node:_ZN5alita22MessageProgressRequest5ClearEv
alita.node:_ZN5alita22MessageProgressRequest8CopyFromERKS0_
alita.node:_ZN5alita22MessageProgressRequest9MergeFromERKS0_
alita.node:_ZN5alita22MessageProgressRequestC1ERKS0_
alita.node:_ZN5alita22MessageProgressRequestC1Ev
alita.node:_ZN5alita22MessageProgressRequestC2ERKS0_
alita.node:_ZN5alita22MessageProgressRequestC2Ev
alita.node:_ZN5alita22MessageProgressRequestD0Ev
alita.node:_ZN5alita22MessageProgressRequestD1Ev
alita.node:_ZN5alita22MessageProgressRequestD2Ev
alita.node:_ZN5alita22OauthOperation_IsValidEi
alita.node:_ZN5alita22PushMailMessageContent10SharedCtorEv
alita.node:_ZN5alita22PushMailMessageContent10SharedDtorEv
alita.node:_ZN5alita22PushMailMessageContent16default_instanceEv
alita.node:_ZN5alita22PushMailMessageContent16kDateFieldNumberE
alita.node:_ZN5alita22PushMailMessageContent17default_instance_E
alita.node:_ZN5alita22PushMailMessageContent18kCcListFieldNumberE
alita.node:_ZN5alita22PushMailMessageContent18kDigestFieldNumberE
alita.node:_ZN5alita22PushMailMessageContent18kMailidFieldNumberE
alita.node:_ZN5alita22PushMailMessageContent18kSenderFieldNumberE
alita.node:_ZN5alita22PushMailMessageContent18kToListFieldNumberE
alita.node:_ZN5alita22PushMailMessageContent19kSubjectFieldNumberE
alita.node:_ZN5alita22PushMailMessageContent19kWaplinkFieldNumberE
alita.node:_ZN5alita22PushMailMessageContent20kFromListFieldNumberE
alita.node:_ZN5alita22PushMailMessageContent21CheckTypeAndMergeFromERKN7tencent8protobuf11MessageLiteE
alita.node:_ZN5alita22PushMailMessageContent21InitAsDefaultInstanceEv
alita.node:_ZN5alita22PushMailMessageContent25kHasAttachmentFieldNumberE
alita.node:_ZN5alita22PushMailMessageContent27MergePartialFromCodedStreamEPN7tencent8protobuf2io16CodedInputStreamE
alita.node:_ZN5alita22PushMailMessageContent4SwapEPS0_
alita.node:_ZN5alita22PushMailMessageContent5ClearEv
alita.node:_ZN5alita22PushMailMessageContent8CopyFromERKS0_
alita.node:_ZN5alita22PushMailMessageContent9MergeFromERKS0_
alita.node:_ZN5alita22PushMailMessageContentC1ERKS0_
alita.node:_ZN5alita22PushMailMessageContentC1Ev
alita.node:_ZN5alita22PushMailMessageContentC2ERKS0_
alita.node:_ZN5alita22PushMailMessageContentC2Ev
alita.node:_ZN5alita22PushMailMessageContentD0Ev
alita.node:_ZN5alita22PushMailMessageContentD1Ev
alita.node:_ZN5alita22PushMailMessageContentD2Ev
alita.node:_ZN5alita22RefreshBalanceResponse10SharedCtorEv
alita.node:_ZN5alita22RefreshBalanceResponse10SharedDtorEv
alita.node:_ZN5alita22RefreshBalanceResponse16default_instanceEv
alita.node:_ZN5alita22RefreshBalanceResponse17default_instance_E
alita.node:_ZN5alita22RefreshBalanceResponse18kErrMsgFieldNumberE
alita.node:_ZN5alita22RefreshBalanceResponse18kTaskIdFieldNumberE
alita.node:_ZN5alita22RefreshBalanceResponse19kErrCodeFieldNumberE
alita.node:_ZN5alita22RefreshBalanceResponse21CheckTypeAndMergeFromERKN7tencent8protobuf11MessageLiteE
alita.node:_ZN5alita22RefreshBalanceResponse21InitAsDefaultInstanceEv
alita.node:_ZN5alita22RefreshBalanceResponse23kBalanceInfoFieldNumberE
alita.node:_ZN5alita22RefreshBalanceResponse27MergePartialFromCodedStreamEPN7tencent8protobuf2io16CodedInputStreamE
alita.node:_ZN5alita22RefreshBalanceResponse4SwapEPS0_
alita.node:_ZN5alita22RefreshBalanceResponse5ClearEv
alita.node:_ZN5alita22RefreshBalanceResponse8CopyFromERKS0_
alita.node:_ZN5alita22RefreshBalanceResponse9MergeFromERKS0_
alita.node:_ZN5alita22RefreshBalanceResponseC1ERKS0_
alita.node:_ZN5alita22RefreshBalanceResponseC1Ev
alita.node:_ZN5alita22RefreshBalanceResponseC2ERKS0_
alita.node:_ZN5alita22RefreshBalanceResponseC2Ev
alita.node:_ZN5alita22RefreshBalanceResponseD0Ev
alita.node:_ZN5alita22RefreshBalanceResponseD1Ev
alita.node:_ZN5alita22RefreshBalanceResponseD2Ev
alita.node:_ZN5alita22ReportIdKeyDataRequest10SharedCtorEv
alita.node:_ZN5alita22ReportIdKeyDataRequest10SharedDtorEv
alita.node:_ZN5alita22ReportIdKeyDataRequest15kKeyFieldNumberE
alita.node:_ZN5alita22ReportIdKeyDataRequest16default_instanceEv
alita.node:_ZN5alita22ReportIdKeyDataRequest17default_instance_E
alita.node:_ZN5alita22ReportIdKeyDataRequest17kLogIdFieldNumberE
alita.node:_ZN5alita22ReportIdKeyDataRequest17kValueFieldNumberE
alita.node:_ZN5alita22ReportIdKeyDataRequest21CheckTypeAndMergeFromERKN7tencent8protobuf11MessageLiteE
alita.node:_ZN5alita22ReportIdKeyDataRequest21InitAsDefaultInstanceEv
alita.node:_ZN5alita22ReportIdKeyDataRequest27MergePartialFromCodedStreamEPN7tencent8protobuf2io16CodedInputStreamE
alita.node:_ZN5alita22ReportIdKeyDataRequest29kIsIgnoreFreqCheckFieldNumberE
alita.node:_ZN5alita22ReportIdKeyDataRequest4SwapEPS0_
alita.node:_ZN5alita22ReportIdKeyDataRequest5ClearEv
alita.node:_ZN5alita22ReportIdKeyDataRequest8CopyFromERKS0_
alita.node:_ZN5alita22ReportIdKeyDataRequest9MergeFromERKS0_
alita.node:_ZN5alita22ReportIdKeyDataRequestC1ERKS0_
alita.node:_ZN5alita22ReportIdKeyDataRequestC1Ev
alita.node:_ZN5alita22ReportIdKeyDataRequestC2ERKS0_
alita.node:_ZN5alita22ReportIdKeyDataRequestC2Ev
alita.node:_ZN5alita22ReportIdKeyDataRequestD0Ev
alita.node:_ZN5alita22ReportIdKeyDataRequestD1Ev
alita.node:_ZN5alita22ReportIdKeyDataRequestD2Ev
alita.node:_ZN5alita22SendAppMessageResponse10SharedCtorEv
alita.node:_ZN5alita22SendAppMessageResponse10SharedDtorEv
alita.node:_ZN5alita22SendAppMessageResponse16default_instanceEv
alita.node:_ZN5alita22SendAppMessageResponse17default_instance_E
alita.node:_ZN5alita22SendAppMessageResponse17kMsgIdFieldNumberE
alita.node:_ZN5alita22SendAppMessageResponse18kErrMsgFieldNumberE
alita.node:_ZN5alita22SendAppMessageResponse18kTaskIdFieldNumberE
alita.node:_ZN5alita22SendAppMessageResponse19kErrCodeFieldNumberE
alita.node:_ZN5alita22SendAppMessageResponse21CheckTypeAndMergeFromERKN7tencent8protobuf11MessageLiteE
alita.node:_ZN5alita22SendAppMessageResponse21InitAsDefaultInstanceEv
alita.node:_ZN5alita22SendAppMessageResponse27MergePartialFromCodedStreamEPN7tencent8protobuf2io16CodedInputStreamE
alita.node:_ZN5alita22SendAppMessageResponse4SwapEPS0_
alita.node:_ZN5alita22SendAppMessageResponse5ClearEv
alita.node:_ZN5alita22SendAppMessageResponse8CopyFromERKS0_
alita.node:_ZN5alita22SendAppMessageResponse9MergeFromERKS0_
alita.node:_ZN5alita22SendAppMessageResponseC1ERKS0_
alita.node:_ZN5alita22SendAppMessageResponseC1Ev
alita.node:_ZN5alita22SendAppMessageResponseC2ERKS0_
alita.node:_ZN5alita22SendAppMessageResponseC2Ev
alita.node:_ZN5alita22SendAppMessageResponseD0Ev
alita.node:_ZN5alita22SendAppMessageResponseD1Ev
alita.node:_ZN5alita22SendAppMessageResponseD2Ev
alita.node:_ZN5alita22SendTextMessageRequest10SharedCtorEv
alita.node:_ZN5alita22SendTextMessageRequest10SharedDtorEv
alita.node:_ZN5alita22SendTextMessageRequest16default_instanceEv
alita.node:_ZN5alita22SendTextMessageRequest17default_instance_E
alita.node:_ZN5alita22SendTextMessageRequest18kTaskIdFieldNumberE
alita.node:_ZN5alita22SendTextMessageRequest19kContentFieldNumberE
alita.node:_ZN5alita22SendTextMessageRequest20kUsernameFieldNumberE
alita.node:_ZN5alita22SendTextMessageRequest21CheckTypeAndMergeFromERKN7tencent8protobuf11MessageLiteE
alita.node:_ZN5alita22SendTextMessageRequest21InitAsDefaultInstanceEv
alita.node:_ZN5alita22SendTextMessageRequest27MergePartialFromCodedStreamEPN7tencent8protobuf2io16CodedInputStreamE
alita.node:_ZN5alita22SendTextMessageRequest4SwapEPS0_
alita.node:_ZN5alita22SendTextMessageRequest5ClearEv
alita.node:_ZN5alita22SendTextMessageRequest8CopyFromERKS0_
alita.node:_ZN5alita22SendTextMessageRequest9MergeFromERKS0_
alita.node:_ZN5alita22SendTextMessageRequestC1ERKS0_
alita.node:_ZN5alita22SendTextMessageRequestC1Ev
alita.node:_ZN5alita22SendTextMessageRequestC2ERKS0_
alita.node:_ZN5alita22SendTextMessageRequestC2Ev
alita.node:_ZN5alita22SendTextMessageRequestD0Ev
alita.node:_ZN5alita22SendTextMessageRequestD1Ev
alita.node:_ZN5alita22SendTextMessageRequestD2Ev
alita.node:_ZN5alita22SetContactMuteResponse10SharedCtorEv
alita.node:_ZN5alita22SetContactMuteResponse10SharedDtorEv
alita.node:_ZN5alita22SetContactMuteResponse16default_instanceEv
alita.node:_ZN5alita22SetContactMuteResponse17default_instance_E
alita.node:_ZN5alita22SetContactMuteResponse18kErrMsgFieldNumberE
alita.node:_ZN5alita22SetContactMuteResponse18kTaskIdFieldNumberE
alita.node:_ZN5alita22SetContactMuteResponse19kErrCodeFieldNumberE
alita.node:_ZN5alita22SetContactMuteResponse21CheckTypeAndMergeFromERKN7tencent8protobuf11MessageLiteE
alita.node:_ZN5alita22SetContactMuteResponse21InitAsDefaultInstanceEv
alita.node:_ZN5alita22SetContactMuteResponse27MergePartialFromCodedStreamEPN7tencent8protobuf2io16CodedInputStreamE
alita.node:_ZN5alita22SetContactMuteResponse4SwapEPS0_
alita.node:_ZN5alita22SetContactMuteResponse5ClearEv
alita.node:_ZN5alita22SetContactMuteResponse8CopyFromERKS0_
alita.node:_ZN5alita22SetContactMuteResponse9MergeFromERKS0_
alita.node:_ZN5alita22SetContactMuteResponseC1ERKS0_
alita.node:_ZN5alita22SetContactMuteResponseC1Ev
alita.node:_ZN5alita22SetContactMuteResponseC2ERKS0_
alita.node:_ZN5alita22SetContactMuteResponseC2Ev
alita.node:_ZN5alita22SetContactMuteResponseD0Ev
alita.node:_ZN5alita22SetContactMuteResponseD1Ev
alita.node:_ZN5alita22SetContactMuteResponseD2Ev
alita.node:_ZN5alita22SetContactOnTopRequest10SharedCtorEv
alita.node:_ZN5alita22SetContactOnTopRequest10SharedDtorEv
alita.node:_ZN5alita22SetContactOnTopRequest16default_instanceEv
alita.node:_ZN5alita22SetContactOnTopRequest17default_instance_E
alita.node:_ZN5alita22SetContactOnTopRequest18kTaskIdFieldNumberE
alita.node:_ZN5alita22SetContactOnTopRequest19kIsOntopFieldNumberE
alita.node:_ZN5alita22SetContactOnTopRequest20kUsernameFieldNumberE
alita.node:_ZN5alita22SetContactOnTopRequest21CheckTypeAndMergeFromERKN7tencent8protobuf11MessageLiteE
alita.node:_ZN5alita22SetContactOnTopRequest21InitAsDefaultInstanceEv
alita.node:_ZN5alita22SetContactOnTopRequest27MergePartialFromCodedStreamEPN7tencent8protobuf2io16CodedInputStreamE
alita.node:_ZN5alita22SetContactOnTopRequest4SwapEPS0_
alita.node:_ZN5alita22SetContactOnTopRequest5ClearEv
alita.node:_ZN5alita22SetContactOnTopRequest8CopyFromERKS0_
alita.node:_ZN5alita22SetContactOnTopRequest9MergeFromERKS0_
alita.node:_ZN5alita22SetContactOnTopRequestC1ERKS0_
alita.node:_ZN5alita22SetContactOnTopRequestC1Ev
alita.node:_ZN5alita22SetContactOnTopRequestC2ERKS0_
alita.node:_ZN5alita22SetContactOnTopRequestC2Ev
alita.node:_ZN5alita22SetContactOnTopRequestD0Ev
alita.node:_ZN5alita22SetContactOnTopRequestD1Ev
alita.node:_ZN5alita22SetContactOnTopRequestD2Ev
alita.node:_ZN5alita22SetRoomNickNameRequest10SharedCtorEv
alita.node:_ZN5alita22SetRoomNickNameRequest10SharedDtorEv
alita.node:_ZN5alita22SetRoomNickNameRequest16default_instanceEv
alita.node:_ZN5alita22SetRoomNickNameRequest17default_instance_E
alita.node:_ZN5alita22SetRoomNickNameRequest18kTaskIdFieldNumberE
alita.node:_ZN5alita22SetRoomNickNameRequest20kNicknameFieldNumberE
alita.node:_ZN5alita22SetRoomNickNameRequest21CheckTypeAndMergeFromERKN7tencent8protobuf11MessageLiteE
alita.node:_ZN5alita22SetRoomNickNameRequest21InitAsDefaultInstanceEv
alita.node:_ZN5alita22SetRoomNickNameRequest24kRoomUsernameFieldNumberE
alita.node:_ZN5alita22SetRoomNickNameRequest27MergePartialFromCodedStreamEPN7tencent8protobuf2io16CodedInputStreamE
alita.node:_ZN5alita22SetRoomNickNameRequest4SwapEPS0_
alita.node:_ZN5alita22SetRoomNickNameRequest5ClearEv
alita.node:_ZN5alita22SetRoomNickNameRequest8CopyFromERKS0_
alita.node:_ZN5alita22SetRoomNickNameRequest9MergeFromERKS0_
alita.node:_ZN5alita22SetRoomNickNameRequestC1ERKS0_
alita.node:_ZN5alita22SetRoomNickNameRequestC1Ev
alita.node:_ZN5alita22SetRoomNickNameRequestC2ERKS0_
alita.node:_ZN5alita22SetRoomNickNameRequestC2Ev
alita.node:_ZN5alita22SetRoomNickNameRequestD0Ev
alita.node:_ZN5alita22SetRoomNickNameRequestD1Ev
alita.node:_ZN5alita22SetRoomNickNameRequestD2Ev
alita.node:_ZN5alita22ShareAppMessageRequest10SharedCtorEv
alita.node:_ZN5alita22ShareAppMessageRequest10SharedDtorEv
alita.node:_ZN5alita22ShareAppMessageRequest16default_instanceEv
alita.node:_ZN5alita22ShareAppMessageRequest17default_instance_E
alita.node:_ZN5alita22ShareAppMessageRequest18kTaskIdFieldNumberE
alita.node:_ZN5alita22ShareAppMessageRequest19kAppDataFieldNumberE
alita.node:_ZN5alita22ShareAppMessageRequest19kAppInfoFieldNumberE
alita.node:_ZN5alita22ShareAppMessageRequest19kMsgInfoFieldNumberE
alita.node:_ZN5alita22ShareAppMessageRequest20kUsernameFieldNumberE
alita.node:_ZN5alita22ShareAppMessageRequest21CheckTypeAndMergeFromERKN7tencent8protobuf11MessageLiteE
alita.node:_ZN5alita22ShareAppMessageRequest21InitAsDefaultInstanceEv
alita.node:_ZN5alita22ShareAppMessageRequest27MergePartialFromCodedStreamEPN7tencent8protobuf2io16CodedInputStreamE
alita.node:_ZN5alita22ShareAppMessageRequest4SwapEPS0_
alita.node:_ZN5alita22ShareAppMessageRequest5ClearEv
alita.node:_ZN5alita22ShareAppMessageRequest8CopyFromERKS0_
alita.node:_ZN5alita22ShareAppMessageRequest9MergeFromERKS0_
alita.node:_ZN5alita22ShareAppMessageRequestC1ERKS0_
alita.node:_ZN5alita22ShareAppMessageRequestC1Ev
alita.node:_ZN5alita22ShareAppMessageRequestC2ERKS0_
alita.node:_ZN5alita22ShareAppMessageRequestC2Ev
alita.node:_ZN5alita22ShareAppMessageRequestD0Ev
alita.node:_ZN5alita22ShareAppMessageRequestD1Ev
alita.node:_ZN5alita22ShareAppMessageRequestD2Ev
alita.node:_ZN5alita22ShareUrlMessageRequest10SharedCtorEv
alita.node:_ZN5alita22ShareUrlMessageRequest10SharedDtorEv
alita.node:_ZN5alita22ShareUrlMessageRequest15kUrlFieldNumberE
alita.node:_ZN5alita22ShareUrlMessageRequest16default_instanceEv
alita.node:_ZN5alita22ShareUrlMessageRequest17default_instance_E
alita.node:_ZN5alita22ShareUrlMessageRequest18kTaskIdFieldNumberE
alita.node:_ZN5alita22ShareUrlMessageRequest19kAppInfoFieldNumberE
alita.node:_ZN5alita22ShareUrlMessageRequest19kMsgInfoFieldNumberE
alita.node:_ZN5alita22ShareUrlMessageRequest20kUsernameFieldNumberE
alita.node:_ZN5alita22ShareUrlMessageRequest21CheckTypeAndMergeFromERKN7tencent8protobuf11MessageLiteE
alita.node:_ZN5alita22ShareUrlMessageRequest21InitAsDefaultInstanceEv
alita.node:_ZN5alita22ShareUrlMessageRequest27MergePartialFromCodedStreamEPN7tencent8protobuf2io16CodedInputStreamE
alita.node:_ZN5alita22ShareUrlMessageRequest4SwapEPS0_
alita.node:_ZN5alita22ShareUrlMessageRequest5ClearEv
alita.node:_ZN5alita22ShareUrlMessageRequest8CopyFromERKS0_
alita.node:_ZN5alita22ShareUrlMessageRequest9MergeFromERKS0_
alita.node:_ZN5alita22ShareUrlMessageRequestC1ERKS0_
alita.node:_ZN5alita22ShareUrlMessageRequestC1Ev
alita.node:_ZN5alita22ShareUrlMessageRequestC2ERKS0_
alita.node:_ZN5alita22ShareUrlMessageRequestC2Ev
alita.node:_ZN5alita22ShareUrlMessageRequestD0Ev
alita.node:_ZN5alita22ShareUrlMessageRequestD1Ev
alita.node:_ZN5alita22ShareUrlMessageRequestD2Ev
alita.node:_ZN5alita22SystemCmdNewXmlMessage10SharedCtorEv
alita.node:_ZN5alita22SystemCmdNewXmlMessage10SharedDtorEv
alita.node:_ZN5alita22SystemCmdNewXmlMessage15kPatFieldNumberE
alita.node:_ZN5alita22SystemCmdNewXmlMessage16default_instanceEv
alita.node:_ZN5alita22SystemCmdNewXmlMessage16kTypeFieldNumberE
alita.node:_ZN5alita22SystemCmdNewXmlMessage17default_instance_E
alita.node:_ZN5alita22SystemCmdNewXmlMessage21CheckTypeAndMergeFromERKN7tencent8protobuf11MessageLiteE
alita.node:_ZN5alita22SystemCmdNewXmlMessage21InitAsDefaultInstanceEv
alita.node:_ZN5alita22SystemCmdNewXmlMessage27MergePartialFromCodedStreamEPN7tencent8protobuf2io16CodedInputStreamE
alita.node:_ZN5alita22SystemCmdNewXmlMessage33kSystemMessageTemplateFieldNumberE
alita.node:_ZN5alita22SystemCmdNewXmlMessage4SwapEPS0_
alita.node:_ZN5alita22SystemCmdNewXmlMessage5ClearEv
alita.node:_ZN5alita22SystemCmdNewXmlMessage8CopyFromERKS0_
alita.node:_ZN5alita22SystemCmdNewXmlMessage9MergeFromERKS0_
alita.node:_ZN5alita22SystemCmdNewXmlMessageC1ERKS0_
alita.node:_ZN5alita22SystemCmdNewXmlMessageC1Ev
alita.node:_ZN5alita22SystemCmdNewXmlMessageC2ERKS0_
alita.node:_ZN5alita22SystemCmdNewXmlMessageC2Ev
alita.node:_ZN5alita22SystemCmdNewXmlMessageD0Ev
alita.node:_ZN5alita22SystemCmdNewXmlMessageD1Ev
alita.node:_ZN5alita22SystemCmdNewXmlMessageD2Ev
alita.node:_ZN5alita22VoIPFinishType_IsValidEi
alita.node:_ZN5alita22VoipStateChangeRequest10SharedCtorEv
alita.node:_ZN5alita22VoipStateChangeRequest10SharedDtorEv
alita.node:_ZN5alita22VoipStateChangeRequest16default_instanceEv
alita.node:_ZN5alita22VoipStateChangeRequest17default_instance_E
alita.node:_ZN5alita22VoipStateChangeRequest17kStateFieldNumberE
alita.node:_ZN5alita22VoipStateChangeRequest21CheckTypeAndMergeFromERKN7tencent8protobuf11MessageLiteE
alita.node:_ZN5alita22VoipStateChangeRequest21InitAsDefaultInstanceEv
alita.node:_ZN5alita22VoipStateChangeRequest27MergePartialFromCodedStreamEPN7tencent8protobuf2io16CodedInputStreamE
alita.node:_ZN5alita22VoipStateChangeRequest4SwapEPS0_
alita.node:_ZN5alita22VoipStateChangeRequest5ClearEv
alita.node:_ZN5alita22VoipStateChangeRequest8CopyFromERKS0_
alita.node:_ZN5alita22VoipStateChangeRequest9MergeFromERKS0_
alita.node:_ZN5alita22VoipStateChangeRequestC1ERKS0_
alita.node:_ZN5alita22VoipStateChangeRequestC1Ev
alita.node:_ZN5alita22VoipStateChangeRequestC2ERKS0_
alita.node:_ZN5alita22VoipStateChangeRequestC2Ev
alita.node:_ZN5alita22VoipStateChangeRequestD0Ev
alita.node:_ZN5alita22VoipStateChangeRequestD1Ev
alita.node:_ZN5alita22VoipStateChangeRequestD2Ev
alita.node:_ZN5alita23AvatarImageType_IsValidEi
alita.node:_ZN5alita23CommonOperation_IsValidEi
alita.node:_ZN5alita23ContactAddScene_IsValidEi
alita.node:_ZN5alita23DeleteRoomMemberRequest10SharedCtorEv
alita.node:_ZN5alita23DeleteRoomMemberRequest10SharedDtorEv
alita.node:_ZN5alita23DeleteRoomMemberRequest16default_instanceEv
alita.node:_ZN5alita23DeleteRoomMemberRequest17default_instance_E
alita.node:_ZN5alita23DeleteRoomMemberRequest18kTaskIdFieldNumberE
alita.node:_ZN5alita23DeleteRoomMemberRequest21CheckTypeAndMergeFromERKN7tencent8protobuf11MessageLiteE
alita.node:_ZN5alita23DeleteRoomMemberRequest21InitAsDefaultInstanceEv
alita.node:_ZN5alita23DeleteRoomMemberRequest24kRoomUsernameFieldNumberE
alita.node:_ZN5alita23DeleteRoomMemberRequest24kUsernameListFieldNumberE
alita.node:_ZN5alita23DeleteRoomMemberRequest27MergePartialFromCodedStreamEPN7tencent8protobuf2io16CodedInputStreamE
alita.node:_ZN5alita23DeleteRoomMemberRequest4SwapEPS0_
alita.node:_ZN5alita23DeleteRoomMemberRequest5ClearEv
alita.node:_ZN5alita23DeleteRoomMemberRequest8CopyFromERKS0_
alita.node:_ZN5alita23DeleteRoomMemberRequest9MergeFromERKS0_
alita.node:_ZN5alita23DeleteRoomMemberRequestC1ERKS0_
alita.node:_ZN5alita23DeleteRoomMemberRequestC1Ev
alita.node:_ZN5alita23DeleteRoomMemberRequestC2ERKS0_
alita.node:_ZN5alita23DeleteRoomMemberRequestC2Ev
alita.node:_ZN5alita23DeleteRoomMemberRequestD0Ev
alita.node:_ZN5alita23DeleteRoomMemberRequestD1Ev
alita.node:_ZN5alita23DeleteRoomMemberRequestD2Ev
alita.node:_ZN5alita23ForegroundChangeRequest10SharedCtorEv
alita.node:_ZN5alita23ForegroundChangeRequest10SharedDtorEv
alita.node:_ZN5alita23ForegroundChangeRequest16default_instanceEv
alita.node:_ZN5alita23ForegroundChangeRequest17default_instance_E
alita.node:_ZN5alita23ForegroundChangeRequest21CheckTypeAndMergeFromERKN7tencent8protobuf11MessageLiteE
alita.node:_ZN5alita23ForegroundChangeRequest21InitAsDefaultInstanceEv
alita.node:_ZN5alita23ForegroundChangeRequest24kIsForegroundFieldNumberE
alita.node:_ZN5alita23ForegroundChangeRequest27MergePartialFromCodedStreamEPN7tencent8protobuf2io16CodedInputStreamE
alita.node:_ZN5alita23ForegroundChangeRequest4SwapEPS0_
alita.node:_ZN5alita23ForegroundChangeRequest5ClearEv
alita.node:_ZN5alita23ForegroundChangeRequest8CopyFromERKS0_
alita.node:_ZN5alita23ForegroundChangeRequest9MergeFromERKS0_
alita.node:_ZN5alita23ForegroundChangeRequestC1ERKS0_
alita.node:_ZN5alita23ForegroundChangeRequestC1Ev
alita.node:_ZN5alita23ForegroundChangeRequestC2ERKS0_
alita.node:_ZN5alita23ForegroundChangeRequestC2Ev
alita.node:_ZN5alita23ForegroundChangeRequestD0Ev
alita.node:_ZN5alita23ForegroundChangeRequestD1Ev
alita.node:_ZN5alita23ForegroundChangeRequestD2Ev
alita.node:_ZN5alita23GetConversationResponse10SharedCtorEv
alita.node:_ZN5alita23GetConversationResponse10SharedDtorEv
alita.node:_ZN5alita23GetConversationResponse16default_instanceEv
alita.node:_ZN5alita23GetConversationResponse17default_instance_E
alita.node:_ZN5alita23GetConversationResponse21CheckTypeAndMergeFromERKN7tencent8protobuf11MessageLiteE
alita.node:_ZN5alita23GetConversationResponse21InitAsDefaultInstanceEv
alita.node:_ZN5alita23GetConversationResponse24kConversationFieldNumberE
alita.node:_ZN5alita23GetConversationResponse27MergePartialFromCodedStreamEPN7tencent8protobuf2io16CodedInputStreamE
alita.node:_ZN5alita23GetConversationResponse4SwapEPS0_
alita.node:_ZN5alita23GetConversationResponse5ClearEv
alita.node:_ZN5alita23GetConversationResponse8CopyFromERKS0_
alita.node:_ZN5alita23GetConversationResponse9MergeFromERKS0_
alita.node:_ZN5alita23GetConversationResponseC1ERKS0_
alita.node:_ZN5alita23GetConversationResponseC1Ev
alita.node:_ZN5alita23GetConversationResponseC2ERKS0_
alita.node:_ZN5alita23GetConversationResponseC2Ev
alita.node:_ZN5alita23GetConversationResponseD0Ev
alita.node:_ZN5alita23GetConversationResponseD1Ev
alita.node:_ZN5alita23GetConversationResponseD2Ev
alita.node:_ZN5alita23GetLoginSmsCodeResponse10SharedCtorEv
alita.node:_ZN5alita23GetLoginSmsCodeResponse10SharedDtorEv
alita.node:_ZN5alita23GetLoginSmsCodeResponse16default_instanceEv
alita.node:_ZN5alita23GetLoginSmsCodeResponse17default_instance_E
alita.node:_ZN5alita23GetLoginSmsCodeResponse18kErrMsgFieldNumberE
alita.node:_ZN5alita23GetLoginSmsCodeResponse18kTaskIdFieldNumberE
alita.node:_ZN5alita23GetLoginSmsCodeResponse19kErrCodeFieldNumberE
alita.node:_ZN5alita23GetLoginSmsCodeResponse21CheckTypeAndMergeFromERKN7tencent8protobuf11MessageLiteE
alita.node:_ZN5alita23GetLoginSmsCodeResponse21InitAsDefaultInstanceEv
alita.node:_ZN5alita23GetLoginSmsCodeResponse27MergePartialFromCodedStreamEPN7tencent8protobuf2io16CodedInputStreamE
alita.node:_ZN5alita23GetLoginSmsCodeResponse4SwapEPS0_
alita.node:_ZN5alita23GetLoginSmsCodeResponse5ClearEv
alita.node:_ZN5alita23GetLoginSmsCodeResponse8CopyFromERKS0_
alita.node:_ZN5alita23GetLoginSmsCodeResponse9MergeFromERKS0_
alita.node:_ZN5alita23GetLoginSmsCodeResponseC1ERKS0_
alita.node:_ZN5alita23GetLoginSmsCodeResponseC1Ev
alita.node:_ZN5alita23GetLoginSmsCodeResponseC2ERKS0_
alita.node:_ZN5alita23GetLoginSmsCodeResponseC2Ev
alita.node:_ZN5alita23GetLoginSmsCodeResponseD0Ev
alita.node:_ZN5alita23GetLoginSmsCodeResponseD1Ev
alita.node:_ZN5alita23GetLoginSmsCodeResponseD2Ev
alita.node:_ZN5alita23GetMemberContactRequest10SharedCtorEv
alita.node:_ZN5alita23GetMemberContactRequest10SharedDtorEv
alita.node:_ZN5alita23GetMemberContactRequest16default_instanceEv
alita.node:_ZN5alita23GetMemberContactRequest17default_instance_E
alita.node:_ZN5alita23GetMemberContactRequest20kUsernameFieldNumberE
alita.node:_ZN5alita23GetMemberContactRequest21CheckTypeAndMergeFromERKN7tencent8protobuf11MessageLiteE
alita.node:_ZN5alita23GetMemberContactRequest21InitAsDefaultInstanceEv
alita.node:_ZN5alita23GetMemberContactRequest27MergePartialFromCodedStreamEPN7tencent8protobuf2io16CodedInputStreamE
alita.node:_ZN5alita23GetMemberContactRequest4SwapEPS0_
alita.node:_ZN5alita23GetMemberContactRequest5ClearEv
alita.node:_ZN5alita23GetMemberContactRequest8CopyFromERKS0_
alita.node:_ZN5alita23GetMemberContactRequest9MergeFromERKS0_
alita.node:_ZN5alita23GetMemberContactRequestC1ERKS0_
alita.node:_ZN5alita23GetMemberContactRequestC1Ev
alita.node:_ZN5alita23GetMemberContactRequestC2ERKS0_
alita.node:_ZN5alita23GetMemberContactRequestC2Ev
alita.node:_ZN5alita23GetMemberContactRequestD0Ev
alita.node:_ZN5alita23GetMemberContactRequestD1Ev
alita.node:_ZN5alita23GetMemberContactRequestD2Ev
alita.node:_ZN5alita23GetMessageList1Response10SharedCtorEv
alita.node:_ZN5alita23GetMessageList1Response10SharedDtorEv
alita.node:_ZN5alita23GetMessageList1Response16default_instanceEv
alita.node:_ZN5alita23GetMessageList1Response17default_instance_E
alita.node:_ZN5alita23GetMessageList1Response19kMsgListFieldNumberE
alita.node:_ZN5alita23GetMessageList1Response21CheckTypeAndMergeFromERKN7tencent8protobuf11MessageLiteE
alita.node:_ZN5alita23GetMessageList1Response21InitAsDefaultInstanceEv
alita.node:_ZN5alita23GetMessageList1Response27MergePartialFromCodedStreamEPN7tencent8protobuf2io16CodedInputStreamE
alita.node:_ZN5alita23GetMessageList1Response4SwapEPS0_
alita.node:_ZN5alita23GetMessageList1Response5ClearEv
alita.node:_ZN5alita23GetMessageList1Response8CopyFromERKS0_
alita.node:_ZN5alita23GetMessageList1Response9MergeFromERKS0_
alita.node:_ZN5alita23GetMessageList1ResponseC1ERKS0_
alita.node:_ZN5alita23GetMessageList1ResponseC1Ev
alita.node:_ZN5alita23GetMessageList1ResponseC2ERKS0_
alita.node:_ZN5alita23GetMessageList1ResponseC2Ev
alita.node:_ZN5alita23GetMessageList1ResponseD0Ev
alita.node:_ZN5alita23GetMessageList1ResponseD1Ev
alita.node:_ZN5alita23GetMessageList1ResponseD2Ev
alita.node:_ZN5alita23GetNetworkStateResponse10SharedCtorEv
alita.node:_ZN5alita23GetNetworkStateResponse10SharedDtorEv
alita.node:_ZN5alita23GetNetworkStateResponse16default_instanceEv
alita.node:_ZN5alita23GetNetworkStateResponse17default_instance_E
alita.node:_ZN5alita23GetNetworkStateResponse17kStateFieldNumberE
alita.node:_ZN5alita23GetNetworkStateResponse21CheckTypeAndMergeFromERKN7tencent8protobuf11MessageLiteE
alita.node:_ZN5alita23GetNetworkStateResponse21InitAsDefaultInstanceEv
alita.node:_ZN5alita23GetNetworkStateResponse27MergePartialFromCodedStreamEPN7tencent8protobuf2io16CodedInputStreamE
alita.node:_ZN5alita23GetNetworkStateResponse4SwapEPS0_
alita.node:_ZN5alita23GetNetworkStateResponse5ClearEv
alita.node:_ZN5alita23GetNetworkStateResponse8CopyFromERKS0_
alita.node:_ZN5alita23GetNetworkStateResponse9MergeFromERKS0_
alita.node:_ZN5alita23GetNetworkStateResponseC1ERKS0_
alita.node:_ZN5alita23GetNetworkStateResponseC1Ev
alita.node:_ZN5alita23GetNetworkStateResponseC2ERKS0_
alita.node:_ZN5alita23GetNetworkStateResponseC2Ev
alita.node:_ZN5alita23GetNetworkStateResponseD0Ev
alita.node:_ZN5alita23GetNetworkStateResponseD1Ev
alita.node:_ZN5alita23GetNetworkStateResponseD2Ev
alita.node:_ZN5alita23GetVerifyContactRequest10SharedCtorEv
alita.node:_ZN5alita23GetVerifyContactRequest10SharedDtorEv
alita.node:_ZN5alita23GetVerifyContactRequest16default_instanceEv
alita.node:_ZN5alita23GetVerifyContactRequest17default_instance_E
alita.node:_ZN5alita23GetVerifyContactRequest20kUsernameFieldNumberE
alita.node:_ZN5alita23GetVerifyContactRequest21CheckTypeAndMergeFromERKN7tencent8protobuf11MessageLiteE
alita.node:_ZN5alita23GetVerifyContactRequest21InitAsDefaultInstanceEv
alita.node:_ZN5alita23GetVerifyContactRequest27MergePartialFromCodedStreamEPN7tencent8protobuf2io16CodedInputStreamE
alita.node:_ZN5alita23GetVerifyContactRequest4SwapEPS0_
alita.node:_ZN5alita23GetVerifyContactRequest5ClearEv
alita.node:_ZN5alita23GetVerifyContactRequest8CopyFromERKS0_
alita.node:_ZN5alita23GetVerifyContactRequest9MergeFromERKS0_
alita.node:_ZN5alita23GetVerifyContactRequestC1ERKS0_
alita.node:_ZN5alita23GetVerifyContactRequestC1Ev
alita.node:_ZN5alita23GetVerifyContactRequestC2ERKS0_
alita.node:_ZN5alita23GetVerifyContactRequestC2Ev
alita.node:_ZN5alita23GetVerifyContactRequestD0Ev
alita.node:_ZN5alita23GetVerifyContactRequestD1Ev
alita.node:_ZN5alita23GetVerifyContactRequestD2Ev
alita.node:_ZN5alita23InviteRoomMemberRequest10SharedCtorEv
alita.node:_ZN5alita23InviteRoomMemberRequest10SharedDtorEv
alita.node:_ZN5alita23InviteRoomMemberRequest16default_instanceEv
alita.node:_ZN5alita23InviteRoomMemberRequest17default_instance_E
alita.node:_ZN5alita23InviteRoomMemberRequest18kTaskIdFieldNumberE
alita.node:_ZN5alita23InviteRoomMemberRequest21CheckTypeAndMergeFromERKN7tencent8protobuf11MessageLiteE
alita.node:_ZN5alita23InviteRoomMemberRequest21InitAsDefaultInstanceEv
alita.node:_ZN5alita23InviteRoomMemberRequest24kRoomUsernameFieldNumberE
alita.node:_ZN5alita23InviteRoomMemberRequest24kUsernameListFieldNumberE
alita.node:_ZN5alita23InviteRoomMemberRequest27MergePartialFromCodedStreamEPN7tencent8protobuf2io16CodedInputStreamE
alita.node:_ZN5alita23InviteRoomMemberRequest4SwapEPS0_
alita.node:_ZN5alita23InviteRoomMemberRequest5ClearEv
alita.node:_ZN5alita23InviteRoomMemberRequest8CopyFromERKS0_
alita.node:_ZN5alita23InviteRoomMemberRequest9MergeFromERKS0_
alita.node:_ZN5alita23InviteRoomMemberRequestC1ERKS0_
alita.node:_ZN5alita23InviteRoomMemberRequestC1Ev
alita.node:_ZN5alita23InviteRoomMemberRequestC2ERKS0_
alita.node:_ZN5alita23InviteRoomMemberRequestC2Ev
alita.node:_ZN5alita23InviteRoomMemberRequestD0Ev
alita.node:_ZN5alita23InviteRoomMemberRequestD1Ev
alita.node:_ZN5alita23InviteRoomMemberRequestD2Ev
alita.node:_ZN5alita23LoginByPasswordResponse10SharedCtorEv
alita.node:_ZN5alita23LoginByPasswordResponse10SharedDtorEv
alita.node:_ZN5alita23LoginByPasswordResponse16default_instanceEv
alita.node:_ZN5alita23LoginByPasswordResponse17default_instance_E
alita.node:_ZN5alita23LoginByPasswordResponse18kTaskIdFieldNumberE
alita.node:_ZN5alita23LoginByPasswordResponse21CheckTypeAndMergeFromERKN7tencent8protobuf11MessageLiteE
alita.node:_ZN5alita23LoginByPasswordResponse21InitAsDefaultInstanceEv
alita.node:_ZN5alita23LoginByPasswordResponse22kUnifyErrorFieldNumberE
alita.node:_ZN5alita23LoginByPasswordResponse27MergePartialFromCodedStreamEPN7tencent8protobuf2io16CodedInputStreamE
alita.node:_ZN5alita23LoginByPasswordResponse4SwapEPS0_
alita.node:_ZN5alita23LoginByPasswordResponse5ClearEv
alita.node:_ZN5alita23LoginByPasswordResponse8CopyFromERKS0_
alita.node:_ZN5alita23LoginByPasswordResponse9MergeFromERKS0_
alita.node:_ZN5alita23LoginByPasswordResponseC1ERKS0_
alita.node:_ZN5alita23LoginByPasswordResponseC1Ev
alita.node:_ZN5alita23LoginByPasswordResponseC2ERKS0_
alita.node:_ZN5alita23LoginByPasswordResponseC2Ev
alita.node:_ZN5alita23LoginByPasswordResponseD0Ev
alita.node:_ZN5alita23LoginByPasswordResponseD1Ev
alita.node:_ZN5alita23LoginByPasswordResponseD2Ev
alita.node:_ZN5alita23LoginStateChangeRequest10SharedCtorEv
alita.node:_ZN5alita23LoginStateChangeRequest10SharedDtorEv
alita.node:_ZN5alita23LoginStateChangeRequest16default_instanceEv
alita.node:_ZN5alita23LoginStateChangeRequest17default_instance_E
alita.node:_ZN5alita23LoginStateChangeRequest17kStateFieldNumberE
alita.node:_ZN5alita23LoginStateChangeRequest18kAvatarFieldNumberE
alita.node:_ZN5alita23LoginStateChangeRequest19kErrInfoFieldNumberE
alita.node:_ZN5alita23LoginStateChangeRequest20kNicknameFieldNumberE
alita.node:_ZN5alita23LoginStateChangeRequest21CheckTypeAndMergeFromERKN7tencent8protobuf11MessageLiteE
alita.node:_ZN5alita23LoginStateChangeRequest21InitAsDefaultInstanceEv
alita.node:_ZN5alita23LoginStateChangeRequest27MergePartialFromCodedStreamEPN7tencent8protobuf2io16CodedInputStreamE
alita.node:_ZN5alita23LoginStateChangeRequest4SwapEPS0_
alita.node:_ZN5alita23LoginStateChangeRequest5ClearEv
alita.node:_ZN5alita23LoginStateChangeRequest8CopyFromERKS0_
alita.node:_ZN5alita23LoginStateChangeRequest9MergeFromERKS0_
alita.node:_ZN5alita23LoginStateChangeRequestC1ERKS0_
alita.node:_ZN5alita23LoginStateChangeRequestC1Ev
alita.node:_ZN5alita23LoginStateChangeRequestC2ERKS0_
alita.node:_ZN5alita23LoginStateChangeRequestC2Ev
alita.node:_ZN5alita23LoginStateChangeRequestD0Ev
alita.node:_ZN5alita23LoginStateChangeRequestD1Ev
alita.node:_ZN5alita23LoginStateChangeRequestD2Ev
alita.node:_ZN5alita23MessageDataType_IsValidEi
alita.node:_ZN5alita23RecordFromScene_IsValidEi
alita.node:_ZN5alita23SendEmojiMessageRequest10SharedCtorEv
alita.node:_ZN5alita23SendEmojiMessageRequest10SharedDtorEv
alita.node:_ZN5alita23SendEmojiMessageRequest16default_instanceEv
alita.node:_ZN5alita23SendEmojiMessageRequest17default_instance_E
alita.node:_ZN5alita23SendEmojiMessageRequest18kTaskIdFieldNumberE
alita.node:_ZN5alita23SendEmojiMessageRequest20kEmojiMd5FieldNumberE
alita.node:_ZN5alita23SendEmojiMessageRequest20kUsernameFieldNumberE
alita.node:_ZN5alita23SendEmojiMessageRequest21CheckTypeAndMergeFromERKN7tencent8protobuf11MessageLiteE
alita.node:_ZN5alita23SendEmojiMessageRequest21InitAsDefaultInstanceEv
alita.node:_ZN5alita23SendEmojiMessageRequest27MergePartialFromCodedStreamEPN7tencent8protobuf2io16CodedInputStreamE
alita.node:_ZN5alita23SendEmojiMessageRequest4SwapEPS0_
alita.node:_ZN5alita23SendEmojiMessageRequest5ClearEv
alita.node:_ZN5alita23SendEmojiMessageRequest8CopyFromERKS0_
alita.node:_ZN5alita23SendEmojiMessageRequest9MergeFromERKS0_
alita.node:_ZN5alita23SendEmojiMessageRequestC1ERKS0_
alita.node:_ZN5alita23SendEmojiMessageRequestC1Ev
alita.node:_ZN5alita23SendEmojiMessageRequestC2ERKS0_
alita.node:_ZN5alita23SendEmojiMessageRequestC2Ev
alita.node:_ZN5alita23SendEmojiMessageRequestD0Ev
alita.node:_ZN5alita23SendEmojiMessageRequestD1Ev
alita.node:_ZN5alita23SendEmojiMessageRequestD2Ev
alita.node:_ZN5alita23SendImageMessageRequest10SharedCtorEv
alita.node:_ZN5alita23SendImageMessageRequest10SharedDtorEv
alita.node:_ZN5alita23SendImageMessageRequest16default_instanceEv
alita.node:_ZN5alita23SendImageMessageRequest17default_instance_E
alita.node:_ZN5alita23SendImageMessageRequest18kTaskIdFieldNumberE
alita.node:_ZN5alita23SendImageMessageRequest20kIsSendHdFieldNumberE
alita.node:_ZN5alita23SendImageMessageRequest20kUsernameFieldNumberE
alita.node:_ZN5alita23SendImageMessageRequest21CheckTypeAndMergeFromERKN7tencent8protobuf11MessageLiteE
alita.node:_ZN5alita23SendImageMessageRequest21InitAsDefaultInstanceEv
alita.node:_ZN5alita23SendImageMessageRequest21kMediaPathFieldNumberE
alita.node:_ZN5alita23SendImageMessageRequest25kThumbnailPathFieldNumberE
alita.node:_ZN5alita23SendImageMessageRequest27MergePartialFromCodedStreamEPN7tencent8protobuf2io16CodedInputStreamE
alita.node:_ZN5alita23SendImageMessageRequest4SwapEPS0_
alita.node:_ZN5alita23SendImageMessageRequest5ClearEv
alita.node:_ZN5alita23SendImageMessageRequest8CopyFromERKS0_
alita.node:_ZN5alita23SendImageMessageRequest9MergeFromERKS0_
alita.node:_ZN5alita23SendImageMessageRequestC1ERKS0_
alita.node:_ZN5alita23SendImageMessageRequestC1Ev
alita.node:_ZN5alita23SendImageMessageRequestC2ERKS0_
alita.node:_ZN5alita23SendImageMessageRequestC2Ev
alita.node:_ZN5alita23SendImageMessageRequestD0Ev
alita.node:_ZN5alita23SendImageMessageRequestD1Ev
alita.node:_ZN5alita23SendImageMessageRequestD2Ev
alita.node:_ZN5alita23SendTextMessageResponse10SharedCtorEv
alita.node:_ZN5alita23SendTextMessageResponse10SharedDtorEv
alita.node:_ZN5alita23SendTextMessageResponse16default_instanceEv
alita.node:_ZN5alita23SendTextMessageResponse17default_instance_E
alita.node:_ZN5alita23SendTextMessageResponse17kMsgIdFieldNumberE
alita.node:_ZN5alita23SendTextMessageResponse18kErrMsgFieldNumberE
alita.node:_ZN5alita23SendTextMessageResponse18kTaskIdFieldNumberE
alita.node:_ZN5alita23SendTextMessageResponse19kErrCodeFieldNumberE
alita.node:_ZN5alita23SendTextMessageResponse21CheckTypeAndMergeFromERKN7tencent8protobuf11MessageLiteE
alita.node:_ZN5alita23SendTextMessageResponse21InitAsDefaultInstanceEv
alita.node:_ZN5alita23SendTextMessageResponse27MergePartialFromCodedStreamEPN7tencent8protobuf2io16CodedInputStreamE
alita.node:_ZN5alita23SendTextMessageResponse4SwapEPS0_
alita.node:_ZN5alita23SendTextMessageResponse5ClearEv
alita.node:_ZN5alita23SendTextMessageResponse8CopyFromERKS0_
alita.node:_ZN5alita23SendTextMessageResponse9MergeFromERKS0_
alita.node:_ZN5alita23SendTextMessageResponseC1ERKS0_
alita.node:_ZN5alita23SendTextMessageResponseC1Ev
alita.node:_ZN5alita23SendTextMessageResponseC2ERKS0_
alita.node:_ZN5alita23SendTextMessageResponseC2Ev
alita.node:_ZN5alita23SendTextMessageResponseD0Ev
alita.node:_ZN5alita23SendTextMessageResponseD1Ev
alita.node:_ZN5alita23SendTextMessageResponseD2Ev
alita.node:_ZN5alita23SendVideoMessageRequest10SharedCtorEv
alita.node:_ZN5alita23SendVideoMessageRequest10SharedDtorEv
alita.node:_ZN5alita23SendVideoMessageRequest16default_instanceEv
alita.node:_ZN5alita23SendVideoMessageRequest17default_instance_E
alita.node:_ZN5alita23SendVideoMessageRequest18kTaskIdFieldNumberE
alita.node:_ZN5alita23SendVideoMessageRequest20kIsSendHdFieldNumberE
alita.node:_ZN5alita23SendVideoMessageRequest20kUsernameFieldNumberE
alita.node:_ZN5alita23SendVideoMessageRequest21CheckTypeAndMergeFromERKN7tencent8protobuf11MessageLiteE
alita.node:_ZN5alita23SendVideoMessageRequest21InitAsDefaultInstanceEv
alita.node:_ZN5alita23SendVideoMessageRequest21kVideoInfoFieldNumberE
alita.node:_ZN5alita23SendVideoMessageRequest27MergePartialFromCodedStreamEPN7tencent8protobuf2io16CodedInputStreamE
alita.node:_ZN5alita23SendVideoMessageRequest4SwapEPS0_
alita.node:_ZN5alita23SendVideoMessageRequest5ClearEv
alita.node:_ZN5alita23SendVideoMessageRequest8CopyFromERKS0_
alita.node:_ZN5alita23SendVideoMessageRequest9MergeFromERKS0_
alita.node:_ZN5alita23SendVideoMessageRequestC1ERKS0_
alita.node:_ZN5alita23SendVideoMessageRequestC1Ev
alita.node:_ZN5alita23SendVideoMessageRequestC2ERKS0_
alita.node:_ZN5alita23SendVideoMessageRequestC2Ev
alita.node:_ZN5alita23SendVideoMessageRequestD0Ev
alita.node:_ZN5alita23SendVideoMessageRequestD1Ev
alita.node:_ZN5alita23SendVideoMessageRequestD2Ev
alita.node:_ZN5alita23SendVoiceMessageRequest10SharedCtorEv
alita.node:_ZN5alita23SendVoiceMessageRequest10SharedDtorEv
alita.node:_ZN5alita23SendVoiceMessageRequest16default_instanceEv
alita.node:_ZN5alita23SendVoiceMessageRequest17default_instance_E
alita.node:_ZN5alita23SendVoiceMessageRequest18kFormatFieldNumberE
alita.node:_ZN5alita23SendVoiceMessageRequest18kTaskIdFieldNumberE
alita.node:_ZN5alita23SendVoiceMessageRequest20kUsernameFieldNumberE
alita.node:_ZN5alita23SendVoiceMessageRequest21CheckTypeAndMergeFromERKN7tencent8protobuf11MessageLiteE
alita.node:_ZN5alita23SendVoiceMessageRequest21InitAsDefaultInstanceEv
alita.node:_ZN5alita23SendVoiceMessageRequest23kVoiceLengthFieldNumberE
alita.node:_ZN5alita23SendVoiceMessageRequest25kVoiceFilePathFieldNumberE
alita.node:_ZN5alita23SendVoiceMessageRequest27MergePartialFromCodedStreamEPN7tencent8protobuf2io16CodedInputStreamE
alita.node:_ZN5alita23SendVoiceMessageRequest4SwapEPS0_
alita.node:_ZN5alita23SendVoiceMessageRequest5ClearEv
alita.node:_ZN5alita23SendVoiceMessageRequest8CopyFromERKS0_
alita.node:_ZN5alita23SendVoiceMessageRequest9MergeFromERKS0_
alita.node:_ZN5alita23SendVoiceMessageRequestC1ERKS0_
alita.node:_ZN5alita23SendVoiceMessageRequestC1Ev
alita.node:_ZN5alita23SendVoiceMessageRequestC2ERKS0_
alita.node:_ZN5alita23SendVoiceMessageRequestC2Ev
alita.node:_ZN5alita23SendVoiceMessageRequestD0Ev
alita.node:_ZN5alita23SendVoiceMessageRequestD1Ev
alita.node:_ZN5alita23SendVoiceMessageRequestD2Ev
alita.node:_ZN5alita23SetContactOnTopResponse10SharedCtorEv
alita.node:_ZN5alita23SetContactOnTopResponse10SharedDtorEv
alita.node:_ZN5alita23SetContactOnTopResponse16default_instanceEv
alita.node:_ZN5alita23SetContactOnTopResponse17default_instance_E
alita.node:_ZN5alita23SetContactOnTopResponse18kErrMsgFieldNumberE
alita.node:_ZN5alita23SetContactOnTopResponse18kTaskIdFieldNumberE
alita.node:_ZN5alita23SetContactOnTopResponse19kErrCodeFieldNumberE
alita.node:_ZN5alita23SetContactOnTopResponse21CheckTypeAndMergeFromERKN7tencent8protobuf11MessageLiteE
alita.node:_ZN5alita23SetContactOnTopResponse21InitAsDefaultInstanceEv
alita.node:_ZN5alita23SetContactOnTopResponse27MergePartialFromCodedStreamEPN7tencent8protobuf2io16CodedInputStreamE
alita.node:_ZN5alita23SetContactOnTopResponse4SwapEPS0_
alita.node:_ZN5alita23SetContactOnTopResponse5ClearEv
alita.node:_ZN5alita23SetContactOnTopResponse8CopyFromERKS0_
alita.node:_ZN5alita23SetContactOnTopResponse9MergeFromERKS0_
alita.node:_ZN5alita23SetContactOnTopResponseC1ERKS0_
alita.node:_ZN5alita23SetContactOnTopResponseC1Ev
alita.node:_ZN5alita23SetContactOnTopResponseC2ERKS0_
alita.node:_ZN5alita23SetContactOnTopResponseC2Ev
alita.node:_ZN5alita23SetContactOnTopResponseD0Ev
alita.node:_ZN5alita23SetContactOnTopResponseD1Ev
alita.node:_ZN5alita23SetContactOnTopResponseD2Ev
alita.node:_ZN5alita23SetRoomInContactRequest10SharedCtorEv
alita.node:_ZN5alita23SetRoomInContactRequest10SharedDtorEv
alita.node:_ZN5alita23SetRoomInContactRequest16default_instanceEv
alita.node:_ZN5alita23SetRoomInContactRequest17default_instance_E
alita.node:_ZN5alita23SetRoomInContactRequest18kTaskIdFieldNumberE
alita.node:_ZN5alita23SetRoomInContactRequest21CheckTypeAndMergeFromERKN7tencent8protobuf11MessageLiteE
alita.node:_ZN5alita23SetRoomInContactRequest21InitAsDefaultInstanceEv
alita.node:_ZN5alita23SetRoomInContactRequest23kIsInContactFieldNumberE
alita.node:_ZN5alita23SetRoomInContactRequest24kRoomUsernameFieldNumberE
alita.node:_ZN5alita23SetRoomInContactRequest27MergePartialFromCodedStreamEPN7tencent8protobuf2io16CodedInputStreamE
alita.node:_ZN5alita23SetRoomInContactRequest4SwapEPS0_
alita.node:_ZN5alita23SetRoomInContactRequest5ClearEv
alita.node:_ZN5alita23SetRoomInContactRequest8CopyFromERKS0_
alita.node:_ZN5alita23SetRoomInContactRequest9MergeFromERKS0_
alita.node:_ZN5alita23SetRoomInContactRequestC1ERKS0_
alita.node:_ZN5alita23SetRoomInContactRequestC1Ev
alita.node:_ZN5alita23SetRoomInContactRequestC2ERKS0_
alita.node:_ZN5alita23SetRoomInContactRequestC2Ev
alita.node:_ZN5alita23SetRoomInContactRequestD0Ev
alita.node:_ZN5alita23SetRoomInContactRequestD1Ev
alita.node:_ZN5alita23SetRoomInContactRequestD2Ev
alita.node:_ZN5alita23SetRoomNickNameResponse10SharedCtorEv
alita.node:_ZN5alita23SetRoomNickNameResponse10SharedDtorEv
alita.node:_ZN5alita23SetRoomNickNameResponse16default_instanceEv
alita.node:_ZN5alita23SetRoomNickNameResponse17default_instance_E
alita.node:_ZN5alita23SetRoomNickNameResponse18kErrMsgFieldNumberE
alita.node:_ZN5alita23SetRoomNickNameResponse18kTaskIdFieldNumberE
alita.node:_ZN5alita23SetRoomNickNameResponse19kErrCodeFieldNumberE
alita.node:_ZN5alita23SetRoomNickNameResponse21CheckTypeAndMergeFromERKN7tencent8protobuf11MessageLiteE
alita.node:_ZN5alita23SetRoomNickNameResponse21InitAsDefaultInstanceEv
alita.node:_ZN5alita23SetRoomNickNameResponse27MergePartialFromCodedStreamEPN7tencent8protobuf2io16CodedInputStreamE
alita.node:_ZN5alita23SetRoomNickNameResponse4SwapEPS0_
alita.node:_ZN5alita23SetRoomNickNameResponse5ClearEv
alita.node:_ZN5alita23SetRoomNickNameResponse8CopyFromERKS0_
alita.node:_ZN5alita23SetRoomNickNameResponse9MergeFromERKS0_
alita.node:_ZN5alita23SetRoomNickNameResponseC1ERKS0_
alita.node:_ZN5alita23SetRoomNickNameResponseC1Ev
alita.node:_ZN5alita23SetRoomNickNameResponseC2ERKS0_
alita.node:_ZN5alita23SetRoomNickNameResponseC2Ev
alita.node:_ZN5alita23SetRoomNickNameResponseD0Ev
alita.node:_ZN5alita23SetRoomNickNameResponseD1Ev
alita.node:_ZN5alita23SetRoomNickNameResponseD2Ev
alita.node:_ZN5alita23ShareAppMessageResponse10SharedCtorEv
alita.node:_ZN5alita23ShareAppMessageResponse10SharedDtorEv
alita.node:_ZN5alita23ShareAppMessageResponse16default_instanceEv
alita.node:_ZN5alita23ShareAppMessageResponse17default_instance_E
alita.node:_ZN5alita23ShareAppMessageResponse18kErrMsgFieldNumberE
alita.node:_ZN5alita23ShareAppMessageResponse18kTaskIdFieldNumberE
alita.node:_ZN5alita23ShareAppMessageResponse19kErrCodeFieldNumberE
alita.node:_ZN5alita23ShareAppMessageResponse21CheckTypeAndMergeFromERKN7tencent8protobuf11MessageLiteE
alita.node:_ZN5alita23ShareAppMessageResponse21InitAsDefaultInstanceEv
alita.node:_ZN5alita23ShareAppMessageResponse27MergePartialFromCodedStreamEPN7tencent8protobuf2io16CodedInputStreamE
alita.node:_ZN5alita23ShareAppMessageResponse4SwapEPS0_
alita.node:_ZN5alita23ShareAppMessageResponse5ClearEv
alita.node:_ZN5alita23ShareAppMessageResponse8CopyFromERKS0_
alita.node:_ZN5alita23ShareAppMessageResponse9MergeFromERKS0_
alita.node:_ZN5alita23ShareAppMessageResponseC1ERKS0_
alita.node:_ZN5alita23ShareAppMessageResponseC1Ev
alita.node:_ZN5alita23ShareAppMessageResponseC2ERKS0_
alita.node:_ZN5alita23ShareAppMessageResponseC2Ev
alita.node:_ZN5alita23ShareAppMessageResponseD0Ev
alita.node:_ZN5alita23ShareAppMessageResponseD1Ev
alita.node:_ZN5alita23ShareAppMessageResponseD2Ev
alita.node:_ZN5alita23ShareFileMessageRequest10SharedCtorEv
alita.node:_ZN5alita23ShareFileMessageRequest10SharedDtorEv
alita.node:_ZN5alita23ShareFileMessageRequest16default_instanceEv
alita.node:_ZN5alita23ShareFileMessageRequest17default_instance_E
alita.node:_ZN5alita23ShareFileMessageRequest18kTaskIdFieldNumberE
alita.node:_ZN5alita23ShareFileMessageRequest19kAppInfoFieldNumberE
alita.node:_ZN5alita23ShareFileMessageRequest19kMsgInfoFieldNumberE
alita.node:_ZN5alita23ShareFileMessageRequest20kFilePathFieldNumberE
alita.node:_ZN5alita23ShareFileMessageRequest20kUsernameFieldNumberE
alita.node:_ZN5alita23ShareFileMessageRequest21CheckTypeAndMergeFromERKN7tencent8protobuf11MessageLiteE
alita.node:_ZN5alita23ShareFileMessageRequest21InitAsDefaultInstanceEv
alita.node:_ZN5alita23ShareFileMessageRequest27MergePartialFromCodedStreamEPN7tencent8protobuf2io16CodedInputStreamE
alita.node:_ZN5alita23ShareFileMessageRequest4SwapEPS0_
alita.node:_ZN5alita23ShareFileMessageRequest5ClearEv
alita.node:_ZN5alita23ShareFileMessageRequest8CopyFromERKS0_
alita.node:_ZN5alita23ShareFileMessageRequest9MergeFromERKS0_
alita.node:_ZN5alita23ShareFileMessageRequestC1ERKS0_
alita.node:_ZN5alita23ShareFileMessageRequestC1Ev
alita.node:_ZN5alita23ShareFileMessageRequestC2ERKS0_
alita.node:_ZN5alita23ShareFileMessageRequestC2Ev
alita.node:_ZN5alita23ShareFileMessageRequestD0Ev
alita.node:_ZN5alita23ShareFileMessageRequestD1Ev
alita.node:_ZN5alita23ShareFileMessageRequestD2Ev
alita.node:_ZN5alita23ShareTextMessageRequest10SharedCtorEv
alita.node:_ZN5alita23ShareTextMessageRequest10SharedDtorEv
alita.node:_ZN5alita23ShareTextMessageRequest16default_instanceEv
alita.node:_ZN5alita23ShareTextMessageRequest17default_instance_E
alita.node:_ZN5alita23ShareTextMessageRequest18kTaskIdFieldNumberE
alita.node:_ZN5alita23ShareTextMessageRequest19kAppInfoFieldNumberE
alita.node:_ZN5alita23ShareTextMessageRequest20kUsernameFieldNumberE
alita.node:_ZN5alita23ShareTextMessageRequest21CheckTypeAndMergeFromERKN7tencent8protobuf11MessageLiteE
alita.node:_ZN5alita23ShareTextMessageRequest21InitAsDefaultInstanceEv
alita.node:_ZN5alita23ShareTextMessageRequest23kTextContentFieldNumberE
alita.node:_ZN5alita23ShareTextMessageRequest27MergePartialFromCodedStreamEPN7tencent8protobuf2io16CodedInputStreamE
alita.node:_ZN5alita23ShareTextMessageRequest4SwapEPS0_
alita.node:_ZN5alita23ShareTextMessageRequest5ClearEv
alita.node:_ZN5alita23ShareTextMessageRequest8CopyFromERKS0_
alita.node:_ZN5alita23ShareTextMessageRequest9MergeFromERKS0_
alita.node:_ZN5alita23ShareTextMessageRequestC1ERKS0_
alita.node:_ZN5alita23ShareTextMessageRequestC1Ev
alita.node:_ZN5alita23ShareTextMessageRequestC2ERKS0_
alita.node:_ZN5alita23ShareTextMessageRequestC2Ev
alita.node:_ZN5alita23ShareTextMessageRequestD0Ev
alita.node:_ZN5alita23ShareTextMessageRequestD1Ev
alita.node:_ZN5alita23ShareTextMessageRequestD2Ev
alita.node:_ZN5alita23ShareUrlMessageResponse10SharedCtorEv
alita.node:_ZN5alita23ShareUrlMessageResponse10SharedDtorEv
alita.node:_ZN5alita23ShareUrlMessageResponse16default_instanceEv
alita.node:_ZN5alita23ShareUrlMessageResponse17default_instance_E
alita.node:_ZN5alita23ShareUrlMessageResponse18kErrMsgFieldNumberE
alita.node:_ZN5alita23ShareUrlMessageResponse18kTaskIdFieldNumberE
alita.node:_ZN5alita23ShareUrlMessageResponse19kErrCodeFieldNumberE
alita.node:_ZN5alita23ShareUrlMessageResponse21CheckTypeAndMergeFromERKN7tencent8protobuf11MessageLiteE
alita.node:_ZN5alita23ShareUrlMessageResponse21InitAsDefaultInstanceEv
alita.node:_ZN5alita23ShareUrlMessageResponse27MergePartialFromCodedStreamEPN7tencent8protobuf2io16CodedInputStreamE
alita.node:_ZN5alita23ShareUrlMessageResponse4SwapEPS0_
alita.node:_ZN5alita23ShareUrlMessageResponse5ClearEv
alita.node:_ZN5alita23ShareUrlMessageResponse8CopyFromERKS0_
alita.node:_ZN5alita23ShareUrlMessageResponse9MergeFromERKS0_
alita.node:_ZN5alita23ShareUrlMessageResponseC1ERKS0_
alita.node:_ZN5alita23ShareUrlMessageResponseC1Ev
alita.node:_ZN5alita23ShareUrlMessageResponseC2ERKS0_
alita.node:_ZN5alita23ShareUrlMessageResponseC2Ev
alita.node:_ZN5alita23ShareUrlMessageResponseD0Ev
alita.node:_ZN5alita23ShareUrlMessageResponseD1Ev
alita.node:_ZN5alita23ShareUrlMessageResponseD2Ev
alita.node:_ZN5alita23VoipMessageType_IsValidEi
alita.node:_ZN5alita24AudioFormatChangeRequest10SharedCtorEv
alita.node:_ZN5alita24AudioFormatChangeRequest10SharedDtorEv
alita.node:_ZN5alita24AudioFormatChangeRequest16default_instanceEv
alita.node:_ZN5alita24AudioFormatChangeRequest17default_instance_E
alita.node:_ZN5alita24AudioFormatChangeRequest21CheckTypeAndMergeFromERKN7tencent8protobuf11MessageLiteE
alita.node:_ZN5alita24AudioFormatChangeRequest21InitAsDefaultInstanceEv
alita.node:_ZN5alita24AudioFormatChangeRequest22kSampleRateFieldNumberE
alita.node:_ZN5alita24AudioFormatChangeRequest25kSampleLenInMsFieldNumberE
alita.node:_ZN5alita24AudioFormatChangeRequest27MergePartialFromCodedStreamEPN7tencent8protobuf2io16CodedInputStreamE
alita.node:_ZN5alita24AudioFormatChangeRequest4SwapEPS0_
alita.node:_ZN5alita24AudioFormatChangeRequest5ClearEv
alita.node:_ZN5alita24AudioFormatChangeRequest8CopyFromERKS0_
alita.node:_ZN5alita24AudioFormatChangeRequest9MergeFromERKS0_
alita.node:_ZN5alita24AudioFormatChangeRequestC1ERKS0_
alita.node:_ZN5alita24AudioFormatChangeRequestC1Ev
alita.node:_ZN5alita24AudioFormatChangeRequestC2ERKS0_
alita.node:_ZN5alita24AudioFormatChangeRequestC2Ev
alita.node:_ZN5alita24AudioFormatChangeRequestD0Ev
alita.node:_ZN5alita24AudioFormatChangeRequestD1Ev
alita.node:_ZN5alita24AudioFormatChangeRequestD2Ev
alita.node:_ZN5alita24CancelSendMessageRequest10SharedCtorEv
alita.node:_ZN5alita24CancelSendMessageRequest10SharedDtorEv
alita.node:_ZN5alita24CancelSendMessageRequest16default_instanceEv
alita.node:_ZN5alita24CancelSendMessageRequest17default_instance_E
alita.node:_ZN5alita24CancelSendMessageRequest17kMsgIdFieldNumberE
alita.node:_ZN5alita24CancelSendMessageRequest21CheckTypeAndMergeFromERKN7tencent8protobuf11MessageLiteE
alita.node:_ZN5alita24CancelSendMessageRequest21InitAsDefaultInstanceEv
alita.node:_ZN5alita24CancelSendMessageRequest27MergePartialFromCodedStreamEPN7tencent8protobuf2io16CodedInputStreamE
alita.node:_ZN5alita24CancelSendMessageRequest4SwapEPS0_
alita.node:_ZN5alita24CancelSendMessageRequest5ClearEv
alita.node:_ZN5alita24CancelSendMessageRequest8CopyFromERKS0_
alita.node:_ZN5alita24CancelSendMessageRequest9MergeFromERKS0_
alita.node:_ZN5alita24CancelSendMessageRequestC1ERKS0_
alita.node:_ZN5alita24CancelSendMessageRequestC1Ev
alita.node:_ZN5alita24CancelSendMessageRequestC2ERKS0_
alita.node:_ZN5alita24CancelSendMessageRequestC2Ev
alita.node:_ZN5alita24CancelSendMessageRequestD0Ev
alita.node:_ZN5alita24CancelSendMessageRequestD1Ev
alita.node:_ZN5alita24CancelSendMessageRequestD2Ev
alita.node:_ZN5alita24DeleteRoomMemberResponse10SharedCtorEv
alita.node:_ZN5alita24DeleteRoomMemberResponse10SharedDtorEv
alita.node:_ZN5alita24DeleteRoomMemberResponse16default_instanceEv
alita.node:_ZN5alita24DeleteRoomMemberResponse17default_instance_E
alita.node:_ZN5alita24DeleteRoomMemberResponse18kErrMsgFieldNumberE
alita.node:_ZN5alita24DeleteRoomMemberResponse18kTaskIdFieldNumberE
alita.node:_ZN5alita24DeleteRoomMemberResponse19kErrCodeFieldNumberE
alita.node:_ZN5alita24DeleteRoomMemberResponse21CheckTypeAndMergeFromERKN7tencent8protobuf11MessageLiteE
alita.node:_ZN5alita24DeleteRoomMemberResponse21InitAsDefaultInstanceEv
alita.node:_ZN5alita24DeleteRoomMemberResponse27MergePartialFromCodedStreamEPN7tencent8protobuf2io16CodedInputStreamE
alita.node:_ZN5alita24DeleteRoomMemberResponse4SwapEPS0_
alita.node:_ZN5alita24DeleteRoomMemberResponse5ClearEv
alita.node:_ZN5alita24DeleteRoomMemberResponse8CopyFromERKS0_
alita.node:_ZN5alita24DeleteRoomMemberResponse9MergeFromERKS0_
alita.node:_ZN5alita24DeleteRoomMemberResponseC1ERKS0_
alita.node:_ZN5alita24DeleteRoomMemberResponseC1Ev
alita.node:_ZN5alita24DeleteRoomMemberResponseC2ERKS0_
alita.node:_ZN5alita24DeleteRoomMemberResponseC2Ev
alita.node:_ZN5alita24DeleteRoomMemberResponseD0Ev
alita.node:_ZN5alita24DeleteRoomMemberResponseD1Ev
alita.node:_ZN5alita24DeleteRoomMemberResponseD2Ev
alita.node:_ZN5alita24EmojiGameExtType_IsValidEi
alita.node:_ZN5alita24EnterConversationRequest10SharedCtorEv
alita.node:_ZN5alita24EnterConversationRequest10SharedDtorEv
alita.node:_ZN5alita24EnterConversationRequest16default_instanceEv
alita.node:_ZN5alita24EnterConversationRequest17default_instance_E
alita.node:_ZN5alita24EnterConversationRequest21CheckTypeAndMergeFromERKN7tencent8protobuf11MessageLiteE
alita.node:_ZN5alita24EnterConversationRequest21InitAsDefaultInstanceEv
alita.node:_ZN5alita24EnterConversationRequest23kIsUpdateSeqFieldNumberE
alita.node:_ZN5alita24EnterConversationRequest27MergePartialFromCodedStreamEPN7tencent8protobuf2io16CodedInputStreamE
alita.node:_ZN5alita24EnterConversationRequest28kConversationNameFieldNumberE
alita.node:_ZN5alita24EnterConversationRequest4SwapEPS0_
alita.node:_ZN5alita24EnterConversationRequest5ClearEv
alita.node:_ZN5alita24EnterConversationRequest8CopyFromERKS0_
alita.node:_ZN5alita24EnterConversationRequest9MergeFromERKS0_
alita.node:_ZN5alita24EnterConversationRequestC1ERKS0_
alita.node:_ZN5alita24EnterConversationRequestC1Ev
alita.node:_ZN5alita24EnterConversationRequestC2ERKS0_
alita.node:_ZN5alita24EnterConversationRequestC2Ev
alita.node:_ZN5alita24EnterConversationRequestD0Ev
alita.node:_ZN5alita24EnterConversationRequestD1Ev
alita.node:_ZN5alita24EnterConversationRequestD2Ev
alita.node:_ZN5alita24GetChatRoomDetailRequest10SharedCtorEv
alita.node:_ZN5alita24GetChatRoomDetailRequest10SharedDtorEv
alita.node:_ZN5alita24GetChatRoomDetailRequest16default_instanceEv
alita.node:_ZN5alita24GetChatRoomDetailRequest17default_instance_E
alita.node:_ZN5alita24GetChatRoomDetailRequest21CheckTypeAndMergeFromERKN7tencent8protobuf11MessageLiteE
alita.node:_ZN5alita24GetChatRoomDetailRequest21InitAsDefaultInstanceEv
alita.node:_ZN5alita24GetChatRoomDetailRequest24kRoomUsernameFieldNumberE
alita.node:_ZN5alita24GetChatRoomDetailRequest27MergePartialFromCodedStreamEPN7tencent8protobuf2io16CodedInputStreamE
alita.node:_ZN5alita24GetChatRoomDetailRequest4SwapEPS0_
alita.node:_ZN5alita24GetChatRoomDetailRequest5ClearEv
alita.node:_ZN5alita24GetChatRoomDetailRequest8CopyFromERKS0_
alita.node:_ZN5alita24GetChatRoomDetailRequest9MergeFromERKS0_
alita.node:_ZN5alita24GetChatRoomDetailRequestC1ERKS0_
alita.node:_ZN5alita24GetChatRoomDetailRequestC1Ev
alita.node:_ZN5alita24GetChatRoomDetailRequestC2ERKS0_
alita.node:_ZN5alita24GetChatRoomDetailRequestC2Ev
alita.node:_ZN5alita24GetChatRoomDetailRequestD0Ev
alita.node:_ZN5alita24GetChatRoomDetailRequestD1Ev
alita.node:_ZN5alita24GetChatRoomDetailRequestD2Ev
alita.node:_ZN5alita24GetChatRoomMemberRequest10SharedCtorEv
alita.node:_ZN5alita24GetChatRoomMemberRequest10SharedDtorEv
alita.node:_ZN5alita24GetChatRoomMemberRequest16default_instanceEv
alita.node:_ZN5alita24GetChatRoomMemberRequest17default_instance_E
alita.node:_ZN5alita24GetChatRoomMemberRequest21CheckTypeAndMergeFromERKN7tencent8protobuf11MessageLiteE
alita.node:_ZN5alita24GetChatRoomMemberRequest21InitAsDefaultInstanceEv
alita.node:_ZN5alita24GetChatRoomMemberRequest24kRoomUsernameFieldNumberE
alita.node:_ZN5alita24GetChatRoomMemberRequest26kMemberUsernameFieldNumberE
alita.node:_ZN5alita24GetChatRoomMemberRequest27MergePartialFromCodedStreamEPN7tencent8protobuf2io16CodedInputStreamE
alita.node:_ZN5alita24GetChatRoomMemberRequest4SwapEPS0_
alita.node:_ZN5alita24GetChatRoomMemberRequest5ClearEv
alita.node:_ZN5alita24GetChatRoomMemberRequest8CopyFromERKS0_
alita.node:_ZN5alita24GetChatRoomMemberRequest9MergeFromERKS0_
alita.node:_ZN5alita24GetChatRoomMemberRequestC1ERKS0_
alita.node:_ZN5alita24GetChatRoomMemberRequestC1Ev
alita.node:_ZN5alita24GetChatRoomMemberRequestC2ERKS0_
alita.node:_ZN5alita24GetChatRoomMemberRequestC2Ev
alita.node:_ZN5alita24GetChatRoomMemberRequestD0Ev
alita.node:_ZN5alita24GetChatRoomMemberRequestD1Ev
alita.node:_ZN5alita24GetChatRoomMemberRequestD2Ev
alita.node:_ZN5alita24GetDynamicConfigResponse10SharedCtorEv
alita.node:_ZN5alita24GetDynamicConfigResponse10SharedDtorEv
alita.node:_ZN5alita24GetDynamicConfigResponse16default_instanceEv
alita.node:_ZN5alita24GetDynamicConfigResponse17default_instance_E
alita.node:_ZN5alita24GetDynamicConfigResponse21CheckTypeAndMergeFromERKN7tencent8protobuf11MessageLiteE
alita.node:_ZN5alita24GetDynamicConfigResponse21InitAsDefaultInstanceEv
alita.node:_ZN5alita24GetDynamicConfigResponse22kConfigListFieldNumberE
alita.node:_ZN5alita24GetDynamicConfigResponse27MergePartialFromCodedStreamEPN7tencent8protobuf2io16CodedInputStreamE
alita.node:_ZN5alita24GetDynamicConfigResponse4SwapEPS0_
alita.node:_ZN5alita24GetDynamicConfigResponse5ClearEv
alita.node:_ZN5alita24GetDynamicConfigResponse8CopyFromERKS0_
alita.node:_ZN5alita24GetDynamicConfigResponse9MergeFromERKS0_
alita.node:_ZN5alita24GetDynamicConfigResponseC1ERKS0_
alita.node:_ZN5alita24GetDynamicConfigResponseC1Ev
alita.node:_ZN5alita24GetDynamicConfigResponseC2ERKS0_
alita.node:_ZN5alita24GetDynamicConfigResponseC2Ev
alita.node:_ZN5alita24GetDynamicConfigResponseD0Ev
alita.node:_ZN5alita24GetDynamicConfigResponseD1Ev
alita.node:_ZN5alita24GetDynamicConfigResponseD2Ev
alita.node:_ZN5alita24GetMemberContactResponse10SharedCtorEv
alita.node:_ZN5alita24GetMemberContactResponse10SharedDtorEv
alita.node:_ZN5alita24GetMemberContactResponse16default_instanceEv
alita.node:_ZN5alita24GetMemberContactResponse17default_instance_E
alita.node:_ZN5alita24GetMemberContactResponse19kContactFieldNumberE
alita.node:_ZN5alita24GetMemberContactResponse21CheckTypeAndMergeFromERKN7tencent8protobuf11MessageLiteE
alita.node:_ZN5alita24GetMemberContactResponse21InitAsDefaultInstanceEv
alita.node:_ZN5alita24GetMemberContactResponse27MergePartialFromCodedStreamEPN7tencent8protobuf2io16CodedInputStreamE
alita.node:_ZN5alita24GetMemberContactResponse4SwapEPS0_
alita.node:_ZN5alita24GetMemberContactResponse5ClearEv
alita.node:_ZN5alita24GetMemberContactResponse8CopyFromERKS0_
alita.node:_ZN5alita24GetMemberContactResponse9MergeFromERKS0_
alita.node:_ZN5alita24GetMemberContactResponseC1ERKS0_
alita.node:_ZN5alita24GetMemberContactResponseC1Ev
alita.node:_ZN5alita24GetMemberContactResponseC2ERKS0_
alita.node:_ZN5alita24GetMemberContactResponseC2Ev
alita.node:_ZN5alita24GetMemberContactResponseD0Ev
alita.node:_ZN5alita24GetMemberContactResponseD1Ev
alita.node:_ZN5alita24GetMemberContactResponseD2Ev
alita.node:_ZN5alita24GetVerifyContactResponse10SharedCtorEv
alita.node:_ZN5alita24GetVerifyContactResponse10SharedDtorEv
alita.node:_ZN5alita24GetVerifyContactResponse16default_instanceEv
alita.node:_ZN5alita24GetVerifyContactResponse17default_instance_E
alita.node:_ZN5alita24GetVerifyContactResponse21CheckTypeAndMergeFromERKN7tencent8protobuf11MessageLiteE
alita.node:_ZN5alita24GetVerifyContactResponse21InitAsDefaultInstanceEv
alita.node:_ZN5alita24GetVerifyContactResponse25kVerifyContactFieldNumberE
alita.node:_ZN5alita24GetVerifyContactResponse27MergePartialFromCodedStreamEPN7tencent8protobuf2io16CodedInputStreamE
alita.node:_ZN5alita24GetVerifyContactResponse4SwapEPS0_
alita.node:_ZN5alita24GetVerifyContactResponse5ClearEv
alita.node:_ZN5alita24GetVerifyContactResponse8CopyFromERKS0_
alita.node:_ZN5alita24GetVerifyContactResponse9MergeFromERKS0_
alita.node:_ZN5alita24GetVerifyContactResponseC1ERKS0_
alita.node:_ZN5alita24GetVerifyContactResponseC1Ev
alita.node:_ZN5alita24GetVerifyContactResponseC2ERKS0_
alita.node:_ZN5alita24GetVerifyContactResponseC2Ev
alita.node:_ZN5alita24GetVerifyContactResponseD0Ev
alita.node:_ZN5alita24GetVerifyContactResponseD1Ev
alita.node:_ZN5alita24GetVerifyContactResponseD2Ev
alita.node:_ZN5alita24HandOffMasterMiniProgram10SharedCtorEv
alita.node:_ZN5alita24HandOffMasterMiniProgram10SharedDtorEv
alita.node:_ZN5alita24HandOffMasterMiniProgram16default_instanceEv
alita.node:_ZN5alita24HandOffMasterMiniProgram16kIconFieldNumberE
alita.node:_ZN5alita24HandOffMasterMiniProgram17default_instance_E
alita.node:_ZN5alita24HandOffMasterMiniProgram17kAppIdFieldNumberE
alita.node:_ZN5alita24HandOffMasterMiniProgram17kTitleFieldNumberE
alita.node:_ZN5alita24HandOffMasterMiniProgram21CheckTypeAndMergeFromERKN7tencent8protobuf11MessageLiteE
alita.node:_ZN5alita24HandOffMasterMiniProgram21InitAsDefaultInstanceEv
alita.node:_ZN5alita24HandOffMasterMiniProgram23kAppUsernameFieldNumberE
alita.node:_ZN5alita24HandOffMasterMiniProgram23kHandoffTypeFieldNumberE
alita.node:_ZN5alita24HandOffMasterMiniProgram27MergePartialFromCodedStreamEPN7tencent8protobuf2io16CodedInputStreamE
alita.node:_ZN5alita24HandOffMasterMiniProgram4SwapEPS0_
alita.node:_ZN5alita24HandOffMasterMiniProgram5ClearEv
alita.node:_ZN5alita24HandOffMasterMiniProgram8CopyFromERKS0_
alita.node:_ZN5alita24HandOffMasterMiniProgram9MergeFromERKS0_
alita.node:_ZN5alita24HandOffMasterMiniProgramC1ERKS0_
alita.node:_ZN5alita24HandOffMasterMiniProgramC1Ev
alita.node:_ZN5alita24HandOffMasterMiniProgramC2ERKS0_
alita.node:_ZN5alita24HandOffMasterMiniProgramC2Ev
alita.node:_ZN5alita24HandOffMasterMiniProgramD0Ev
alita.node:_ZN5alita24HandOffMasterMiniProgramD1Ev
alita.node:_ZN5alita24HandOffMasterMiniProgramD2Ev
alita.node:_ZN5alita24InviteRoomMemberResponse10SharedCtorEv
alita.node:_ZN5alita24InviteRoomMemberResponse10SharedDtorEv
alita.node:_ZN5alita24InviteRoomMemberResponse16default_instanceEv
alita.node:_ZN5alita24InviteRoomMemberResponse17default_instance_E
alita.node:_ZN5alita24InviteRoomMemberResponse18kErrMsgFieldNumberE
alita.node:_ZN5alita24InviteRoomMemberResponse18kTaskIdFieldNumberE
alita.node:_ZN5alita24InviteRoomMemberResponse19kErrCodeFieldNumberE
alita.node:_ZN5alita24InviteRoomMemberResponse21CheckTypeAndMergeFromERKN7tencent8protobuf11MessageLiteE
alita.node:_ZN5alita24InviteRoomMemberResponse21InitAsDefaultInstanceEv
alita.node:_ZN5alita24InviteRoomMemberResponse27MergePartialFromCodedStreamEPN7tencent8protobuf2io16CodedInputStreamE
alita.node:_ZN5alita24InviteRoomMemberResponse4SwapEPS0_
alita.node:_ZN5alita24InviteRoomMemberResponse5ClearEv
alita.node:_ZN5alita24InviteRoomMemberResponse8CopyFromERKS0_
alita.node:_ZN5alita24InviteRoomMemberResponse9MergeFromERKS0_
alita.node:_ZN5alita24InviteRoomMemberResponseC1ERKS0_
alita.node:_ZN5alita24InviteRoomMemberResponseC1Ev
alita.node:_ZN5alita24InviteRoomMemberResponseC2ERKS0_
alita.node:_ZN5alita24InviteRoomMemberResponseC2Ev
alita.node:_ZN5alita24InviteRoomMemberResponseD0Ev
alita.node:_ZN5alita24InviteRoomMemberResponseD1Ev
alita.node:_ZN5alita24InviteRoomMemberResponseD2Ev
alita.node:_ZN5alita24LoginQrCodeScene_IsValidEi
alita.node:_ZN5alita24MarkMessageOpenedRequest10SharedCtorEv
alita.node:_ZN5alita24MarkMessageOpenedRequest10SharedDtorEv
alita.node:_ZN5alita24MarkMessageOpenedRequest16default_instanceEv
alita.node:_ZN5alita24MarkMessageOpenedRequest17default_instance_E
alita.node:_ZN5alita24MarkMessageOpenedRequest17kMsgIdFieldNumberE
alita.node:_ZN5alita24MarkMessageOpenedRequest21CheckTypeAndMergeFromERKN7tencent8protobuf11MessageLiteE
alita.node:_ZN5alita24MarkMessageOpenedRequest21InitAsDefaultInstanceEv
alita.node:_ZN5alita24MarkMessageOpenedRequest27MergePartialFromCodedStreamEPN7tencent8protobuf2io16CodedInputStreamE
alita.node:_ZN5alita24MarkMessageOpenedRequest4SwapEPS0_
alita.node:_ZN5alita24MarkMessageOpenedRequest5ClearEv
alita.node:_ZN5alita24MarkMessageOpenedRequest8CopyFromERKS0_
alita.node:_ZN5alita24MarkMessageOpenedRequest9MergeFromERKS0_
alita.node:_ZN5alita24MarkMessageOpenedRequestC1ERKS0_
alita.node:_ZN5alita24MarkMessageOpenedRequestC1Ev
alita.node:_ZN5alita24MarkMessageOpenedRequestC2ERKS0_
alita.node:_ZN5alita24MarkMessageOpenedRequestC2Ev
alita.node:_ZN5alita24MarkMessageOpenedRequestD0Ev
alita.node:_ZN5alita24MarkMessageOpenedRequestD1Ev
alita.node:_ZN5alita24MarkMessageOpenedRequestD2Ev
alita.node:_ZN5alita24ReceivePayMessageRequest10SharedCtorEv
alita.node:_ZN5alita24ReceivePayMessageRequest10SharedDtorEv
alita.node:_ZN5alita24ReceivePayMessageRequest16default_instanceEv
alita.node:_ZN5alita24ReceivePayMessageRequest17default_instance_E
alita.node:_ZN5alita24ReceivePayMessageRequest21CheckTypeAndMergeFromERKN7tencent8protobuf11MessageLiteE
alita.node:_ZN5alita24ReceivePayMessageRequest21InitAsDefaultInstanceEv
alita.node:_ZN5alita24ReceivePayMessageRequest22kPayMessageFieldNumberE
alita.node:_ZN5alita24ReceivePayMessageRequest27MergePartialFromCodedStreamEPN7tencent8protobuf2io16CodedInputStreamE
alita.node:_ZN5alita24ReceivePayMessageRequest4SwapEPS0_
alita.node:_ZN5alita24ReceivePayMessageRequest5ClearEv
alita.node:_ZN5alita24ReceivePayMessageRequest8CopyFromERKS0_
alita.node:_ZN5alita24ReceivePayMessageRequest9MergeFromERKS0_
alita.node:_ZN5alita24ReceivePayMessageRequestC1ERKS0_
alita.node:_ZN5alita24ReceivePayMessageRequestC1Ev
alita.node:_ZN5alita24ReceivePayMessageRequestC2ERKS0_
alita.node:_ZN5alita24ReceivePayMessageRequestC2Ev
alita.node:_ZN5alita24ReceivePayMessageRequestD0Ev
alita.node:_ZN5alita24ReceivePayMessageRequestD1Ev
alita.node:_ZN5alita24ReceivePayMessageRequestD2Ev
alita.node:_ZN5alita24SendEmojiMessageResponse10SharedCtorEv
alita.node:_ZN5alita24SendEmojiMessageResponse10SharedDtorEv
alita.node:_ZN5alita24SendEmojiMessageResponse16default_instanceEv
alita.node:_ZN5alita24SendEmojiMessageResponse17default_instance_E
alita.node:_ZN5alita24SendEmojiMessageResponse17kMsgIdFieldNumberE
alita.node:_ZN5alita24SendEmojiMessageResponse18kErrMsgFieldNumberE
alita.node:_ZN5alita24SendEmojiMessageResponse18kTaskIdFieldNumberE
alita.node:_ZN5alita24SendEmojiMessageResponse19kErrCodeFieldNumberE
alita.node:_ZN5alita24SendEmojiMessageResponse21CheckTypeAndMergeFromERKN7tencent8protobuf11MessageLiteE
alita.node:_ZN5alita24SendEmojiMessageResponse21InitAsDefaultInstanceEv
alita.node:_ZN5alita24SendEmojiMessageResponse27MergePartialFromCodedStreamEPN7tencent8protobuf2io16CodedInputStreamE
alita.node:_ZN5alita24SendEmojiMessageResponse4SwapEPS0_
alita.node:_ZN5alita24SendEmojiMessageResponse5ClearEv
alita.node:_ZN5alita24SendEmojiMessageResponse8CopyFromERKS0_
alita.node:_ZN5alita24SendEmojiMessageResponse9MergeFromERKS0_
alita.node:_ZN5alita24SendEmojiMessageResponseC1ERKS0_
alita.node:_ZN5alita24SendEmojiMessageResponseC1Ev
alita.node:_ZN5alita24SendEmojiMessageResponseC2ERKS0_
alita.node:_ZN5alita24SendEmojiMessageResponseC2Ev
alita.node:_ZN5alita24SendEmojiMessageResponseD0Ev
alita.node:_ZN5alita24SendEmojiMessageResponseD1Ev
alita.node:_ZN5alita24SendEmojiMessageResponseD2Ev
alita.node:_ZN5alita24SendImageMessageResponse10SharedCtorEv
alita.node:_ZN5alita24SendImageMessageResponse10SharedDtorEv
alita.node:_ZN5alita24SendImageMessageResponse16default_instanceEv
alita.node:_ZN5alita24SendImageMessageResponse17default_instance_E
alita.node:_ZN5alita24SendImageMessageResponse17kMsgIdFieldNumberE
alita.node:_ZN5alita24SendImageMessageResponse18kErrMsgFieldNumberE
alita.node:_ZN5alita24SendImageMessageResponse18kTaskIdFieldNumberE
alita.node:_ZN5alita24SendImageMessageResponse19kErrCodeFieldNumberE
alita.node:_ZN5alita24SendImageMessageResponse21CheckTypeAndMergeFromERKN7tencent8protobuf11MessageLiteE
alita.node:_ZN5alita24SendImageMessageResponse21InitAsDefaultInstanceEv
alita.node:_ZN5alita24SendImageMessageResponse27MergePartialFromCodedStreamEPN7tencent8protobuf2io16CodedInputStreamE
alita.node:_ZN5alita24SendImageMessageResponse4SwapEPS0_
alita.node:_ZN5alita24SendImageMessageResponse5ClearEv
alita.node:_ZN5alita24SendImageMessageResponse8CopyFromERKS0_
alita.node:_ZN5alita24SendImageMessageResponse9MergeFromERKS0_
alita.node:_ZN5alita24SendImageMessageResponseC1ERKS0_
alita.node:_ZN5alita24SendImageMessageResponseC1Ev
alita.node:_ZN5alita24SendImageMessageResponseC2ERKS0_
alita.node:_ZN5alita24SendImageMessageResponseC2Ev
alita.node:_ZN5alita24SendImageMessageResponseD0Ev
alita.node:_ZN5alita24SendImageMessageResponseD1Ev
alita.node:_ZN5alita24SendImageMessageResponseD2Ev
alita.node:_ZN5alita24SendVideoMessageResponse10SharedCtorEv
alita.node:_ZN5alita24SendVideoMessageResponse10SharedDtorEv
alita.node:_ZN5alita24SendVideoMessageResponse16default_instanceEv
alita.node:_ZN5alita24SendVideoMessageResponse17default_instance_E
alita.node:_ZN5alita24SendVideoMessageResponse17kMsgIdFieldNumberE
alita.node:_ZN5alita24SendVideoMessageResponse18kErrMsgFieldNumberE
alita.node:_ZN5alita24SendVideoMessageResponse18kTaskIdFieldNumberE
alita.node:_ZN5alita24SendVideoMessageResponse19kErrCodeFieldNumberE
alita.node:_ZN5alita24SendVideoMessageResponse21CheckTypeAndMergeFromERKN7tencent8protobuf11MessageLiteE
alita.node:_ZN5alita24SendVideoMessageResponse21InitAsDefaultInstanceEv
alita.node:_ZN5alita24SendVideoMessageResponse27MergePartialFromCodedStreamEPN7tencent8protobuf2io16CodedInputStreamE
alita.node:_ZN5alita24SendVideoMessageResponse4SwapEPS0_
alita.node:_ZN5alita24SendVideoMessageResponse5ClearEv
alita.node:_ZN5alita24SendVideoMessageResponse8CopyFromERKS0_
alita.node:_ZN5alita24SendVideoMessageResponse9MergeFromERKS0_
alita.node:_ZN5alita24SendVideoMessageResponseC1ERKS0_
alita.node:_ZN5alita24SendVideoMessageResponseC1Ev
alita.node:_ZN5alita24SendVideoMessageResponseC2ERKS0_
alita.node:_ZN5alita24SendVideoMessageResponseC2Ev
alita.node:_ZN5alita24SendVideoMessageResponseD0Ev
alita.node:_ZN5alita24SendVideoMessageResponseD1Ev
alita.node:_ZN5alita24SendVideoMessageResponseD2Ev
alita.node:_ZN5alita24SendVoiceMessageResponse10SharedCtorEv
alita.node:_ZN5alita24SendVoiceMessageResponse10SharedDtorEv
alita.node:_ZN5alita24SendVoiceMessageResponse16default_instanceEv
alita.node:_ZN5alita24SendVoiceMessageResponse17default_instance_E
alita.node:_ZN5alita24SendVoiceMessageResponse17kMsgIdFieldNumberE
alita.node:_ZN5alita24SendVoiceMessageResponse18kErrMsgFieldNumberE
alita.node:_ZN5alita24SendVoiceMessageResponse18kTaskIdFieldNumberE
alita.node:_ZN5alita24SendVoiceMessageResponse19kErrCodeFieldNumberE
alita.node:_ZN5alita24SendVoiceMessageResponse21CheckTypeAndMergeFromERKN7tencent8protobuf11MessageLiteE
alita.node:_ZN5alita24SendVoiceMessageResponse21InitAsDefaultInstanceEv
alita.node:_ZN5alita24SendVoiceMessageResponse27MergePartialFromCodedStreamEPN7tencent8protobuf2io16CodedInputStreamE
alita.node:_ZN5alita24SendVoiceMessageResponse4SwapEPS0_
alita.node:_ZN5alita24SendVoiceMessageResponse5ClearEv
alita.node:_ZN5alita24SendVoiceMessageResponse8CopyFromERKS0_
alita.node:_ZN5alita24SendVoiceMessageResponse9MergeFromERKS0_
alita.node:_ZN5alita24SendVoiceMessageResponseC1ERKS0_
alita.node:_ZN5alita24SendVoiceMessageResponseC1Ev
alita.node:_ZN5alita24SendVoiceMessageResponseC2ERKS0_
alita.node:_ZN5alita24SendVoiceMessageResponseC2Ev
alita.node:_ZN5alita24SendVoiceMessageResponseD0Ev
alita.node:_ZN5alita24SendVoiceMessageResponseD1Ev
alita.node:_ZN5alita24SendVoiceMessageResponseD2Ev
alita.node:_ZN5alita24SetRoomInContactResponse10SharedCtorEv
alita.node:_ZN5alita24SetRoomInContactResponse10SharedDtorEv
alita.node:_ZN5alita24SetRoomInContactResponse16default_instanceEv
alita.node:_ZN5alita24SetRoomInContactResponse17default_instance_E
alita.node:_ZN5alita24SetRoomInContactResponse18kErrMsgFieldNumberE
alita.node:_ZN5alita24SetRoomInContactResponse18kTaskIdFieldNumberE
alita.node:_ZN5alita24SetRoomInContactResponse19kErrCodeFieldNumberE
alita.node:_ZN5alita24SetRoomInContactResponse21CheckTypeAndMergeFromERKN7tencent8protobuf11MessageLiteE
alita.node:_ZN5alita24SetRoomInContactResponse21InitAsDefaultInstanceEv
alita.node:_ZN5alita24SetRoomInContactResponse27MergePartialFromCodedStreamEPN7tencent8protobuf2io16CodedInputStreamE
alita.node:_ZN5alita24SetRoomInContactResponse4SwapEPS0_
alita.node:_ZN5alita24SetRoomInContactResponse5ClearEv
alita.node:_ZN5alita24SetRoomInContactResponse8CopyFromERKS0_
alita.node:_ZN5alita24SetRoomInContactResponse9MergeFromERKS0_
alita.node:_ZN5alita24SetRoomInContactResponseC1ERKS0_
alita.node:_ZN5alita24SetRoomInContactResponseC1Ev
alita.node:_ZN5alita24SetRoomInContactResponseC2ERKS0_
alita.node:_ZN5alita24SetRoomInContactResponseC2Ev
alita.node:_ZN5alita24SetRoomInContactResponseD0Ev
alita.node:_ZN5alita24SetRoomInContactResponseD1Ev
alita.node:_ZN5alita24SetRoomInContactResponseD2Ev
alita.node:_ZN5alita24SetRoomMuteStatusRequest10SharedCtorEv
alita.node:_ZN5alita24SetRoomMuteStatusRequest10SharedDtorEv
alita.node:_ZN5alita24SetRoomMuteStatusRequest16default_instanceEv
alita.node:_ZN5alita24SetRoomMuteStatusRequest17default_instance_E
alita.node:_ZN5alita24SetRoomMuteStatusRequest18kIsMuteFieldNumberE
alita.node:_ZN5alita24SetRoomMuteStatusRequest18kTaskIdFieldNumberE
alita.node:_ZN5alita24SetRoomMuteStatusRequest21CheckTypeAndMergeFromERKN7tencent8protobuf11MessageLiteE
alita.node:_ZN5alita24SetRoomMuteStatusRequest21InitAsDefaultInstanceEv
alita.node:_ZN5alita24SetRoomMuteStatusRequest24kRoomUsernameFieldNumberE
alita.node:_ZN5alita24SetRoomMuteStatusRequest27MergePartialFromCodedStreamEPN7tencent8protobuf2io16CodedInputStreamE
alita.node:_ZN5alita24SetRoomMuteStatusRequest4SwapEPS0_
alita.node:_ZN5alita24SetRoomMuteStatusRequest5ClearEv
alita.node:_ZN5alita24SetRoomMuteStatusRequest8CopyFromERKS0_
alita.node:_ZN5alita24SetRoomMuteStatusRequest9MergeFromERKS0_
alita.node:_ZN5alita24SetRoomMuteStatusRequestC1ERKS0_
alita.node:_ZN5alita24SetRoomMuteStatusRequestC1Ev
alita.node:_ZN5alita24SetRoomMuteStatusRequestC2ERKS0_
alita.node:_ZN5alita24SetRoomMuteStatusRequestC2Ev
alita.node:_ZN5alita24SetRoomMuteStatusRequestD0Ev
alita.node:_ZN5alita24SetRoomMuteStatusRequestD1Ev
alita.node:_ZN5alita24SetRoomMuteStatusRequestD2Ev
alita.node:_ZN5alita24ShareEmojiMessageRequest10SharedCtorEv
alita.node:_ZN5alita24ShareEmojiMessageRequest10SharedDtorEv
alita.node:_ZN5alita24ShareEmojiMessageRequest16default_instanceEv
alita.node:_ZN5alita24ShareEmojiMessageRequest17default_instance_E
alita.node:_ZN5alita24ShareEmojiMessageRequest18kTaskIdFieldNumberE
alita.node:_ZN5alita24ShareEmojiMessageRequest19kAppInfoFieldNumberE
alita.node:_ZN5alita24ShareEmojiMessageRequest19kMsgInfoFieldNumberE
alita.node:_ZN5alita24ShareEmojiMessageRequest20kUsernameFieldNumberE
alita.node:_ZN5alita24ShareEmojiMessageRequest21CheckTypeAndMergeFromERKN7tencent8protobuf11MessageLiteE
alita.node:_ZN5alita24ShareEmojiMessageRequest21InitAsDefaultInstanceEv
alita.node:_ZN5alita24ShareEmojiMessageRequest21kEmojiInfoFieldNumberE
alita.node:_ZN5alita24ShareEmojiMessageRequest27MergePartialFromCodedStreamEPN7tencent8protobuf2io16CodedInputStreamE
alita.node:_ZN5alita24ShareEmojiMessageRequest4SwapEPS0_
alita.node:_ZN5alita24ShareEmojiMessageRequest5ClearEv
alita.node:_ZN5alita24ShareEmojiMessageRequest8CopyFromERKS0_
alita.node:_ZN5alita24ShareEmojiMessageRequest9MergeFromERKS0_
alita.node:_ZN5alita24ShareEmojiMessageRequestC1ERKS0_
alita.node:_ZN5alita24ShareEmojiMessageRequestC1Ev
alita.node:_ZN5alita24ShareEmojiMessageRequestC2ERKS0_
alita.node:_ZN5alita24ShareEmojiMessageRequestC2Ev
alita.node:_ZN5alita24ShareEmojiMessageRequestD0Ev
alita.node:_ZN5alita24ShareEmojiMessageRequestD1Ev
alita.node:_ZN5alita24ShareEmojiMessageRequestD2Ev
alita.node:_ZN5alita24ShareFileMessageResponse10SharedCtorEv
alita.node:_ZN5alita24ShareFileMessageResponse10SharedDtorEv
alita.node:_ZN5alita24ShareFileMessageResponse16default_instanceEv
alita.node:_ZN5alita24ShareFileMessageResponse17default_instance_E
alita.node:_ZN5alita24ShareFileMessageResponse18kErrMsgFieldNumberE
alita.node:_ZN5alita24ShareFileMessageResponse18kTaskIdFieldNumberE
alita.node:_ZN5alita24ShareFileMessageResponse19kErrCodeFieldNumberE
alita.node:_ZN5alita24ShareFileMessageResponse21CheckTypeAndMergeFromERKN7tencent8protobuf11MessageLiteE
alita.node:_ZN5alita24ShareFileMessageResponse21InitAsDefaultInstanceEv
alita.node:_ZN5alita24ShareFileMessageResponse27MergePartialFromCodedStreamEPN7tencent8protobuf2io16CodedInputStreamE
alita.node:_ZN5alita24ShareFileMessageResponse4SwapEPS0_
alita.node:_ZN5alita24ShareFileMessageResponse5ClearEv
alita.node:_ZN5alita24ShareFileMessageResponse8CopyFromERKS0_
alita.node:_ZN5alita24ShareFileMessageResponse9MergeFromERKS0_
alita.node:_ZN5alita24ShareFileMessageResponseC1ERKS0_
alita.node:_ZN5alita24ShareFileMessageResponseC1Ev
alita.node:_ZN5alita24ShareFileMessageResponseC2ERKS0_
alita.node:_ZN5alita24ShareFileMessageResponseC2Ev
alita.node:_ZN5alita24ShareFileMessageResponseD0Ev
alita.node:_ZN5alita24ShareFileMessageResponseD1Ev
alita.node:_ZN5alita24ShareFileMessageResponseD2Ev
alita.node:_ZN5alita24ShareImageMessageRequest10SharedCtorEv
alita.node:_ZN5alita24ShareImageMessageRequest10SharedDtorEv
alita.node:_ZN5alita24ShareImageMessageRequest16default_instanceEv
alita.node:_ZN5alita24ShareImageMessageRequest17default_instance_E
alita.node:_ZN5alita24ShareImageMessageRequest18kTaskIdFieldNumberE
alita.node:_ZN5alita24ShareImageMessageRequest19kAppInfoFieldNumberE
alita.node:_ZN5alita24ShareImageMessageRequest19kMsgInfoFieldNumberE
alita.node:_ZN5alita24ShareImageMessageRequest20kUsernameFieldNumberE
alita.node:_ZN5alita24ShareImageMessageRequest21CheckTypeAndMergeFromERKN7tencent8protobuf11MessageLiteE
alita.node:_ZN5alita24ShareImageMessageRequest21InitAsDefaultInstanceEv
alita.node:_ZN5alita24ShareImageMessageRequest21kImagePathFieldNumberE
alita.node:_ZN5alita24ShareImageMessageRequest27MergePartialFromCodedStreamEPN7tencent8protobuf2io16CodedInputStreamE
alita.node:_ZN5alita24ShareImageMessageRequest4SwapEPS0_
alita.node:_ZN5alita24ShareImageMessageRequest5ClearEv
alita.node:_ZN5alita24ShareImageMessageRequest8CopyFromERKS0_
alita.node:_ZN5alita24ShareImageMessageRequest9MergeFromERKS0_
alita.node:_ZN5alita24ShareImageMessageRequestC1ERKS0_
alita.node:_ZN5alita24ShareImageMessageRequestC1Ev
alita.node:_ZN5alita24ShareImageMessageRequestC2ERKS0_
alita.node:_ZN5alita24ShareImageMessageRequestC2Ev
alita.node:_ZN5alita24ShareImageMessageRequestD0Ev
alita.node:_ZN5alita24ShareImageMessageRequestD1Ev
alita.node:_ZN5alita24ShareImageMessageRequestD2Ev
alita.node:_ZN5alita24ShareMusicMessageRequest10SharedCtorEv
alita.node:_ZN5alita24ShareMusicMessageRequest10SharedDtorEv
alita.node:_ZN5alita24ShareMusicMessageRequest16default_instanceEv
alita.node:_ZN5alita24ShareMusicMessageRequest17default_instance_E
alita.node:_ZN5alita24ShareMusicMessageRequest18kTaskIdFieldNumberE
alita.node:_ZN5alita24ShareMusicMessageRequest19kAppInfoFieldNumberE
alita.node:_ZN5alita24ShareMusicMessageRequest19kMsgInfoFieldNumberE
alita.node:_ZN5alita24ShareMusicMessageRequest20kUsernameFieldNumberE
alita.node:_ZN5alita24ShareMusicMessageRequest21CheckTypeAndMergeFromERKN7tencent8protobuf11MessageLiteE
alita.node:_ZN5alita24ShareMusicMessageRequest21InitAsDefaultInstanceEv
alita.node:_ZN5alita24ShareMusicMessageRequest21kMusicInfoFieldNumberE
alita.node:_ZN5alita24ShareMusicMessageRequest27MergePartialFromCodedStreamEPN7tencent8protobuf2io16CodedInputStreamE
alita.node:_ZN5alita24ShareMusicMessageRequest4SwapEPS0_
alita.node:_ZN5alita24ShareMusicMessageRequest5ClearEv
alita.node:_ZN5alita24ShareMusicMessageRequest8CopyFromERKS0_
alita.node:_ZN5alita24ShareMusicMessageRequest9MergeFromERKS0_
alita.node:_ZN5alita24ShareMusicMessageRequestC1ERKS0_
alita.node:_ZN5alita24ShareMusicMessageRequestC1Ev
alita.node:_ZN5alita24ShareMusicMessageRequestC2ERKS0_
alita.node:_ZN5alita24ShareMusicMessageRequestC2Ev
alita.node:_ZN5alita24ShareMusicMessageRequestD0Ev
alita.node:_ZN5alita24ShareMusicMessageRequestD1Ev
alita.node:_ZN5alita24ShareMusicMessageRequestD2Ev
alita.node:_ZN5alita24ShareTextMessageResponse10SharedCtorEv
alita.node:_ZN5alita24ShareTextMessageResponse10SharedDtorEv
alita.node:_ZN5alita24ShareTextMessageResponse16default_instanceEv
alita.node:_ZN5alita24ShareTextMessageResponse17default_instance_E
alita.node:_ZN5alita24ShareTextMessageResponse18kErrMsgFieldNumberE
alita.node:_ZN5alita24ShareTextMessageResponse18kTaskIdFieldNumberE
alita.node:_ZN5alita24ShareTextMessageResponse19kErrCodeFieldNumberE
alita.node:_ZN5alita24ShareTextMessageResponse21CheckTypeAndMergeFromERKN7tencent8protobuf11MessageLiteE
alita.node:_ZN5alita24ShareTextMessageResponse21InitAsDefaultInstanceEv
alita.node:_ZN5alita24ShareTextMessageResponse27MergePartialFromCodedStreamEPN7tencent8protobuf2io16CodedInputStreamE
alita.node:_ZN5alita24ShareTextMessageResponse4SwapEPS0_
alita.node:_ZN5alita24ShareTextMessageResponse5ClearEv
alita.node:_ZN5alita24ShareTextMessageResponse8CopyFromERKS0_
alita.node:_ZN5alita24ShareTextMessageResponse9MergeFromERKS0_
alita.node:_ZN5alita24ShareTextMessageResponseC1ERKS0_
alita.node:_ZN5alita24ShareTextMessageResponseC1Ev
alita.node:_ZN5alita24ShareTextMessageResponseC2ERKS0_
alita.node:_ZN5alita24ShareTextMessageResponseC2Ev
alita.node:_ZN5alita24ShareTextMessageResponseD0Ev
alita.node:_ZN5alita24ShareTextMessageResponseD1Ev
alita.node:_ZN5alita24ShareTextMessageResponseD2Ev
alita.node:_ZN5alita24ShareVideoMessageRequest10SharedCtorEv
alita.node:_ZN5alita24ShareVideoMessageRequest10SharedDtorEv
alita.node:_ZN5alita24ShareVideoMessageRequest16default_instanceEv
alita.node:_ZN5alita24ShareVideoMessageRequest17default_instance_E
alita.node:_ZN5alita24ShareVideoMessageRequest18kTaskIdFieldNumberE
alita.node:_ZN5alita24ShareVideoMessageRequest19kAppInfoFieldNumberE
alita.node:_ZN5alita24ShareVideoMessageRequest19kMsgInfoFieldNumberE
alita.node:_ZN5alita24ShareVideoMessageRequest20kUsernameFieldNumberE
alita.node:_ZN5alita24ShareVideoMessageRequest21CheckTypeAndMergeFromERKN7tencent8protobuf11MessageLiteE
alita.node:_ZN5alita24ShareVideoMessageRequest21InitAsDefaultInstanceEv
alita.node:_ZN5alita24ShareVideoMessageRequest21kVideoInfoFieldNumberE
alita.node:_ZN5alita24ShareVideoMessageRequest27MergePartialFromCodedStreamEPN7tencent8protobuf2io16CodedInputStreamE
alita.node:_ZN5alita24ShareVideoMessageRequest4SwapEPS0_
alita.node:_ZN5alita24ShareVideoMessageRequest5ClearEv
alita.node:_ZN5alita24ShareVideoMessageRequest8CopyFromERKS0_
alita.node:_ZN5alita24ShareVideoMessageRequest9MergeFromERKS0_
alita.node:_ZN5alita24ShareVideoMessageRequestC1ERKS0_
alita.node:_ZN5alita24ShareVideoMessageRequestC1Ev
alita.node:_ZN5alita24ShareVideoMessageRequestC2ERKS0_
alita.node:_ZN5alita24ShareVideoMessageRequestC2Ev
alita.node:_ZN5alita24ShareVideoMessageRequestD0Ev
alita.node:_ZN5alita24ShareVideoMessageRequestD1Ev
alita.node:_ZN5alita24ShareVideoMessageRequestD2Ev
alita.node:_ZN5alita24UnifyErrorAction_IsValidEi
alita.node:_ZN5alita24VerifyMessageContentList10SharedCtorEv
alita.node:_ZN5alita24VerifyMessageContentList10SharedDtorEv
alita.node:_ZN5alita24VerifyMessageContentList16default_instanceEv
alita.node:_ZN5alita24VerifyMessageContentList17default_instance_E
alita.node:_ZN5alita24VerifyMessageContentList21CheckTypeAndMergeFromERKN7tencent8protobuf11MessageLiteE
alita.node:_ZN5alita24VerifyMessageContentList21InitAsDefaultInstanceEv
alita.node:_ZN5alita24VerifyMessageContentList27MergePartialFromCodedStreamEPN7tencent8protobuf2io16CodedInputStreamE
alita.node:_ZN5alita24VerifyMessageContentList32kVerifyMessageContentFieldNumberE
alita.node:_ZN5alita24VerifyMessageContentList4SwapEPS0_
alita.node:_ZN5alita24VerifyMessageContentList5ClearEv
alita.node:_ZN5alita24VerifyMessageContentList8CopyFromERKS0_
alita.node:_ZN5alita24VerifyMessageContentList9MergeFromERKS0_
alita.node:_ZN5alita24VerifyMessageContentListC1ERKS0_
alita.node:_ZN5alita24VerifyMessageContentListC1Ev
alita.node:_ZN5alita24VerifyMessageContentListC2ERKS0_
alita.node:_ZN5alita24VerifyMessageContentListC2Ev
alita.node:_ZN5alita24VerifyMessageContentListD0Ev
alita.node:_ZN5alita24VerifyMessageContentListD1Ev
alita.node:_ZN5alita24VerifyMessageContentListD2Ev
alita.node:_ZN5alita24VoipMessageState_IsValidEi
alita.node:_ZN5alita24WeAppPackageType_IsValidEi
alita.node:_ZN5alita25AppBrandShareType_IsValidEi
alita.node:_ZN5alita25BatchUpdateContactRequest10SharedCtorEv
alita.node:_ZN5alita25BatchUpdateContactRequest10SharedDtorEv
alita.node:_ZN5alita25BatchUpdateContactRequest16default_instanceEv
alita.node:_ZN5alita25BatchUpdateContactRequest17default_instance_E
alita.node:_ZN5alita25BatchUpdateContactRequest18kTaskIdFieldNumberE
alita.node:_ZN5alita25BatchUpdateContactRequest21CheckTypeAndMergeFromERKN7tencent8protobuf11MessageLiteE
alita.node:_ZN5alita25BatchUpdateContactRequest21InitAsDefaultInstanceEv
alita.node:_ZN5alita25BatchUpdateContactRequest24kUsernameListFieldNumberE
alita.node:_ZN5alita25BatchUpdateContactRequest27MergePartialFromCodedStreamEPN7tencent8protobuf2io16CodedInputStreamE
alita.node:_ZN5alita25BatchUpdateContactRequest4SwapEPS0_
alita.node:_ZN5alita25BatchUpdateContactRequest5ClearEv
alita.node:_ZN5alita25BatchUpdateContactRequest8CopyFromERKS0_
alita.node:_ZN5alita25BatchUpdateContactRequest9MergeFromERKS0_
alita.node:_ZN5alita25BatchUpdateContactRequestC1ERKS0_
alita.node:_ZN5alita25BatchUpdateContactRequestC1Ev
alita.node:_ZN5alita25BatchUpdateContactRequestC2ERKS0_
alita.node:_ZN5alita25BatchUpdateContactRequestC2Ev
alita.node:_ZN5alita25BatchUpdateContactRequestD0Ev
alita.node:_ZN5alita25BatchUpdateContactRequestD1Ev
alita.node:_ZN5alita25BatchUpdateContactRequestD2Ev
alita.node:_ZN5alita25CancelSendMessageResponse10SharedCtorEv
alita.node:_ZN5alita25CancelSendMessageResponse10SharedDtorEv
alita.node:_ZN5alita25CancelSendMessageResponse16default_instanceEv
alita.node:_ZN5alita25CancelSendMessageResponse17default_instance_E
alita.node:_ZN5alita25CancelSendMessageResponse19kErrCodeFieldNumberE
alita.node:_ZN5alita25CancelSendMessageResponse21CheckTypeAndMergeFromERKN7tencent8protobuf11MessageLiteE
alita.node:_ZN5alita25CancelSendMessageResponse21InitAsDefaultInstanceEv
alita.node:_ZN5alita25CancelSendMessageResponse27MergePartialFromCodedStreamEPN7tencent8protobuf2io16CodedInputStreamE
alita.node:_ZN5alita25CancelSendMessageResponse4SwapEPS0_
alita.node:_ZN5alita25CancelSendMessageResponse5ClearEv
alita.node:_ZN5alita25CancelSendMessageResponse8CopyFromERKS0_
alita.node:_ZN5alita25CancelSendMessageResponse9MergeFromERKS0_
alita.node:_ZN5alita25CancelSendMessageResponseC1ERKS0_
alita.node:_ZN5alita25CancelSendMessageResponseC1Ev
alita.node:_ZN5alita25CancelSendMessageResponseC2ERKS0_
alita.node:_ZN5alita25CancelSendMessageResponseC2Ev
alita.node:_ZN5alita25CancelSendMessageResponseD0Ev
alita.node:_ZN5alita25CancelSendMessageResponseD1Ev
alita.node:_ZN5alita25CancelSendMessageResponseD2Ev
alita.node:_ZN5alita25ConversationUpdateRequest10SharedCtorEv
alita.node:_ZN5alita25ConversationUpdateRequest10SharedDtorEv
alita.node:_ZN5alita25ConversationUpdateRequest16default_instanceEv
alita.node:_ZN5alita25ConversationUpdateRequest17default_instance_E
alita.node:_ZN5alita25ConversationUpdateRequest18kOpCodeFieldNumberE
alita.node:_ZN5alita25ConversationUpdateRequest20kUsernameFieldNumberE
alita.node:_ZN5alita25ConversationUpdateRequest21CheckTypeAndMergeFromERKN7tencent8protobuf11MessageLiteE
alita.node:_ZN5alita25ConversationUpdateRequest21InitAsDefaultInstanceEv
alita.node:_ZN5alita25ConversationUpdateRequest24kConversationFieldNumberE
alita.node:_ZN5alita25ConversationUpdateRequest27MergePartialFromCodedStreamEPN7tencent8protobuf2io16CodedInputStreamE
alita.node:_ZN5alita25ConversationUpdateRequest4SwapEPS0_
alita.node:_ZN5alita25ConversationUpdateRequest5ClearEv
alita.node:_ZN5alita25ConversationUpdateRequest8CopyFromERKS0_
alita.node:_ZN5alita25ConversationUpdateRequest9MergeFromERKS0_
alita.node:_ZN5alita25ConversationUpdateRequestC1ERKS0_
alita.node:_ZN5alita25ConversationUpdateRequestC1Ev
alita.node:_ZN5alita25ConversationUpdateRequestC2ERKS0_
alita.node:_ZN5alita25ConversationUpdateRequestC2Ev
alita.node:_ZN5alita25ConversationUpdateRequestD0Ev
alita.node:_ZN5alita25ConversationUpdateRequestD1Ev
alita.node:_ZN5alita25ConversationUpdateRequestD2Ev
alita.node:_ZN5alita25DeleteConversationRequest10SharedCtorEv
alita.node:_ZN5alita25DeleteConversationRequest10SharedDtorEv
alita.node:_ZN5alita25DeleteConversationRequest16default_instanceEv
alita.node:_ZN5alita25DeleteConversationRequest17default_instance_E
alita.node:_ZN5alita25DeleteConversationRequest20kUsernameFieldNumberE
alita.node:_ZN5alita25DeleteConversationRequest21CheckTypeAndMergeFromERKN7tencent8protobuf11MessageLiteE
alita.node:_ZN5alita25DeleteConversationRequest21InitAsDefaultInstanceEv
alita.node:_ZN5alita25DeleteConversationRequest23kIsDeleteMsgFieldNumberE
alita.node:_ZN5alita25DeleteConversationRequest27MergePartialFromCodedStreamEPN7tencent8protobuf2io16CodedInputStreamE
alita.node:_ZN5alita25DeleteConversationRequest4SwapEPS0_
alita.node:_ZN5alita25DeleteConversationRequest5ClearEv
alita.node:_ZN5alita25DeleteConversationRequest8CopyFromERKS0_
alita.node:_ZN5alita25DeleteConversationRequest9MergeFromERKS0_
alita.node:_ZN5alita25DeleteConversationRequestC1ERKS0_
alita.node:_ZN5alita25DeleteConversationRequestC1Ev
alita.node:_ZN5alita25DeleteConversationRequestC2ERKS0_
alita.node:_ZN5alita25DeleteConversationRequestC2Ev
alita.node:_ZN5alita25DeleteConversationRequestD0Ev
alita.node:_ZN5alita25DeleteConversationRequestD1Ev
alita.node:_ZN5alita25DeleteConversationRequestD2Ev
alita.node:_ZN5alita25EnterConversation1Request10SharedCtorEv
alita.node:_ZN5alita25EnterConversation1Request10SharedDtorEv
alita.node:_ZN5alita25EnterConversation1Request16default_instanceEv
alita.node:_ZN5alita25EnterConversation1Request17default_instance_E
alita.node:_ZN5alita25EnterConversation1Request21CheckTypeAndMergeFromERKN7tencent8protobuf11MessageLiteE
alita.node:_ZN5alita25EnterConversation1Request21InitAsDefaultInstanceEv
alita.node:_ZN5alita25EnterConversation1Request27MergePartialFromCodedStreamEPN7tencent8protobuf2io16CodedInputStreamE
alita.node:_ZN5alita25EnterConversation1Request28kConversationNameFieldNumberE
alita.node:_ZN5alita25EnterConversation1Request4SwapEPS0_
alita.node:_ZN5alita25EnterConversation1Request5ClearEv
alita.node:_ZN5alita25EnterConversation1Request8CopyFromERKS0_
alita.node:_ZN5alita25EnterConversation1Request9MergeFromERKS0_
alita.node:_ZN5alita25EnterConversation1RequestC1ERKS0_
alita.node:_ZN5alita25EnterConversation1RequestC1Ev
alita.node:_ZN5alita25EnterConversation1RequestC2ERKS0_
alita.node:_ZN5alita25EnterConversation1RequestC2Ev
alita.node:_ZN5alita25EnterConversation1RequestD0Ev
alita.node:_ZN5alita25EnterConversation1RequestD1Ev
alita.node:_ZN5alita25EnterConversation1RequestD2Ev
alita.node:_ZN5alita25GetChatRoomDetailResponse10SharedCtorEv
alita.node:_ZN5alita25GetChatRoomDetailResponse10SharedDtorEv
alita.node:_ZN5alita25GetChatRoomDetailResponse16default_instanceEv
alita.node:_ZN5alita25GetChatRoomDetailResponse17default_instance_E
alita.node:_ZN5alita25GetChatRoomDetailResponse21CheckTypeAndMergeFromERKN7tencent8protobuf11MessageLiteE
alita.node:_ZN5alita25GetChatRoomDetailResponse21InitAsDefaultInstanceEv
alita.node:_ZN5alita25GetChatRoomDetailResponse26kChatRoomDetailFieldNumberE
alita.node:_ZN5alita25GetChatRoomDetailResponse27MergePartialFromCodedStreamEPN7tencent8protobuf2io16CodedInputStreamE
alita.node:_ZN5alita25GetChatRoomDetailResponse4SwapEPS0_
alita.node:_ZN5alita25GetChatRoomDetailResponse5ClearEv
alita.node:_ZN5alita25GetChatRoomDetailResponse8CopyFromERKS0_
alita.node:_ZN5alita25GetChatRoomDetailResponse9MergeFromERKS0_
alita.node:_ZN5alita25GetChatRoomDetailResponseC1ERKS0_
alita.node:_ZN5alita25GetChatRoomDetailResponseC1Ev
alita.node:_ZN5alita25GetChatRoomDetailResponseC2ERKS0_
alita.node:_ZN5alita25GetChatRoomDetailResponseC2Ev
